 handmade

 Timestamp is 67db3796 (Wed Mar 19 17:31:02 2025)

 Preferred load address is 0000000180000000

 Start         Length     Name                   Class
 0001:00000000 0007b000H .text$mn                CODE
 0001:0007b000 00001040H .text$mn$00             CODE
 0001:0007c040 00001e50H .text$mn$21             CODE
 0001:0007de90 00001d26H .text$x                 CODE
 0002:00000000 00000110H .CRT$XCA                DATA
 0002:00000110 00000110H .CRT$XCZ                DATA
 0002:00000220 00000110H .CRT$XIA                DATA
 0002:00000330 00000130H .CRT$XIC                DATA
 0002:00000460 00000110H .CRT$XIZ                DATA
 0002:00000570 00000110H .CRT$XPA                DATA
 0002:00000680 00000120H .CRT$XPX                DATA
 0002:000007a0 00000110H .CRT$XPXA               DATA
 0002:000008b0 00000110H .CRT$XPZ                DATA
 0002:000009c0 00000110H .CRT$XTA                DATA
 0002:00000ad0 00000110H .CRT$XTZ                DATA
 0002:00000be0 0000cd60H .rdata                  DATA
 0002:0000d940 000002c0H .rdata$00               DATA
 0002:0000dc00 00000200H .rdata$CastGuardVftablesA DATA
 0002:0000de00 000001a0H .rdata$CastGuardVftablesC DATA
 0002:0000dfa0 0000060cH .rdata$r                DATA
 0002:0000e5ac 00000154H .rdata$zzzdbg           DATA
 0002:0000e700 00000110H .rtc$IAA                DATA
 0002:0000e810 00000110H .rtc$IZZ                DATA
 0002:0000e920 00000110H .rtc$TAA                DATA
 0002:0000ea30 00000110H .rtc$TZZ                DATA
 0002:0000eb40 00007050H .xdata                  DATA
 0002:00015b90 000001a0H .xdata$x                DATA
 0002:00015d30 00000187H .edata                  DATA
 0003:00000000 00000e30H .data                   DATA
 0003:00000e30 00000190H .data$r                 DATA
 0003:00000fc0 00000230H .data$rs                DATA
 0003:000011f0 00002039H .bss                    DATA
 0004:00000000 00004fecH .pdata                  DATA
 0005:00000000 000003a8H .idata$5                DATA
 0005:000003a8 00000014H .idata$2                DATA
 0005:000003bc 00000014H .idata$3                DATA
 0005:000003d0 000003a8H .idata$4                DATA
 0005:00000778 00000828H .idata$6                DATA
 0006:00000000 00000175H .00cfg                  DATA
 0007:00000000 0000035fH _RDATA                  DATA

  Address         Publics by Value              Rva+Base               Lib:Object

 0000:00000000       __AbsoluteZero             0000000000000000     <absolute>
 0000:00000000       ___safe_se_handler_count   0000000000000000     <absolute>
 0000:00000000       ___safe_se_handler_table   0000000000000000     <absolute>
 0000:00000000       __arm64x_extra_rfe_table   0000000000000000     <absolute>
 0000:00000000       __arm64x_extra_rfe_table_size 0000000000000000     <absolute>
 0000:00000000       __arm64x_native_entrypoint 0000000000000000     <absolute>
 0000:00000000       __arm64x_redirection_metadata 0000000000000000     <absolute>
 0000:00000000       __arm64x_redirection_metadata_count 0000000000000000     <absolute>
 0000:00000000       __dynamic_value_reloc_table 0000000000000000     <absolute>
 0000:00000000       __enclave_config           0000000000000000     <absolute>
 0000:00000000       __guard_check_icall_a64n_fptr 0000000000000000     <absolute>
 0000:00000000       __guard_eh_cont_count      0000000000000000     <absolute>
 0000:00000000       __guard_eh_cont_table      0000000000000000     <absolute>
 0000:00000000       __guard_fids_count         0000000000000000     <absolute>
 0000:00000000       __guard_fids_table         0000000000000000     <absolute>
 0000:00000000       __guard_iat_count          0000000000000000     <absolute>
 0000:00000000       __guard_iat_table          0000000000000000     <absolute>
 0000:00000000       __guard_longjmp_count      0000000000000000     <absolute>
 0000:00000000       __guard_longjmp_table      0000000000000000     <absolute>
 0000:00000000       __hybrid_auxiliary_delayload_iat 0000000000000000     <absolute>
 0000:00000000       __hybrid_auxiliary_delayload_iat_copy 0000000000000000     <absolute>
 0000:00000000       __hybrid_auxiliary_iat     0000000000000000     <absolute>
 0000:00000000       __hybrid_auxiliary_iat_copy 0000000000000000     <absolute>
 0000:00000000       __hybrid_code_map          0000000000000000     <absolute>
 0000:00000000       __hybrid_code_map_count    0000000000000000     <absolute>
 0000:00000000       __hybrid_image_info_bitfield 0000000000000000     <absolute>
 0000:00000000       __volatile_metadata        0000000000000000     <absolute>
 0000:00000000       __x64_code_ranges_to_entry_points 0000000000000000     <absolute>
 0000:00000000       __x64_code_ranges_to_entry_points_count 0000000000000000     <absolute>
 0000:00000100       __guard_flags              0000000000000100     <absolute>
 0000:00000000       __ImageBase                0000000180000000     <linker-defined>
 0001:00006120       ?GameUpdateAndRenderStub@@YAXPEAUgame_memory@@PEAUgame_input@@PEAUgame_offscreen_buffer@@@Z 0000000180007120 f   handmade.obj
 0001:00006140       ?GameGetSoundSamplesStub@@YAXPEAUgame_memory@@PEAUgame_sound_output_buffer@@@Z 0000000180007140 f   handmade.obj
 0001:00006380       GameUpdateAndRender        0000000180007380 f   handmade.obj
 0001:000065e0       GameGetSoundSamples        00000001800075e0 f   handmade.obj
 0001:00006620       DllMain                    0000000180007620 f   handmade.obj
 0001:00006760       ?GetController@@YAPEAUgame_controller_input@@PEAUgame_input@@I@Z 0000000180007760 f i handmade.obj
 0001:00006bb4       _CRT_INIT                  0000000180007bb4 f   LIBCMT:dll_dllmain.obj
 0001:00006bbc       _DllMainCRTStartup         0000000180007bbc f   LIBCMT:dll_dllmain.obj
 0001:00006c90       __security_init_cookie     0000000180007c90 f   LIBCMT:gs_support.obj
 0001:00006d68       ?__scrt_initialize_type_info@@YAXXZ 0000000180007d68 f   LIBCMT:tncleanup.obj
 0001:00006d7c       ?__scrt_uninitialize_type_info@@YAXXZ 0000000180007d7c f   LIBCMT:tncleanup.obj
 0001:00006d8c       __local_stdio_printf_options 0000000180007d8c f i LIBCMT:default_local_stdio_options.obj
 0001:00006d98       __local_stdio_scanf_options 0000000180007d98 f i LIBCMT:default_local_stdio_options.obj
 0001:00006da4       __scrt_initialize_default_local_stdio_options 0000000180007da4 f   LIBCMT:default_local_stdio_options.obj
 0001:00006dc8       ?configure_argv@__scrt_narrow_argv_policy@@SAHXZ 0000000180007dc8 f i LIBCMT:utility.obj
 0001:00006e40       ?initialize_environment@__scrt_narrow_environment_policy@@SAHXZ 0000000180007e40 f i LIBCMT:utility.obj
 0001:00006e84       NtCurrentTeb               0000000180007e84 f i LIBCMT:utility.obj
 0001:00006e90       __scrt_acquire_startup_lock 0000000180007e90 f   LIBCMT:utility.obj
 0001:00006ed8       __scrt_dllmain_after_initialize_c 0000000180007ed8 f   LIBCMT:utility.obj
 0001:00006f1c       __scrt_dllmain_before_initialize_c 0000000180007f1c f   LIBCMT:utility.obj
 0001:00006f38       __scrt_dllmain_crt_thread_attach 0000000180007f38 f   LIBCMT:utility.obj
 0001:00006f6c       __scrt_dllmain_crt_thread_detach 0000000180007f6c f   LIBCMT:utility.obj
 0001:00006f88       __scrt_dllmain_exception_filter 0000000180007f88 f   LIBCMT:utility.obj
 0001:00007000       __scrt_dllmain_uninitialize_c 0000000180008000 f   LIBCMT:utility.obj
 0001:0000703c       __scrt_dllmain_uninitialize_critical 000000018000803c f   LIBCMT:utility.obj
 0001:00007058       __scrt_initialize_crt      0000000180008058 f   LIBCMT:utility.obj
 0001:000070a0       __scrt_initialize_onexit_tables 00000001800080a0 f   LIBCMT:utility.obj
 0001:00007150       __scrt_is_nonwritable_in_current_image 0000000180008150 f   LIBCMT:utility.obj
 0001:00007210       __scrt_release_startup_lock 0000000180008210 f   LIBCMT:utility.obj
 0001:00007240       __scrt_uninitialize_crt    0000000180008240 f   LIBCMT:utility.obj
 0001:00007274       _onexit                    0000000180008274 f   LIBCMT:utility.obj
 0001:000072bc       at_quick_exit              00000001800082bc f   LIBCMT:utility.obj
 0001:000072e0       atexit                     00000001800082e0 f   LIBCMT:utility.obj
 0001:000072fc       __scrt_get_dyn_tls_init_callback 00000001800082fc f   LIBCMT:dyn_tls_init.obj
 0001:00007308       __crt_debugger_hook        0000000180008308 f   LIBCMT:utility_desktop.obj
 0001:00007314       __scrt_fastfail            0000000180008314 f   LIBCMT:utility_desktop.obj
 0001:000074b0       __scrt_get_show_window_mode 00000001800084b0 f   LIBCMT:utility_desktop.obj
 0001:000074f8       __scrt_initialize_mta      00000001800084f8 f   LIBCMT:utility_desktop.obj
 0001:00007500       __scrt_initialize_winrt    0000000180008500 f   LIBCMT:utility_desktop.obj
 0001:00007504       __scrt_is_managed_app      0000000180008504 f   LIBCMT:utility_desktop.obj
 0001:0000756c       __scrt_set_unhandled_exception_filter 000000018000856c f   LIBCMT:utility_desktop.obj
 0001:00007580       __scrt_exe_initialize_mta  0000000180008580 f   LIBCMT:utility_desktop.obj
 0001:00007580       __scrt_stub_for_initialize_mta 0000000180008580 f   LIBCMT:utility_desktop.obj
 0001:00007584       __scrt_unhandled_exception_filter 0000000180008584 f   LIBCMT:utility_desktop.obj
 0001:000075f8       _RTC_Initialize            00000001800085f8 f   LIBCMT:initsect.obj
 0001:00007644       _RTC_Terminate             0000000180008644 f   LIBCMT:initsect.obj
 0001:00007690       _guard_check_icall_nop     0000000180008690 f i LIBCMT:guard_support.obj
 0001:00007694       ReadNoFence64              0000000180008694 f i LIBCMT:guard_support.obj
 0001:00007698       ReadPointerNoFence         0000000180008698 f i LIBCMT:guard_support.obj
 0001:0000769c       __castguard_check_failure_debugbreak 000000018000869c f i LIBCMT:guard_support.obj
 0001:000076c0       __castguard_check_failure_fastfail 00000001800086c0 f i LIBCMT:guard_support.obj
 0001:000076ec       __castguard_check_failure_nop 00000001800086ec f i LIBCMT:guard_support.obj
 0001:000076f0       __castguard_check_failure_os_handled 00000001800086f0 f i LIBCMT:guard_support.obj
 0001:0000774c       __castguard_check_failure_user_handled 000000018000874c f i LIBCMT:guard_support.obj
 0001:000077d8       __castguard_set_user_handler 00000001800087d8 f i LIBCMT:guard_support.obj
 0001:000077e8       __castguard_slow_path_check_debugbreak 00000001800087e8 f i LIBCMT:guard_support.obj
 0001:0000782c       __castguard_slow_path_check_fastfail 000000018000882c f i LIBCMT:guard_support.obj
 0001:00007874       __castguard_slow_path_check_nop 0000000180008874 f i LIBCMT:guard_support.obj
 0001:00007878       __castguard_slow_path_check_os_handled 0000000180008878 f i LIBCMT:guard_support.obj
 0001:000078d8       __castguard_slow_path_check_user_handled 00000001800088d8 f i LIBCMT:guard_support.obj
 0001:0000795c       _guard_icall_checks_enforced 000000018000895c f i LIBCMT:guard_support.obj
 0001:00007978       _guard_rf_checks_enforced  0000000180008978 f i LIBCMT:guard_support.obj
 0001:0000797c       __isa_available_init       000000018000897c f   LIBCMT:cpu_disp.obj
 0001:00007b94       _get_startup_argv_mode     0000000180008b94 f   LIBCMT:argv_mode.obj
 0001:00007b9c       __scrt_is_ucrt_dll_in_use  0000000180008b9c f   LIBCMT:ucrt_detection.obj
 0001:00007bb0       QueryPerformanceCounter    0000000180008bb0 f   kernel32:KERNEL32.dll
 0001:00007bb6       GetCurrentProcessId        0000000180008bb6 f   kernel32:KERNEL32.dll
 0001:00007bbc       GetCurrentThreadId         0000000180008bbc f   kernel32:KERNEL32.dll
 0001:00007bc2       GetSystemTimeAsFileTime    0000000180008bc2 f   kernel32:KERNEL32.dll
 0001:00007bc8       InitializeSListHead        0000000180008bc8 f   kernel32:KERNEL32.dll
 0001:00007bce       RtlCaptureContext          0000000180008bce f   kernel32:KERNEL32.dll
 0001:00007bd4       RtlLookupFunctionEntry     0000000180008bd4 f   kernel32:KERNEL32.dll
 0001:00007bda       RtlVirtualUnwind           0000000180008bda f   kernel32:KERNEL32.dll
 0001:00007be0       IsDebuggerPresent          0000000180008be0 f   kernel32:KERNEL32.dll
 0001:00007be6       UnhandledExceptionFilter   0000000180008be6 f   kernel32:KERNEL32.dll
 0001:00007bec       SetUnhandledExceptionFilter 0000000180008bec f   kernel32:KERNEL32.dll
 0001:00007bf2       GetStartupInfoW            0000000180008bf2 f   kernel32:KERNEL32.dll
 0001:00007bf8       IsProcessorFeaturePresent  0000000180008bf8 f   kernel32:KERNEL32.dll
 0001:00007bfe       GetModuleHandleW           0000000180008bfe f   kernel32:KERNEL32.dll
 0001:00007c04       __C_specific_handler       0000000180008c04 f   libvcruntime:riscchandler.obj
 0001:00007eb0       ??$?RD@__crt_internal_free_policy@@QEBAXQEBD@Z 0000000180008eb0 f i libvcruntime:std_type_info.obj
 0001:00007ebc       ??$?RX@__crt_internal_free_policy@@QEBAXQEBX@Z 0000000180008ebc f i libvcruntime:std_type_info.obj
 0001:00007ec8       ??$__crt_interlocked_compare_exchange_pointer@$$CBDPEAD$$T@@YAPEBDPEDSEBDQEAD$$T@Z 0000000180008ec8 f i libvcruntime:std_type_info.obj
 0001:00007ed4       ??$__crt_interlocked_read_pointer@$$CBD@@YAPEBDPEDSEBD@Z 0000000180008ed4 f i libvcruntime:std_type_info.obj
 0001:00007edc       ??0?$__crt_unique_heap_ptr@DU__crt_internal_free_policy@@@@QEAA@QEAD@Z 0000000180008edc f i libvcruntime:std_type_info.obj
 0001:00007ee4       ??0?$__crt_unique_heap_ptr@XU__crt_internal_free_policy@@@@QEAA@QEAX@Z 0000000180008ee4 f i libvcruntime:std_type_info.obj
 0001:00007eec       ??1?$__crt_unique_heap_ptr@DU__crt_internal_free_policy@@@@QEAA@XZ 0000000180008eec f i libvcruntime:std_type_info.obj
 0001:00007f10       ??1?$__crt_unique_heap_ptr@XU__crt_internal_free_policy@@@@QEAA@XZ 0000000180008f10 f i libvcruntime:std_type_info.obj
 0001:00007f34       ??B?$__crt_unique_heap_ptr@DU__crt_internal_free_policy@@@@QEBA_NXZ 0000000180008f34 f i libvcruntime:std_type_info.obj
 0001:00007f40       ??B?$__crt_unique_heap_ptr@XU__crt_internal_free_policy@@@@QEBA_NXZ 0000000180008f40 f i libvcruntime:std_type_info.obj
 0001:00007f64       ?__crt_interlocked_read_64@@YA_JPED_J@Z 0000000180008f64 f i libvcruntime:std_type_info.obj
 0001:00007f6c       ?detach@?$__crt_unique_heap_ptr@XU__crt_internal_free_policy@@@@QEAAPEAXXZ 0000000180008f6c f i libvcruntime:std_type_info.obj
 0001:00007f78       ?get@?$__crt_unique_heap_ptr@DU__crt_internal_free_policy@@@@QEBAPEADXZ 0000000180008f78 f i libvcruntime:std_type_info.obj
 0001:00007f7c       ?get@?$__crt_unique_heap_ptr@XU__crt_internal_free_policy@@@@QEBAPEAXXZ 0000000180008f7c f i libvcruntime:std_type_info.obj
 0001:00007f80       ?is_valid@?$__crt_unique_heap_ptr@DU__crt_internal_free_policy@@@@QEBA_NXZ 0000000180008f80 f i libvcruntime:std_type_info.obj
 0001:00007f8c       ?is_valid@?$__crt_unique_heap_ptr@XU__crt_internal_free_policy@@@@QEBA_NXZ 0000000180008f8c f i libvcruntime:std_type_info.obj
 0001:00007f98       ?release@?$__crt_unique_heap_ptr@DU__crt_internal_free_policy@@@@QEAAXXZ 0000000180008f98 f i libvcruntime:std_type_info.obj
 0001:00007fbc       ?release@?$__crt_unique_heap_ptr@XU__crt_internal_free_policy@@@@QEAAXXZ 0000000180008fbc f i libvcruntime:std_type_info.obj
 0001:00007fe0       __std_type_info_compare    0000000180008fe0 f   libvcruntime:std_type_info.obj
 0001:00008010       __std_type_info_destroy_list 0000000180009010 f   libvcruntime:std_type_info.obj
 0001:00008044       __std_type_info_hash       0000000180009044 f   libvcruntime:std_type_info.obj
 0001:0000808c       __std_type_info_name       000000018000908c f   libvcruntime:std_type_info.obj
 0001:000081e8       __vcrt_initialize          00000001800091e8 f   libvcruntime:initialization.obj
 0001:0000821c       __vcrt_thread_attach       000000018000921c f   libvcruntime:initialization.obj
 0001:00008238       __vcrt_thread_detach       0000000180009238 f   libvcruntime:initialization.obj
 0001:0000824c       __vcrt_uninitialize        000000018000924c f   libvcruntime:initialization.obj
 0001:0000826c       __vcrt_uninitialize_critical 000000018000926c f   libvcruntime:initialization.obj
 0001:00008284       __DestructExceptionObject  0000000180009284 f   libvcruntime:ehhelpers.obj
 0001:0000830c       ?_CallMemberFunction0@@YAXQEAX0@Z 000000018000930c f i libvcruntime:ehhelpers.obj
 0001:00008380       ?raw_name@type_info@@QEBAPEBDXZ 0000000180009380 f i libvcruntime:ehhelpers.obj
 0001:00008388       _IsExceptionObjectToBeDestroyed 0000000180009388 f   libvcruntime:ehhelpers.obj
 0001:000083c4       _SetWinRTOutOfMemoryExceptionCallback 00000001800093c4 f   libvcruntime:ehhelpers.obj
 0001:000083d0       __AdjustPointer            00000001800093d0 f   libvcruntime:ehhelpers.obj
 0001:000083fc       __FrameUnwindFilter        00000001800093fc f   libvcruntime:ehhelpers.obj
 0001:0000847c       __GetPlatformExceptionInfo 000000018000947c f   libvcruntime:ehhelpers.obj
 0001:000084f0       __current_exception        00000001800094f0 f   libvcruntime:ehhelpers.obj
 0001:00008508       __current_exception_context 0000000180009508 f   libvcruntime:ehhelpers.obj
 0001:00008520       __processing_throw         0000000180009520 f   libvcruntime:ehhelpers.obj
 0001:00008538       __std_terminate            0000000180009538 f   libvcruntime:ehhelpers.obj
 0001:00008544       _is_exception_typeof       0000000180009544 f   libvcruntime:ehhelpers.obj
 0001:00008660       _NLG_Notify                0000000180009660 f   libvcruntime:notify.obj
 0001:00008690       __NLG_Dispatch2            0000000180009690 f   libvcruntime:notify.obj
 0001:000086a0       __NLG_Return2              00000001800096a0 f   libvcruntime:notify.obj
 0001:000086ac       __except_validate_context_record 00000001800096ac f   libvcruntime:jbcxrval.obj
 0001:000086f0       __except_validate_jump_buffer 00000001800096f0 f   libvcruntime:jbcxrval.obj
 0001:00008740       __except_validate_jump_buffer_common 0000000180009740 f i libvcruntime:jbcxrval.obj
 0001:000087b4       ??$?0$00@DName@@QEAA@PEBDU?$StringLifeSelector@$00@@@Z 00000001800097b4 f i libvcruntime:undname.obj
 0001:00008804       ??$?0$00@pcharNode@@QEAA@PEBDHU?$StringLifeSelector@$00@@@Z 0000000180009804 f i libvcruntime:undname.obj
 0001:00008820       ??$?0$01@DName@@QEAA@PEBDU?$StringLifeSelector@$01@@@Z 0000000180009820 f i libvcruntime:undname.obj
 0001:00008870       ??$?0$01@pcharNode@@QEAA@PEBDHU?$StringLifeSelector@$01@@@Z 0000000180009870 f i libvcruntime:undname.obj
 0001:00008900       ??$?0$0A@@DName@@QEAA@PEBDU?$StringLifeSelector@$0A@@@@Z 0000000180009900 f i libvcruntime:undname.obj
 0001:00008950       ??$?0$0A@@pcharNode@@QEAA@PEBDHU?$StringLifeSelector@$0A@@@@Z 0000000180009950 f i libvcruntime:undname.obj
 0001:000089e0       ??$?0_K$0A@@?$optional@_K@std@@QEAA@$$QEA_K@Z 00000001800099e0 f i libvcruntime:undname.obj
 0001:000089f4       ??$?0_K@?$_Optional_construct_base@_K@std@@QEAA@Uin_place_t@1@$$QEA_K@Z 00000001800099f4 f i libvcruntime:undname.obj
 0001:00008a08       ??$?0_K@?$_Optional_destruct_base@_K$00@std@@QEAA@Uin_place_t@1@$$QEA_K@Z 0000000180009a08 f i libvcruntime:undname.obj
 0001:00008a1c       ??$append@VDNameNode@@@DName@@AEAAXPEBVDNameNode@@@Z 0000000180009a1c f i libvcruntime:undname.obj
 0001:00008a98       ??$append@VDNameStatusNode@@@DName@@AEAAXPEBVDNameStatusNode@@@Z 0000000180009a98 f i libvcruntime:undname.obj
 0001:00008b14       ??$append@VcharNode@@@DName@@AEAAXPEBVcharNode@@@Z 0000000180009b14 f i libvcruntime:undname.obj
 0001:00008b90       ??$append@VpDNameNode@@@DName@@AEAAXPEBVpDNameNode@@@Z 0000000180009b90 f i libvcruntime:undname.obj
 0001:00008c0c       ??$append@VpcharNode@@@DName@@AEAAXPEBVpcharNode@@@Z 0000000180009c0c f i libvcruntime:undname.obj
 0001:00008c88       ??$doPchar@$00@DName@@AEAAXPEBDH@Z 0000000180009c88 f i libvcruntime:undname.obj
 0001:00008d54       ??$doPchar@$01@DName@@AEAAXPEBDH@Z 0000000180009d54 f i libvcruntime:undname.obj
 0001:00008e10       ??$doPchar@$0A@@DName@@AEAAXPEBDH@Z 0000000180009e10 f i libvcruntime:undname.obj
 0001:00008ecc       ??$forward@_K@std@@YA$$QEA_KAEA_K@Z 0000000180009ecc f i libvcruntime:undname.obj
 0001:00009030       ??$size@D$04@std@@YA_KAEAY04$$CBD@Z 000000018000a030 f i libvcruntime:undname.obj
 0001:00009038       ??0?$_Optional_construct_base@_K@std@@QEAA@XZ 000000018000a038 f i libvcruntime:undname.obj
 0001:00009044       ??0?$_Optional_destruct_base@_K$00@std@@QEAA@XZ 000000018000a044 f i libvcruntime:undname.obj
 0001:00009050       ??0?$optional@_K@std@@QEAA@XZ 000000018000a050 f i libvcruntime:undname.obj
 0001:0000905c       ??0Block@_HeapManager@@QEAA@XZ 000000018000a05c f i libvcruntime:undname.obj
 0001:00009068       ??0DName@@QEAA@AEAPEBDD@Z  000000018000a068 f   libvcruntime:undname.obj
 0001:00009144       ??0DName@@QEAA@AEBUStringLiteral@@@Z 000000018000a144 f   libvcruntime:undname.obj
 0001:0000917c       ??0DName@@QEAA@AEBV0@@Z    000000018000a17c f i libvcruntime:undname.obj
 0001:00009190       ??0DName@@QEAA@D@Z         000000018000a190 f   libvcruntime:undname.obj
 0001:000091b8       ??0DName@@QEAA@PEAV0@@Z    000000018000a1b8 f   libvcruntime:undname.obj
 0001:0000925c       ??0DName@@QEAA@W4DNameStatus@@@Z 000000018000a25c f   libvcruntime:undname.obj
 0001:00009298       ??0DName@@QEAA@XZ          000000018000a298 f i libvcruntime:undname.obj
 0001:000092a8       ??0DName@@QEAA@_J@Z        000000018000a2a8 f   libvcruntime:undname.obj
 0001:00009378       ??0DName@@QEAA@_K@Z        000000018000a378 f   libvcruntime:undname.obj
 0001:00009424       ??0DNameNode@@IEAA@XZ      000000018000a424 f i libvcruntime:undname.obj
 0001:00009438       ??0Replicator@@QEAA@XZ     000000018000a438 f i libvcruntime:undname.obj
 0001:00009474       ??0UnDecorator@@QEAA@PEBDP6APEADJ@ZK@Z 000000018000a474 f i libvcruntime:undname.obj
 0001:00009548       ??0_Nontrivial_dummy_type@std@@QEAA@XZ 000000018000a548 f i libvcruntime:undname.obj
 0001:0000954c       ??0charNode@@QEAA@D@Z      000000018000a54c f i libvcruntime:undname.obj
 0001:00009564       ??0pDNameNode@@QEAA@PEAVDName@@@Z 000000018000a564 f   libvcruntime:undname.obj
 0001:00009594       ??0pairNode@@QEAA@PEBVDNameNode@@0@Z 000000018000a594 f i libvcruntime:undname.obj
 0001:000095bc       ??2@YAPEAX_KAEAV_HeapManager@@H@Z 000000018000a5bc f   libvcruntime:undname.obj
 0001:000095f0       ??4DName@@QEAAAEAV0@AEBUStringLiteral@@@Z 000000018000a5f0 f   libvcruntime:undname.obj
 0001:00009620       ??4DName@@QEAAAEAV0@AEBV0@@Z 000000018000a620 f   libvcruntime:undname.obj
 0001:00009634       ??4DName@@QEAAAEAV0@D@Z    000000018000a634 f i libvcruntime:undname.obj
 0001:0000965c       ??4DName@@QEAAAEAV0@PEAV0@@Z 000000018000a65c f   libvcruntime:undname.obj
 0001:000096f0       ??4DName@@QEAAAEAV0@W4DNameStatus@@@Z 000000018000a6f0 f   libvcruntime:undname.obj
 0001:0000972c       ??AReplicator@@QEBA?AVDName@@H@Z 000000018000a72c f   libvcruntime:undname.obj
 0001:0000977c       ??B?$optional@_K@std@@QEBA_NXZ 000000018000a77c f i libvcruntime:undname.obj
 0001:00009780       ??D?$_Optional_construct_base@_K@std@@QEGAAAEA_KXZ 000000018000a780 f i libvcruntime:undname.obj
 0001:00009784       ??H@YA?AVDName@@AEBUStringLiteral@@AEBV0@@Z 000000018000a784 f i libvcruntime:undname.obj
 0001:000097c8       ??H@YA?AVDName@@DAEBV0@@Z  000000018000a7c8 f i libvcruntime:undname.obj
 0001:0000981c       ??H@YA?AVDName@@W4DNameStatus@@AEBV0@@Z 000000018000a81c f i libvcruntime:undname.obj
 0001:00009860       ??HDName@@QEBA?AV0@AEBUStringLiteral@@@Z 000000018000a860 f   libvcruntime:undname.obj
 0001:00009894       ??HDName@@QEBA?AV0@AEBV0@@Z 000000018000a894 f   libvcruntime:undname.obj
 0001:000098c8       ??HDName@@QEBA?AV0@D@Z     000000018000a8c8 f   libvcruntime:undname.obj
 0001:000098fc       ??HDName@@QEBA?AV0@PEAV0@@Z 000000018000a8fc f   libvcruntime:undname.obj
 0001:00009930       ??HDName@@QEBA?AV0@W4DNameStatus@@@Z 000000018000a930 f   libvcruntime:undname.obj
 0001:00009964       ??HStringLiteral@@QEBA?AU0@H@Z 000000018000a964 f i libvcruntime:undname.obj
 0001:00009980       ??YDName@@QEAAAEAV0@AEBUStringLiteral@@@Z 000000018000a980 f   libvcruntime:undname.obj
 0001:00009a20       ??YDName@@QEAAAEAV0@AEBV0@@Z 000000018000aa20 f   libvcruntime:undname.obj
 0001:00009a90       ??YDName@@QEAAAEAV0@D@Z    000000018000aa90 f   libvcruntime:undname.obj
 0001:00009b18       ??YDName@@QEAAAEAV0@PEAV0@@Z 000000018000ab18 f   libvcruntime:undname.obj
 0001:00009bd0       ??YDName@@QEAAAEAV0@W4DNameStatus@@@Z 000000018000abd0 f   libvcruntime:undname.obj
 0001:00009c3c       ??YReplicator@@QEAAAEAV0@AEBVDName@@@Z 000000018000ac3c f   libvcruntime:undname.obj
 0001:00009cac       ??_5DName@@QEAAAEAV0@AEBV0@@Z 000000018000acac f   libvcruntime:undname.obj
 0001:00009ccc       ??__K_l@@YA?AUStringLiteral@@PEBD_K@Z 000000018000accc f i libvcruntime:undname.obj
 0001:00009cdc       ?Constructor@_HeapManager@@QEAAXP6APEAX_K@ZP6AXPEAX@Z@Z 000000018000acdc f i libvcruntime:undname.obj
 0001:00009cf8       ?Destructor@_HeapManager@@QEAAXXZ 000000018000acf8 f i libvcruntime:undname.obj
 0001:00009d54       ?UScore@UnDecorator@@SA?AUStringLiteral@@W4Tokens@@@Z 000000018000ad54 f   libvcruntime:undname.obj
 0001:00009db4       ?composeDeclaration@UnDecorator@@CA?AVDName@@AEBV2@@Z 000000018000adb4 f i libvcruntime:undname.obj
 0001:0000b168       ?doAccessSpecifiers@UnDecorator@@SAHXZ 000000018000c168 f i libvcruntime:undname.obj
 0001:0000b17c       ?doAllocationLanguage@UnDecorator@@SAHXZ 000000018000c17c f i libvcruntime:undname.obj
 0001:0000b190       ?doAllocationModel@UnDecorator@@SAHXZ 000000018000c190 f i libvcruntime:undname.obj
 0001:0000b1a4       ?doEcsu@UnDecorator@@SAHXZ 000000018000c1a4 f i libvcruntime:undname.obj
 0001:0000b1b8       ?doEllipsis@UnDecorator@@SAHXZ 000000018000c1b8 f i libvcruntime:undname.obj
 0001:0000b1cc       ?doFunctionReturns@UnDecorator@@SAHXZ 000000018000c1cc f i libvcruntime:undname.obj
 0001:0000b1e0       ?doMSKeywords@UnDecorator@@SAHXZ 000000018000c1e0 f i libvcruntime:undname.obj
 0001:0000b1f4       ?doMemberTypes@UnDecorator@@SAHXZ 000000018000c1f4 f i libvcruntime:undname.obj
 0001:0000b208       ?doNameOnly@UnDecorator@@SAHXZ 000000018000c208 f i libvcruntime:undname.obj
 0001:0000b218       ?doNoIdentCharCheck@UnDecorator@@SAHXZ 000000018000c218 f i libvcruntime:undname.obj
 0001:0000b228       ?doPchar@DName@@AEAAXD@Z   000000018000c228 f   libvcruntime:undname.obj
 0001:0000b28c       ?doPtr64@UnDecorator@@SAHXZ 000000018000c28c f i libvcruntime:undname.obj
 0001:0000b2a0       ?doRestrictionSpec@UnDecorator@@SAHXZ 000000018000c2a0 f i libvcruntime:undname.obj
 0001:0000b2b4       ?doThisTypes@UnDecorator@@SAHXZ 000000018000c2b4 f i libvcruntime:undname.obj
 0001:0000b2cc       ?doThrowTypes@UnDecorator@@SAHXZ 000000018000c2cc f i libvcruntime:undname.obj
 0001:0000b2e0       ?doTypeOnly@UnDecorator@@SAHXZ 000000018000c2e0 f i libvcruntime:undname.obj
 0001:0000b2f0       ?doUnderScore@UnDecorator@@SAHXZ 000000018000c2f0 f i libvcruntime:undname.obj
 0001:0000b300       ?getAddressOf@UnDecorator@@CA?AVDName@@XZ 000000018000c300 f   libvcruntime:undname.obj
 0001:0000b3b4       ?getArgumentList@UnDecorator@@CA?AVDName@@XZ 000000018000c3b4 f   libvcruntime:undname.obj
 0001:0000b598       ?getArgumentTypes@UnDecorator@@CA?AVDName@@XZ 000000018000c598 f   libvcruntime:undname.obj
 0001:0000b738       ?getArrayAccess@UnDecorator@@CA?AVDName@@XZ 000000018000c738 f   libvcruntime:undname.obj
 0001:0000b7f8       ?getArrayObject@UnDecorator@@CA?AVDName@@XZ 000000018000c7f8 f   libvcruntime:undname.obj
 0001:0000b8fc       ?getArrayType@UnDecorator@@CA?AVDName@@AEBV2@@Z 000000018000c8fc f i libvcruntime:undname.obj
 0001:0000bbf0       ?getBasedType@UnDecorator@@CA?AVDName@@XZ 000000018000cbf0 f   libvcruntime:undname.obj
 0001:0000bd24       ?getBasicDataType@UnDecorator@@CA?AVDName@@AEBV2@@Z 000000018000cd24 f   libvcruntime:undname.obj
 0001:0000c4a8       ?getCHPEName@UnDecorator@@QEAAPEADPEADH@Z 000000018000d4a8 f i libvcruntime:undname.obj
 0001:0000c60c       ?getCallIndex@UnDecorator@@CA?AVDName@@XZ 000000018000d60c f i libvcruntime:undname.obj
 0001:0000c62c       ?getCallingConvention@UnDecorator@@CA?AVDName@@XZ 000000018000d62c f   libvcruntime:undname.obj
 0001:0000c794       ?getDataIndirectType@UnDecorator@@CA?AVDName@@AEBV2@W4IndirectionKind@@0H@Z 000000018000d794 f   libvcruntime:undname.obj
 0001:0000d32c       ?getDataIndirectType@UnDecorator@@CA?AVDName@@XZ 000000018000e32c f i libvcruntime:undname.obj
 0001:0000d374       ?getDataType@UnDecorator@@CA?AVDName@@PEAV2@@Z 000000018000e374 f   libvcruntime:undname.obj
 0001:0000d4cc       ?getDecoratedName@UnDecorator@@CA?AVDName@@XZ 000000018000e4cc f   libvcruntime:undname.obj
 0001:0000d86c       ?getDimension@UnDecorator@@CA?AVDName@@_N@Z 000000018000e86c f   libvcruntime:undname.obj
 0001:0000da08       ?getDispatchTarget@UnDecorator@@CA?AVDName@@XZ 000000018000ea08 f   libvcruntime:undname.obj
 0001:0000da7c       ?getDisplacement@UnDecorator@@CA?AVDName@@XZ 000000018000ea7c f i libvcruntime:undname.obj
 0001:0000da9c       ?getECSUDataType@UnDecorator@@CA?AVDName@@XZ 000000018000ea9c f   libvcruntime:undname.obj
 0001:0000dd14       ?getECSUName@UnDecorator@@CA?AVDName@@XZ 000000018000ed14 f i libvcruntime:undname.obj
 0001:0000dd30       ?getEnumType@UnDecorator@@CA?AVDName@@XZ 000000018000ed30 f i libvcruntime:undname.obj
 0001:0000dea0       ?getExtendedDataIndirectType@UnDecorator@@CA?AVDName@@AEAW4IndirectionKind@@AEA_NH@Z 000000018000eea0 f   libvcruntime:undname.obj
 0001:0000e1a4       ?getExternalDataType@UnDecorator@@CA?AVDName@@AEBV2@@Z 000000018000f1a4 f i libvcruntime:undname.obj
 0001:0000e294       ?getFloatingPoint@UnDecorator@@CA?AVDName@@H@Z 000000018000f294 f   libvcruntime:undname.obj
 0001:0000e454       ?getFunctionIndirectType@UnDecorator@@CA?AVDName@@AEBV2@@Z 000000018000f454 f   libvcruntime:undname.obj
 0001:0000ead8       ?getGuardNumber@UnDecorator@@CA?AVDName@@XZ 000000018000fad8 f i libvcruntime:undname.obj
 0001:0000eaf8       ?getLastChar@DName@@QEBADXZ 000000018000faf8 f i libvcruntime:undname.obj
 0001:0000eb18       ?getLastChar@DNameStatusNode@@UEBADXZ 000000018000fb18 f i libvcruntime:undname.obj
 0001:0000eb28       ?getLastChar@charNode@@UEBADXZ 000000018000fb28 f i libvcruntime:undname.obj
 0001:0000eb2c       ?getLastChar@pDNameNode@@UEBADXZ 000000018000fb2c f i libvcruntime:undname.obj
 0001:0000eb60       ?getLastChar@pairNode@@UEBADXZ 000000018000fb60 f i libvcruntime:undname.obj
 0001:0000eba4       ?getLastChar@pcharNode@@UEBADXZ 000000018000fba4 f i libvcruntime:undname.obj
 0001:0000ebc0       ?getLexicalFrame@UnDecorator@@CA?AVDName@@XZ 000000018000fbc0 f i libvcruntime:undname.obj
 0001:0000ec3c       ?getMemberAccess@UnDecorator@@CA?AVDName@@XZ 000000018000fc3c f   libvcruntime:undname.obj
 0001:0000ecf4       ?getMemoryWithBuffer@_HeapManager@@QEAAPEAX_K@Z 000000018000fcf4 f   libvcruntime:undname.obj
 0001:0000eda8       ?getMemoryWithoutBuffer@_HeapManager@@QEAAPEAX_K@Z 000000018000fda8 f   libvcruntime:undname.obj
 0001:0000edc0       ?getNoexcept@UnDecorator@@CA?AVDName@@XZ 000000018000fdc0 f   libvcruntime:undname.obj
 0001:0000ee3c       ?getNumberOfDimensions@UnDecorator@@CAHXZ 000000018000fe3c f   libvcruntime:undname.obj
 0001:0000eeac       ?getOperatorName@UnDecorator@@CA?AVDName@@_NPEA_N@Z 000000018000feac f i libvcruntime:undname.obj
 0001:0000fab0       ?getPointerToMember@UnDecorator@@CA?AVDName@@XZ 0000000180010ab0 f   libvcruntime:undname.obj
 0001:0000fbe4       ?getPointerType@UnDecorator@@CA?AVDName@@AEBV2@0@Z 0000000180010be4 f i libvcruntime:undname.obj
 0001:0000fc08       ?getPointerTypeArray@UnDecorator@@CA?AVDName@@AEBV2@0@Z 0000000180010c08 f i libvcruntime:undname.obj
 0001:0000fc28       ?getPrimaryDataType@UnDecorator@@CA?AVDName@@AEBV2@@Z 0000000180010c28 f   libvcruntime:undname.obj
 0001:0000ff90       ?getPtrRefDataType@UnDecorator@@CA?AVDName@@AEBV2@H@Z 0000000180010f90 f   libvcruntime:undname.obj
 0001:000101d0       ?getPtrRefType@UnDecorator@@CA?AVDName@@AEBV2@0W4IndirectionKind@@@Z 00000001800111d0 f   libvcruntime:undname.obj
 0001:00010430       ?getReferenceType@UnDecorator@@CA?AVDName@@AEBV2@0W4IndirectionKind@@@Z 0000000180011430 f i libvcruntime:undname.obj
 0001:0001044c       ?getRestrictionSpec@UnDecorator@@CA?AVDName@@XZ 000000018001144c f   libvcruntime:undname.obj
 0001:0001069c       ?getReturnType@UnDecorator@@CA?AVDName@@PEAV2@@Z 000000018001169c f   libvcruntime:undname.obj
 0001:000106e0       ?getScope@UnDecorator@@CA?AVDName@@XZ 00000001800116e0 f   libvcruntime:undname.obj
 0001:00010cc4       ?getScopedName@UnDecorator@@CA?AVDName@@XZ 0000000180011cc4 f   libvcruntime:undname.obj
 0001:00010e58       ?getSignedDimension@UnDecorator@@CA?AVDName@@XZ 0000000180011e58 f   libvcruntime:undname.obj
 0001:00010f00       ?getStorageConvention@UnDecorator@@CA?AVDName@@XZ 0000000180011f00 f i libvcruntime:undname.obj
 0001:00010f48       ?getString@DName@@QEBAPEADPEAD0@Z 0000000180011f48 f i libvcruntime:undname.obj
 0001:00010f68       ?getString@DName@@QEBAPEADPEADH@Z 0000000180011f68 f i libvcruntime:undname.obj
 0001:00011020       ?getString@DNameStatusNode@@UEBAPEADPEAD0@Z 0000000180012020 f i libvcruntime:undname.obj
 0001:00011078       ?getString@charNode@@UEBAPEADPEAD0@Z 0000000180012078 f i libvcruntime:undname.obj
 0001:00011090       ?getString@pDNameNode@@UEBAPEADPEAD0@Z 0000000180012090 f i libvcruntime:undname.obj
 0001:000110c8       ?getString@pairNode@@UEBAPEADPEAD0@Z 00000001800120c8 f i libvcruntime:undname.obj
 0001:00011128       ?getString@pcharNode@@UEBAPEADPEAD0@Z 0000000180012128 f i libvcruntime:undname.obj
 0001:0001116c       ?getStringEncoding@UnDecorator@@CA?AVDName@@W4PrefixKind@@H@Z 000000018001216c f   libvcruntime:undname.obj
 0001:000112bc       ?getStringHelper@@YAPEADPEADPEBD1H@Z 00000001800122bc f i libvcruntime:undname.obj
 0001:000112f4       ?getStringObject@UnDecorator@@CA?AVDName@@XZ 00000001800122f4 f   libvcruntime:undname.obj
 0001:000113a8       ?getSymbolName@UnDecorator@@CA?AVDName@@XZ 00000001800123a8 f i libvcruntime:undname.obj
 0001:00011408       ?getTemplateArgumentList@UnDecorator@@CA?AVDName@@XZ 0000000180012408 f   libvcruntime:undname.obj
 0001:000116ac       ?getTemplateName@UnDecorator@@CA?AVDName@@_N@Z 00000001800126ac f   libvcruntime:undname.obj
 0001:00011a04       ?getTemplateNonTypeArgument@UnDecorator@@CA?AVDName@@XZ 0000000180012a04 f   libvcruntime:undname.obj
 0001:000120a8       ?getTemplateTypeArgument@UnDecorator@@CA?AVDName@@XZ 00000001800130a8 f   libvcruntime:undname.obj
 0001:0001226c       ?getThisType@UnDecorator@@CA?AVDName@@XZ 000000018001326c f i libvcruntime:undname.obj
 0001:000122bc       ?getThrowTypes@UnDecorator@@CA?AVDName@@XZ 00000001800132bc f   libvcruntime:undname.obj
 0001:000122e8       ?getTypeEncoding@UnDecorator@@CAHXZ 00000001800132e8 f i libvcruntime:undname.obj
 0001:00012794       ?getUndecoratedName@UnDecorator@@QEAAPEADPEADH@Z 0000000180013794 f i libvcruntime:undname.obj
 0001:0001293c       ?getUnionObject@UnDecorator@@CA?AVDName@@XZ 000000018001393c f   libvcruntime:undname.obj
 0001:00012a48       ?getVCallThunkType@UnDecorator@@CA?AVDName@@XZ 0000000180013a48 f i libvcruntime:undname.obj
 0001:00012adc       ?getValue@UnDecorator@@CA?AV?$optional@_K@std@@XZ 0000000180013adc f   libvcruntime:undname.obj
 0001:00012b30       ?getValueObject@UnDecorator@@CA?AVDName@@XZ 0000000180013b30 f   libvcruntime:undname.obj
 0001:00012d14       ?getVbTableType@UnDecorator@@CA?AVDName@@AEBV2@@Z 0000000180013d14 f i libvcruntime:undname.obj
 0001:00012d30       ?getVdispMapType@UnDecorator@@CA?AVDName@@AEBV2@@Z 0000000180013d30 f i libvcruntime:undname.obj
 0001:00012dcc       ?getVfTableType@UnDecorator@@CA?AVDName@@AEBV2@@Z 0000000180013dcc f i libvcruntime:undname.obj
 0001:00013058       ?getZName@UnDecorator@@CA?AVDName@@_N0@Z 0000000180014058 f   libvcruntime:undname.obj
 0001:000133e4       ?get_current_character_and_increment_buffer@UnDecorator@@CADXZ 00000001800143e4 f i libvcruntime:undname.obj
 0001:00013404       ?haveTemplateParameters@UnDecorator@@SAHXZ 0000000180014404 f i libvcruntime:undname.obj
 0001:00013414       ?increment_buffer@UnDecorator@@CA_N_K@Z 0000000180014414 f i libvcruntime:undname.obj
 0001:0001344c       ?increment_buffer_no_check@UnDecorator@@CAXXZ 000000018001444c f i libvcruntime:undname.obj
 0001:00013458       ?increment_buffer_no_check@UnDecorator@@CAX_K@Z 0000000180014458 f i libvcruntime:undname.obj
 0001:00013464       ?isArray@DName@@QEBAHXZ    0000000180014464 f i libvcruntime:undname.obj
 0001:00013470       ?isComArray@DName@@QEBAHXZ 0000000180014470 f i libvcruntime:undname.obj
 0001:0001347c       ?isEmpty@DName@@QEBAHXZ    000000018001447c f i libvcruntime:undname.obj
 0001:00013488       ?isFull@Replicator@@QEBAHXZ 0000000180014488 f i libvcruntime:undname.obj
 0001:00013494       ?isNoTE@DName@@QEBAHXZ     0000000180014494 f i libvcruntime:undname.obj
 0001:000134a0       ?isPinPtr@DName@@QEBAHXZ   00000001800144a0 f i libvcruntime:undname.obj
 0001:000134ac       ?isPtrRef@DName@@QEBAHXZ   00000001800144ac f i libvcruntime:undname.obj
 0001:000134b8       ?isUDC@DName@@QEBAHXZ      00000001800144b8 f i libvcruntime:undname.obj
 0001:000134d4       ?isUDTThunk@DName@@QEBAHXZ 00000001800144d4 f i libvcruntime:undname.obj
 0001:000134f0       ?isVCallThunk@DName@@QEBAHXZ 00000001800144f0 f i libvcruntime:undname.obj
 0001:000134fc       ?isValid@DName@@QEBAHXZ    00000001800144fc f i libvcruntime:undname.obj
 0001:00013508       ?length@DName@@QEBAHXZ     0000000180014508 f i libvcruntime:undname.obj
 0001:00013528       ?length@DNameStatusNode@@UEBAHXZ 0000000180014528 f i libvcruntime:undname.obj
 0001:0001352c       ?length@charNode@@UEBAHXZ  000000018001452c f i libvcruntime:undname.obj
 0001:00013534       ?length@pDNameNode@@UEBAHXZ 0000000180014534 f i libvcruntime:undname.obj
 0001:00013568       ?length@pairNode@@UEBAHXZ  0000000180014568 f i libvcruntime:undname.obj
 0001:000135c0       ?length@pcharNode@@UEBAHXZ 00000001800145c0 f i libvcruntime:undname.obj
 0001:000135c4       ?make@DNameStatusNode@@SAPEBV1@W4DNameStatus@@@Z 00000001800145c4 f i libvcruntime:undname.obj
 0001:000135ec       ?parseDecoratedName@UnDecorator@@CA?AVDName@@XZ 00000001800145ec f   libvcruntime:undname.obj
 0001:00013748       ?raw_length@DNameStatusNode@@UEBAHXZ 0000000180014748 f i libvcruntime:undname.obj
 0001:0001374c       ?raw_length@charNode@@UEBAHXZ 000000018001474c f i libvcruntime:undname.obj
 0001:00013754       ?raw_length@pDNameNode@@UEBAHXZ 0000000180014754 f i libvcruntime:undname.obj
 0001:00013758       ?raw_length@pairNode@@UEBAHXZ 0000000180014758 f i libvcruntime:undname.obj
 0001:0001375c       ?raw_length@pcharNode@@UEBAHXZ 000000018001475c f i libvcruntime:undname.obj
 0001:00013760       ?setIsArray@DName@@QEAAXXZ 0000000180014760 f i libvcruntime:undname.obj
 0001:00013768       ?setIsComArray@DName@@QEAAXXZ 0000000180014768 f i libvcruntime:undname.obj
 0001:00013770       ?setIsNoTE@DName@@QEAAXXZ  0000000180014770 f i libvcruntime:undname.obj
 0001:00013778       ?setIsPinPtr@DName@@QEAAXXZ 0000000180014778 f i libvcruntime:undname.obj
 0001:00013780       ?setIsUDC@DName@@QEAAXXZ   0000000180014780 f i libvcruntime:undname.obj
 0001:00013790       ?setIsVCallThunk@DName@@QEAAXXZ 0000000180014790 f i libvcruntime:undname.obj
 0001:00013798       ?setPtrRef@DName@@QEAAAEAV1@XZ 0000000180014798 f i libvcruntime:undname.obj
 0001:000137a4       ?status@DName@@QEBA?AW4DNameStatus@@XZ 00000001800147a4 f i libvcruntime:undname.obj
 0001:0001381c       __unDName                  000000018001481c f   libvcruntime:undname.obj
 0001:0001384c       __unDNameEx                000000018001484c f   libvcruntime:undname.obj
 0001:00013974       _vsprintf_s_l              0000000180014974 f i libvcruntime:undname.obj
 0001:000139f0       snprintf                   00000001800149f0 f i libvcruntime:undname.obj
 0001:00013a5c       sprintf_s                  0000000180014a5c f i libvcruntime:undname.obj
 0001:00013ac4       unDNameGenerateCHPE        0000000180014ac4 f   libvcruntime:undname.obj
 0001:00013c60       vsnprintf                  0000000180014c60 f i libvcruntime:undname.obj
 0001:00013cdc       ??$?RU__vcrt_ptd@@@__crt_internal_free_policy@@QEBAXQEBU__vcrt_ptd@@@Z 0000000180014cdc f i libvcruntime:per_thread_data.obj
 0001:00013ce8       ??0?$__crt_unique_heap_ptr@U__vcrt_ptd@@U__crt_internal_free_policy@@@@QEAA@QEAU__vcrt_ptd@@@Z 0000000180014ce8 f i libvcruntime:per_thread_data.obj
 0001:00013d10       ??1?$__crt_unique_heap_ptr@U__vcrt_ptd@@U__crt_internal_free_policy@@@@QEAA@XZ 0000000180014d10 f i libvcruntime:per_thread_data.obj
 0001:00013d40       ??B?$__crt_unique_heap_ptr@U__vcrt_ptd@@U__crt_internal_free_policy@@@@QEBA_NXZ 0000000180014d40 f i libvcruntime:per_thread_data.obj
 0001:00013d4c       ?detach@?$__crt_unique_heap_ptr@U__vcrt_ptd@@U__crt_internal_free_policy@@@@QEAAPEAU__vcrt_ptd@@XZ 0000000180014d4c f i libvcruntime:per_thread_data.obj
 0001:00013d58       ?get@?$__crt_unique_heap_ptr@U__vcrt_ptd@@U__crt_internal_free_policy@@@@QEBAPEAU__vcrt_ptd@@XZ 0000000180014d58 f i libvcruntime:per_thread_data.obj
 0001:00013d5c       ?is_valid@?$__crt_unique_heap_ptr@U__vcrt_ptd@@U__crt_internal_free_policy@@@@QEBA_NXZ 0000000180014d5c f i libvcruntime:per_thread_data.obj
 0001:00013d68       ?release@?$__crt_unique_heap_ptr@U__vcrt_ptd@@U__crt_internal_free_policy@@@@QEAAXXZ 0000000180014d68 f i libvcruntime:per_thread_data.obj
 0001:00013dc0       __vcrt_freefls             0000000180014dc0 f   libvcruntime:per_thread_data.obj
 0001:00013de8       __vcrt_freeptd_for_this_thread 0000000180014de8 f   libvcruntime:per_thread_data.obj
 0001:00013e40       __vcrt_getptd              0000000180014e40 f   libvcruntime:per_thread_data.obj
 0001:00013e60       __vcrt_getptd_noexit       0000000180014e60 f   libvcruntime:per_thread_data.obj
 0001:00013f50       __vcrt_getptd_noinit       0000000180014f50 f   libvcruntime:per_thread_data.obj
 0001:00013fb0       __vcrt_initialize_ptd      0000000180014fb0 f   libvcruntime:per_thread_data.obj
 0001:00014008       __vcrt_uninitialize_ptd    0000000180015008 f   libvcruntime:per_thread_data.obj
 0001:00014034       __vcrt_initialize_locks    0000000180015034 f   libvcruntime:locks.obj
 0001:0001408c       __vcrt_lock                000000018001508c f   libvcruntime:locks.obj
 0001:000140ac       __vcrt_uninitialize_locks  00000001800150ac f   libvcruntime:locks.obj
 0001:000140f0       __vcrt_unlock              00000001800150f0 f   libvcruntime:locks.obj
 0001:00014110       ??$__crt_interlocked_exchange_pointer@$$A6AXXZP6AXXZ@@YAP6AXXZPEDS6AXXZQ6AXXZ@Z 0000000180015110 f i libvcruntime:purevirt.obj
 0001:00014118       ??$__crt_interlocked_read_pointer@$$A6AXXZ@@YAP6AXXZPEDS6AXXZ@Z 0000000180015118 f i libvcruntime:purevirt.obj
 0001:00014120       _get_purecall_handler      0000000180015120 f   libvcruntime:purevirt.obj
 0001:0001412c       _purecall                  000000018001512c f   libvcruntime:purevirt.obj
 0001:0001414c       _set_purecall_handler      000000018001514c f   libvcruntime:purevirt.obj
 0001:0001415c       ??$?0AEAViterator@TryBlockMap4@FH4@@AEAV012@$0A@@?$pair@Viterator@TryBlockMap4@FH4@@V123@@std@@QEAA@AEAViterator@TryBlockMap4@FH4@@0@Z 000000018001515c f i libvcruntime:risctrnsctrl.obj
 0001:00014178       ??$?0AEAViterator@TryBlockMap@__FrameHandler3@@AEAV012@$0A@@?$pair@Viterator@TryBlockMap@__FrameHandler3@@V123@@std@@QEAA@AEAViterator@TryBlockMap@__FrameHandler3@@0@Z 0000000180015178 f i libvcruntime:risctrnsctrl.obj
 0001:00014360       ??$_CallSETranslator@V__FrameHandler3@@@@YAHPEAUEHExceptionRecord@@PEA_KPEAU_CONTEXT@@PEAU_xDISPATCHER_CONTEXT@@PEBU_s_FuncInfo@@K1H@Z 0000000180015360 f i libvcruntime:risctrnsctrl.obj
 0001:000143c8       ??$_CallSETranslator@V__FrameHandler4@@@@YAHPEAUEHExceptionRecord@@PEA_KPEAU_CONTEXT@@PEAU_xDISPATCHER_CONTEXT@@PEAUFuncInfo4@FH4@@K1H@Z 00000001800153c8 f i libvcruntime:risctrnsctrl.obj
 0001:00014430       ??$forward@AEAViterator@TryBlockMap4@FH4@@@std@@YAAEAViterator@TryBlockMap4@FH4@@AEAV123@@Z 0000000180015430 f i libvcruntime:risctrnsctrl.obj
 0001:00014434       ??$forward@AEAViterator@TryBlockMap@__FrameHandler3@@@std@@YAAEAViterator@TryBlockMap@__FrameHandler3@@AEAV123@@Z 0000000180015434 f i libvcruntime:risctrnsctrl.obj
 0001:00014438       ??0FuncInfo4@FH4@@QEAA@XZ  0000000180015438 f i libvcruntime:risctrnsctrl.obj
 0001:00014450       ??0FuncInfoHeader@FH4@@QEAA@XZ 0000000180015450 f i libvcruntime:risctrnsctrl.obj
 0001:00014458       ??0iterator@TryBlockMap4@FH4@@QEAA@AEAV12@I@Z 0000000180015458 f i libvcruntime:risctrnsctrl.obj
 0001:00014468       ??0iterator@TryBlockMap@__FrameHandler3@@QEAA@AEAV12@I@Z 0000000180015468 f i libvcruntime:risctrnsctrl.obj
 0001:00014478       ??4iterator@TryBlockMap4@FH4@@QEAAAEAV012@AEBV012@@Z 0000000180015478 f i libvcruntime:risctrnsctrl.obj
 0001:00014484       ??9iterator@TryBlockMap4@FH4@@QEBA_NAEBV012@@Z 0000000180015484 f i libvcruntime:risctrnsctrl.obj
 0001:00014490       ??Diterator@TryBlockMap4@FH4@@QEAA?AUTryBlockMapEntry4@2@XZ 0000000180015490 f i libvcruntime:risctrnsctrl.obj
 0001:000144a4       ??Eiterator@TryBlockMap4@FH4@@QEAAAEAV012@XZ 00000001800154a4 f i libvcruntime:risctrnsctrl.obj
 0001:00014568       ?CatchTryBlock@__FrameHandler3@@SAPEBU_s_TryBlockMapEntry@@PEBU_s_FuncInfo@@H@Z 0000000180015568 f   libvcruntime:risctrnsctrl.obj
 0001:000145e4       ?DecompFuncInfo@FH4@@YA_JPEAEAEAUFuncInfo4@1@_KH@Z 00000001800155e4 f i libvcruntime:risctrnsctrl.obj
 0001:000145fc       ?DecompFuncInfo@FH4@@YA_JPEAEAEAUFuncInfo4@1@_KH_N@Z 00000001800155fc f i libvcruntime:risctrnsctrl.obj
 0001:0001477c       ?DecompTryBlock@TryBlockMap4@FH4@@AEAAXXZ 000000018001577c f i libvcruntime:risctrnsctrl.obj
 0001:00014834       ?ExecutionInCatch@__FrameHandler3@@SA_NPEAU_xDISPATCHER_CONTEXT@@PEBU_s_FuncInfo@@@Z 0000000180015834 f   libvcruntime:risctrnsctrl.obj
 0001:00014868       ?ExecutionInCatch@__FrameHandler4@@SA_NPEAU_xDISPATCHER_CONTEXT@@PEAUFuncInfo4@FH4@@@Z 0000000180015868 f   libvcruntime:risctrnsctrl.obj
 0001:00014870       ?FrameUnwindToEmptyState@__FrameHandler3@@SAXPEA_KPEAU_xDISPATCHER_CONTEXT@@PEBU_s_FuncInfo@@@Z 0000000180015870 f   libvcruntime:risctrnsctrl.obj
 0001:000148f0       ?FrameUnwindToEmptyState@__FrameHandler4@@SAXPEA_KPEAU_xDISPATCHER_CONTEXT@@PEAUFuncInfo4@FH4@@@Z 00000001800158f0 f   libvcruntime:risctrnsctrl.obj
 0001:00014930       ?GetEstablisherFrame@__FrameHandler3@@SAPEA_KPEA_KPEAU_xDISPATCHER_CONTEXT@@PEBU_s_FuncInfo@@0@Z 0000000180015930 f   libvcruntime:risctrnsctrl.obj
 0001:00014a34       ?GetEstablisherFrame@__FrameHandler4@@SAPEA_KPEA_KPEAU_xDISPATCHER_CONTEXT@@PEAUFuncInfo4@FH4@@0@Z 0000000180015a34 f   libvcruntime:risctrnsctrl.obj
 0001:00014a60       ?GetRangeOfTrysToCheck@__FrameHandler3@@SA?AU?$pair@Viterator@TryBlockMap@__FrameHandler3@@V123@@std@@AEAVTryBlockMap@1@HPEAU_xDISPATCHER_CONTEXT@@PEBU_s_FuncInfo@@H@Z 0000000180015a60 f   libvcruntime:risctrnsctrl.obj
 0001:00014be0       ?GetRangeOfTrysToCheck@__FrameHandler4@@SA?AU?$pair@Viterator@TryBlockMap4@FH4@@V123@@std@@AEAVTryBlockMap4@FH4@@HPEAU_xDISPATCHER_CONTEXT@@PEAUFuncInfo4@5@H@Z 0000000180015be0 f   libvcruntime:risctrnsctrl.obj
 0001:00014da4       ?ReadInt@FH4@@YAHPEAPEAE@Z 0000000180015da4 f i libvcruntime:risctrnsctrl.obj
 0001:00014db4       ?ReadUnsigned@FH4@@YAIPEAPEAE@Z 0000000180015db4 f i libvcruntime:risctrnsctrl.obj
 0001:00014df0       ?UnwindNestedFrames@__FrameHandler3@@SAXPEA_KPEAUEHExceptionRecord@@PEAU_CONTEXT@@0PEAXPEBU_s_FuncInfo@@HHPEBU_s_HandlerType@@PEAU_xDISPATCHER_CONTEXT@@E@Z 0000000180015df0 f   libvcruntime:risctrnsctrl.obj
 0001:00014f34       ?UnwindNestedFrames@__FrameHandler4@@SAXPEA_KPEAUEHExceptionRecord@@PEAU_CONTEXT@@0PEAXPEAUFuncInfo4@FH4@@HHPEAUHandlerType4@5@PEAU_xDISPATCHER_CONTEXT@@E@Z 0000000180015f34 f   libvcruntime:risctrnsctrl.obj
 0001:0001509c       ?begin@TryBlockMap4@FH4@@QEAA?AViterator@12@XZ 000000018001609c f i libvcruntime:risctrnsctrl.obj
 0001:000150ac       ?end@TryBlockMap4@FH4@@QEAA?AViterator@12@XZ 00000001800160ac f i libvcruntime:risctrnsctrl.obj
 0001:000150bc       ?imageRelToByteBuffer@FH4@@YAPEAE_KH@Z 00000001800160bc f i libvcruntime:risctrnsctrl.obj
 0001:000150c4       ?incrementToSentinel@iterator@TryBlockMap4@FH4@@QEAAXXZ 00000001800160c4 f i libvcruntime:risctrnsctrl.obj
 0001:000150c8       ?setBuffer@TryBlockMap4@FH4@@QEAAXViterator@12@@Z 00000001800160c8 f i libvcruntime:risctrnsctrl.obj
 0001:000152fc       _CreateFrameInfo           00000001800162fc f   libvcruntime:risctrnsctrl.obj
 0001:00015344       _FindAndUnlinkFrame        0000000180016344 f   libvcruntime:risctrnsctrl.obj
 0001:000153ac       _GetImageBase              00000001800163ac f   libvcruntime:risctrnsctrl.obj
 0001:000153c4       _GetThrowImageBase         00000001800163c4 f   libvcruntime:risctrnsctrl.obj
 0001:000153dc       _SetImageBase              00000001800163dc f   libvcruntime:risctrnsctrl.obj
 0001:000153fc       _SetThrowImageBase         00000001800163fc f   libvcruntime:risctrnsctrl.obj
 0001:0001541c       __CxxFrameHandler          000000018001641c f   libvcruntime:risctrnsctrl.obj
 0001:00015424       __CxxFrameHandler2         0000000180016424 f   libvcruntime:risctrnsctrl.obj
 0001:0001542c       __CxxFrameHandler3         000000018001642c f   libvcruntime:risctrnsctrl.obj
 0001:000154d4       __CxxFrameHandler4         00000001800164d4 f   libvcruntime:risctrnsctrl.obj
 0001:000155d0       ??$__crt_interlocked_exchange_pointer@UHINSTANCE__@@PEAU1@@@YAPEAUHINSTANCE__@@PEDSEAU0@QEAU0@@Z 00000001800165d0 f i libvcruntime:winapi_downlevel.obj
 0001:000155d8       ??$__crt_interlocked_exchange_pointer@UHINSTANCE__@@PEAX@@YAPEAUHINSTANCE__@@PEDSEAU0@QEAX@Z 00000001800165d8 f i libvcruntime:winapi_downlevel.obj
 0001:000155e0       ??$__crt_interlocked_exchange_pointer@XPEAX@@YAPEAXPEDSEAXQEAX@Z 00000001800165e0 f i libvcruntime:winapi_downlevel.obj
 0001:000155e8       ??$__crt_interlocked_read_pointer@UHINSTANCE__@@@@YAPEAUHINSTANCE__@@PEDSEAU0@@Z 00000001800165e8 f i libvcruntime:winapi_downlevel.obj
 0001:000155f0       ??$__crt_interlocked_read_pointer@X@@YAPEAXPEDSEAX@Z 00000001800165f0 f i libvcruntime:winapi_downlevel.obj
 0001:00015c78       __vcrt_FlsAlloc            0000000180016c78 f   libvcruntime:winapi_downlevel.obj
 0001:00015cd0       __vcrt_FlsFree             0000000180016cd0 f   libvcruntime:winapi_downlevel.obj
 0001:00015d28       __vcrt_FlsGetValue         0000000180016d28 f   libvcruntime:winapi_downlevel.obj
 0001:00015d80       __vcrt_FlsSetValue         0000000180016d80 f   libvcruntime:winapi_downlevel.obj
 0001:00015de8       __vcrt_InitializeCriticalSectionEx 0000000180016de8 f   libvcruntime:winapi_downlevel.obj
 0001:00015e64       ?GetCurrentState@__FrameHandler3@@SAHPEA_KPEAU_xDISPATCHER_CONTEXT@@PEBU_s_FuncInfo@@@Z 0000000180016e64 f   libvcruntime:ehstate.obj
 0001:00015e94       ?GetUnwindTryBlock@__FrameHandler3@@SAHPEA_KPEAU_xDISPATCHER_CONTEXT@@PEBU_s_FuncInfo@@@Z 0000000180016e94 f   libvcruntime:ehstate.obj
 0001:00015ec8       ?SetState@__FrameHandler3@@SAXPEA_KPEBU_s_FuncInfo@@H@Z 0000000180016ec8 f   libvcruntime:ehstate.obj
 0001:00015ed8       ?SetUnwindTryBlock@__FrameHandler3@@SAXPEA_KPEAU_xDISPATCHER_CONTEXT@@PEBU_s_FuncInfo@@H@Z 0000000180016ed8 f   libvcruntime:ehstate.obj
 0001:00015f24       ?StateFromControlPc@__FrameHandler3@@SAHPEBU_s_FuncInfo@@PEAU_xDISPATCHER_CONTEXT@@@Z 0000000180016f24 f   libvcruntime:ehstate.obj
 0001:00015f30       ?StateFromControlPc@__FrameHandler4@@SAHPEAUFuncInfo4@FH4@@PEAU_xDISPATCHER_CONTEXT@@@Z 0000000180016f30 f   libvcruntime:ehstate.obj
 0001:00015f3c       ?StateFromIp@__FrameHandler3@@SAHPEBU_s_FuncInfo@@PEAU_xDISPATCHER_CONTEXT@@_K@Z 0000000180016f3c f   libvcruntime:ehstate.obj
 0001:00015fbc       ?StateFromIp@__FrameHandler4@@SAHPEAUFuncInfo4@FH4@@PEAU_xDISPATCHER_CONTEXT@@_K@Z 0000000180016fbc f   libvcruntime:ehstate.obj
 0001:000160e4       ?__FuncRelToRealOffset@@YA_KPEAU_xDISPATCHER_CONTEXT@@I@Z 00000001800170e4 f i libvcruntime:ehstate.obj
 0001:000160f8       ?__RVAtoRealOffset@@YA_KPEAU_xDISPATCHER_CONTEXT@@H@Z 00000001800170f8 f i libvcruntime:ehstate.obj
 0001:00017d04       ??$TypeMatchHelper@V__FrameHandler3@@@@YAHPEBU_s_HandlerType@@PEBU_s_CatchableType@@PEBU_s_ThrowInfo@@@Z 0000000180018d04 f i libvcruntime:frame.obj
 0001:00017e90       ??$TypeMatchHelper@V__FrameHandler4@@@@YAHPEAUHandlerType4@FH4@@PEBU_s_CatchableType@@PEBU_s_ThrowInfo@@@Z 0000000180018e90 f i libvcruntime:frame.obj
 0001:00018030       ??$__InternalCxxFrameHandler@V__FrameHandler3@@@@YA?AW4_EXCEPTION_DISPOSITION@@PEAUEHExceptionRecord@@PEA_KPEAU_CONTEXT@@PEAU_xDISPATCHER_CONTEXT@@PEBU_s_FuncInfo@@H1E@Z 0000000180019030 f i libvcruntime:frame.obj
 0001:000182f4       ??$__InternalCxxFrameHandler@V__FrameHandler4@@@@YA?AW4_EXCEPTION_DISPOSITION@@PEAUEHExceptionRecord@@PEA_KPEAU_CONTEXT@@PEAU_xDISPATCHER_CONTEXT@@PEAUFuncInfo4@FH4@@H1E@Z 00000001800192f4 f i libvcruntime:frame.obj
 0001:00018630       ??$__InternalCxxFrameHandlerWrapper@V__FrameHandler3@@@@YA?AW4_EXCEPTION_DISPOSITION@@PEAUEHExceptionRecord@@PEA_KPEAU_CONTEXT@@PEAU_xDISPATCHER_CONTEXT@@PEBU_s_FuncInfo@@H1E@Z 0000000180019630 f i libvcruntime:frame.obj
 0001:00018638       ??$__InternalCxxFrameHandlerWrapper@V__FrameHandler4@@@@YA?AW4_EXCEPTION_DISPOSITION@@PEAUEHExceptionRecord@@PEA_KPEAU_CONTEXT@@PEAU_xDISPATCHER_CONTEXT@@PEAUFuncInfo4@FH4@@H1E@Z 0000000180019638 f i libvcruntime:frame.obj
 0001:00018698       ??0HandlerMap4@FH4@@QEAA@PEBUTryBlockMapEntry4@1@_KH@Z 0000000180019698 f i libvcruntime:frame.obj
 0001:0001873c       ??0HandlerMap@__FrameHandler3@@QEAA@PEBU_s_TryBlockMapEntry@@_KI@Z 000000018001973c f i libvcruntime:frame.obj
 0001:00018758       ??0HandlerType4@FH4@@QEAA@XZ 0000000180019758 f i libvcruntime:frame.obj
 0001:00018774       ??0TryBlockMap4@FH4@@QEAA@PEBUFuncInfo4@1@_K@Z 0000000180019774 f i libvcruntime:frame.obj
 0001:00018894       ??0TryBlockMap@__FrameHandler3@@QEAA@PEBU_s_FuncInfo@@_K@Z 0000000180019894 f i libvcruntime:frame.obj
 0001:000188a4       ??0UWMap4@FH4@@QEAA@PEBUFuncInfo4@1@_K@Z 00000001800198a4 f i libvcruntime:frame.obj
 0001:00018904       ??0bad_exception@std@@QEAA@AEBV01@@Z 0000000180019904 f i libvcruntime:frame.obj
 0001:00018950       ??0bad_exception@std@@QEAA@XZ 0000000180019950 f i libvcruntime:frame.obj
 0001:00018978       ??0exception@std@@QEAA@AEBV01@@Z 0000000180019978 f i libvcruntime:frame.obj
 0001:000189b8       ??0exception@std@@QEAA@QEBDH@Z 00000001800199b8 f i libvcruntime:frame.obj
 0001:000189d4       ??0iterator@HandlerMap4@FH4@@QEAA@AEAV12@I@Z 00000001800199d4 f i libvcruntime:frame.obj
 0001:000189e4       ??0iterator@HandlerMap@__FrameHandler3@@QEAA@AEAV12@I@Z 00000001800199e4 f i libvcruntime:frame.obj
 0001:000189f4       ??0iterator@UWMap4@FH4@@QEAA@AEAV12@PEAE@Z 00000001800199f4 f i libvcruntime:frame.obj
 0001:00018a04       ??1bad_exception@std@@UEAA@XZ 0000000180019a04 f i libvcruntime:frame.obj
 0001:00018a1c       ??1exception@std@@UEAA@XZ  0000000180019a1c f i libvcruntime:frame.obj
 0001:00018a34       ??4iterator@UWMap4@FH4@@QEAAAEAV012@AEBV012@@Z 0000000180019a34 f i libvcruntime:frame.obj
 0001:00018a5c       ??8iterator@HandlerMap4@FH4@@QEBA_NAEBV012@@Z 0000000180019a5c f i libvcruntime:frame.obj
 0001:00018a68       ??8iterator@HandlerMap@__FrameHandler3@@QEBA_NAEBV012@@Z 0000000180019a68 f i libvcruntime:frame.obj
 0001:00018a74       ??8type_info@@QEBA_NAEBV0@@Z 0000000180019a74 f i libvcruntime:frame.obj
 0001:00018a98       ??9iterator@HandlerMap4@FH4@@QEBA_NAEBV012@@Z 0000000180019a98 f i libvcruntime:frame.obj
 0001:00018aa4       ??9iterator@HandlerMap@__FrameHandler3@@QEBA_NAEBV012@@Z 0000000180019aa4 f i libvcruntime:frame.obj
 0001:00018ab0       ??Diterator@HandlerMap4@FH4@@QEAA?AUHandlerType4@2@XZ 0000000180019ab0 f i libvcruntime:frame.obj
 0001:00018ad8       ??Diterator@HandlerMap@__FrameHandler3@@QEAA?BU_s_HandlerType@@XZ 0000000180019ad8 f i libvcruntime:frame.obj
 0001:00018b04       ??Diterator@TryBlockMap@__FrameHandler3@@QEAA?BU_s_TryBlockMapEntry@@XZ 0000000180019b04 f i libvcruntime:frame.obj
 0001:00018b3c       ??Diterator@UWMap4@FH4@@QEAA?AUUnwindMapEntry4@2@XZ 0000000180019b3c f i libvcruntime:frame.obj
 0001:00018ba4       ??Eiterator@HandlerMap4@FH4@@QEAAAEAV012@XZ 0000000180019ba4 f i libvcruntime:frame.obj
 0001:00018bc8       ??Eiterator@HandlerMap@__FrameHandler3@@QEAAAEAV012@XZ 0000000180019bc8 f i libvcruntime:frame.obj
 0001:00018bd0       ??Eiterator@TryBlockMap@__FrameHandler3@@QEAAAEAV012@XZ 0000000180019bd0 f i libvcruntime:frame.obj
 0001:00018bd8       ??Eiterator@UWMap4@FH4@@QEAAAEAV012@XZ 0000000180019bd8 f i libvcruntime:frame.obj
 0001:00018c00       ??Giterator@UWMap4@FH4@@QEBA_JAEBV012@@Z 0000000180019c00 f i libvcruntime:frame.obj
 0001:00018c0c       ??Miterator@TryBlockMap4@FH4@@QEBA_NAEBV012@@Z 0000000180019c0c f i libvcruntime:frame.obj
 0001:00018c18       ??Miterator@TryBlockMap@__FrameHandler3@@QEBA_NAEBV012@@Z 0000000180019c18 f i libvcruntime:frame.obj
 0001:00018c24       ??Oiterator@UWMap4@FH4@@QEBA_NAEBV012@@Z 0000000180019c24 f i libvcruntime:frame.obj
 0001:00018c34       ??Piterator@UWMap4@FH4@@QEBA_NAEBV012@@Z 0000000180019c34 f i libvcruntime:frame.obj
 0001:00018c44       ??_Ebad_exception@std@@UEAAPEAXI@Z 0000000180019c44 f i libvcruntime:frame.obj
 0001:00018c44       ??_Gbad_exception@std@@UEAAPEAXI@Z 0000000180019c44 f i libvcruntime:frame.obj
 0001:00018c98       ??_Eexception@std@@UEAAPEAXI@Z 0000000180019c98 f i libvcruntime:frame.obj
 0001:00018c98       ??_Gexception@std@@UEAAPEAXI@Z 0000000180019c98 f i libvcruntime:frame.obj
 0001:00018cec       ?BuildCatchObject@__FrameHandler3@@SAXPEAUEHExceptionRecord@@PEAXPEBU_s_HandlerType@@PEBU_s_CatchableType@@@Z 0000000180019cec f   libvcruntime:frame.obj
 0001:00018cf4       ?BuildCatchObject@__FrameHandler4@@SAXPEAUEHExceptionRecord@@PEAXPEAUHandlerType4@FH4@@PEBU_s_CatchableType@@@Z 0000000180019cf4 f   libvcruntime:frame.obj
 0001:00018cfc       ?BuildCatchObjectHelper@__FrameHandler3@@SAHPEAUEHExceptionRecord@@PEAXPEBU_s_HandlerType@@PEBU_s_CatchableType@@@Z 0000000180019cfc f   libvcruntime:frame.obj
 0001:00018d04       ?BuildCatchObjectHelper@__FrameHandler4@@SAHPEAUEHExceptionRecord@@PEAXPEAUHandlerType4@FH4@@PEBU_s_CatchableType@@@Z 0000000180019d04 f   libvcruntime:frame.obj
 0001:00018d0c       ?CxxCallCatchBlock@__FrameHandler3@@SAPEAXPEAU_EXCEPTION_RECORD@@@Z 0000000180019d0c f   libvcruntime:frame.obj
 0001:00018f70       ?CxxCallCatchBlock@__FrameHandler4@@SAPEAXPEAU_EXCEPTION_RECORD@@@Z 0000000180019f70 f   libvcruntime:frame.obj
 0001:00019254       ?DecompHandler@HandlerMap4@FH4@@AEAAXXZ 000000018001a254 f i libvcruntime:frame.obj
 0001:00019530       ?FrameUnwindToState@__FrameHandler3@@SAXPEA_KPEAU_xDISPATCHER_CONTEXT@@PEBU_s_FuncInfo@@H@Z 000000018001a530 f   libvcruntime:frame.obj
 0001:0001971c       ?FrameUnwindToState@__FrameHandler4@@SAXPEA_KPEAU_xDISPATCHER_CONTEXT@@PEAUFuncInfo4@FH4@@H@Z 000000018001a71c f   libvcruntime:frame.obj
 0001:00019ae4       ?GetHandlerSearchState@__FrameHandler3@@SAHPEA_KPEAU_xDISPATCHER_CONTEXT@@PEBU_s_FuncInfo@@@Z 000000018001aae4 f i libvcruntime:frame.obj
 0001:00019ba0       ?GetHandlerSearchState@__FrameHandler4@@SAHPEA_KPEAU_xDISPATCHER_CONTEXT@@PEAUFuncInfo4@FH4@@@Z 000000018001aba0 f i libvcruntime:frame.obj
 0001:00019c1c       ?GetMaxState@__FrameHandler3@@SAHPEAU_xDISPATCHER_CONTEXT@@PEBU_s_FuncInfo@@@Z 000000018001ac1c f i libvcruntime:frame.obj
 0001:00019c20       ?GetMaxState@__FrameHandler4@@SAHPEAU_xDISPATCHER_CONTEXT@@PEAUFuncInfo4@FH4@@@Z 000000018001ac20 f i libvcruntime:frame.obj
 0001:00019e3c       ?ReadEntry@UWMap4@FH4@@AEAAXPEAPEAE@Z 000000018001ae3c f i libvcruntime:frame.obj
 0001:00019f00       ?TypeMatch@__FrameHandler3@@SAHPEBU_s_HandlerType@@PEBU_s_CatchableType@@PEBU_s_ThrowInfo@@@Z 000000018001af00 f   libvcruntime:frame.obj
 0001:00019f08       ?TypeMatch@__FrameHandler4@@SAHPEAUHandlerType4@FH4@@PEBU_s_CatchableType@@PEBU_s_ThrowInfo@@@Z 000000018001af08 f   libvcruntime:frame.obj
 0001:00019f10       ?WalkBack@UWMap4@FH4@@AEAAXPEAPEAE@Z 000000018001af10 f i libvcruntime:frame.obj
 0001:00019f54       ?WalkBack@iterator@UWMap4@FH4@@QEAAXXZ 000000018001af54 f i libvcruntime:frame.obj
 0001:00019fa0       ?WalkForward@UWMap4@FH4@@AEAAXPEAPEAE@Z 000000018001afa0 f i libvcruntime:frame.obj
 0001:00019fa8       ?_CallMemberFunction1@@YAXQEAX00@Z 000000018001afa8 f i libvcruntime:frame.obj
 0001:00019fb4       ?_CallMemberFunction2@@YAXQEAX00H@Z 000000018001afb4 f i libvcruntime:frame.obj
 0001:00019fe4       ?begin@HandlerMap4@FH4@@QEAA?AViterator@12@XZ 000000018001afe4 f i libvcruntime:frame.obj
 0001:00019ff4       ?begin@HandlerMap@__FrameHandler3@@QEAA?AViterator@12@XZ 000000018001aff4 f i libvcruntime:frame.obj
 0001:0001a004       ?begin@UWMap4@FH4@@QEAA?AViterator@12@XZ 000000018001b004 f i libvcruntime:frame.obj
 0001:0001a018       ?end@HandlerMap4@FH4@@QEAA?AViterator@12@XZ 000000018001b018 f i libvcruntime:frame.obj
 0001:0001a028       ?end@HandlerMap@__FrameHandler3@@QEAA?AViterator@12@XZ 000000018001b028 f i libvcruntime:frame.obj
 0001:0001a038       ?getESTypes@__FrameHandler3@@SAPEBU_s_ESTypeList@@PEBU_s_FuncInfo@@@Z 000000018001b038 f i libvcruntime:frame.obj
 0001:0001a06c       ?getESTypes@__FrameHandler4@@SAPEBU_s_ESTypeList@@PEAUFuncInfo4@FH4@@@Z 000000018001b06c f i libvcruntime:frame.obj
 0001:0001a070       ?getLastEntry@HandlerMap4@FH4@@QEAAPEAUHandlerType4@2@XZ 000000018001b070 f i libvcruntime:frame.obj
 0001:0001a0d4       ?getLastEntry@HandlerMap@__FrameHandler3@@QEAAPEBU_s_HandlerType@@XZ 000000018001b0d4 f i libvcruntime:frame.obj
 0001:0001a0ec       ?getMagicNum@__FrameHandler3@@SAIPEBU_s_FuncInfo@@@Z 000000018001b0ec f i libvcruntime:frame.obj
 0001:0001a0f8       ?getMagicNum@__FrameHandler4@@SAIPEAUFuncInfo4@FH4@@@Z 000000018001b0f8 f i libvcruntime:frame.obj
 0001:0001a100       ?getNumTryBlocks@TryBlockMap4@FH4@@QEAAIXZ 000000018001b100 f i libvcruntime:frame.obj
 0001:0001a104       ?getNumTryBlocks@TryBlockMap@__FrameHandler3@@QEAAIXZ 000000018001b104 f i libvcruntime:frame.obj
 0001:0001a10c       ?getStartStop@UWMap4@FH4@@QEAAXHHAEAViterator@12@0@Z 000000018001b10c f i libvcruntime:frame.obj
 0001:0001a210       ?getStateFromIterators@UWMap4@FH4@@SAHAEBViterator@12@H0H0@Z 000000018001b210 f i libvcruntime:frame.obj
 0001:0001a2ec       ?isEHs@__FrameHandler3@@SA_NPEBU_s_FuncInfo@@@Z 000000018001b2ec f i libvcruntime:frame.obj
 0001:0001a2f4       ?isEHs@__FrameHandler4@@SA_NPEAUFuncInfo4@FH4@@@Z 000000018001b2f4 f i libvcruntime:frame.obj
 0001:0001a300       ?isNoExcept@__FrameHandler3@@SA_NPEBU_s_FuncInfo@@@Z 000000018001b300 f i libvcruntime:frame.obj
 0001:0001a30c       ?isNoExcept@__FrameHandler4@@SA_NPEAUFuncInfo4@FH4@@@Z 000000018001b30c f i libvcruntime:frame.obj
 0001:0001a318       ?reset@HandlerType4@FH4@@QEAAXXZ 000000018001b318 f i libvcruntime:frame.obj
 0001:0001a334       ?resetBuffer@HandlerMap4@FH4@@QEAAXXZ 000000018001b334 f i libvcruntime:frame.obj
 0001:0001a344       ?setBuffer@HandlerMap4@FH4@@QEAAXI@Z 000000018001b344 f i libvcruntime:frame.obj
 0001:0001a38c       ?what@exception@std@@UEBAPEBDXZ 000000018001b38c f i libvcruntime:frame.obj
 0001:0001a3a4       __BuildCatchObject         000000018001b3a4 f   libvcruntime:frame.obj
 0001:0001a3ac       __BuildCatchObjectHelper   000000018001b3ac f   libvcruntime:frame.obj
 0001:0001a3b4       __TypeMatch                000000018001b3b4 f   libvcruntime:frame.obj
 0001:0001a3bc       __vcrt_EncodePointer       000000018001b3bc f i libvcruntime:frame.obj
 0001:0001a420       _CallSettingFrame          000000018001b420 f   libvcruntime:handlers.obj
 0001:0001a470       _CallSettingFrame_LookupContinuationIndex 000000018001b470 f   libvcruntime:handlers.obj
 0001:0001a4b0       _CallSettingFrame_NotifyContinuationAddr 000000018001b4b0 f   libvcruntime:handlers.obj
 0001:0001a4e0       _CallSettingFrameEncoded   000000018001b4e0 f   libvcruntime:handlers.obj
 0001:0001a538       ??$?RD@__crt_public_free_policy@@QEBAXQEBD@Z 000000018001b538 f i libvcruntime:std_exception.obj
 0001:0001a544       ??0?$__crt_unique_heap_ptr@DU__crt_public_free_policy@@@@QEAA@QEAD@Z 000000018001b544 f i libvcruntime:std_exception.obj
 0001:0001a54c       ??1?$__crt_unique_heap_ptr@DU__crt_public_free_policy@@@@QEAA@XZ 000000018001b54c f i libvcruntime:std_exception.obj
 0001:0001a570       ??B?$__crt_unique_heap_ptr@DU__crt_public_free_policy@@@@QEBA_NXZ 000000018001b570 f i libvcruntime:std_exception.obj
 0001:0001a57c       ?detach@?$__crt_unique_heap_ptr@DU__crt_public_free_policy@@@@QEAAPEADXZ 000000018001b57c f i libvcruntime:std_exception.obj
 0001:0001a588       ?get@?$__crt_unique_heap_ptr@DU__crt_public_free_policy@@@@QEBAPEADXZ 000000018001b588 f i libvcruntime:std_exception.obj
 0001:0001a58c       ?is_valid@?$__crt_unique_heap_ptr@DU__crt_public_free_policy@@@@QEBA_NXZ 000000018001b58c f i libvcruntime:std_exception.obj
 0001:0001a598       ?release@?$__crt_unique_heap_ptr@DU__crt_public_free_policy@@@@QEAAXXZ 000000018001b598 f i libvcruntime:std_exception.obj
 0001:0001a5bc       __std_exception_copy       000000018001b5bc f   libvcruntime:std_exception.obj
 0001:0001a66c       __std_exception_destroy    000000018001b66c f   libvcruntime:std_exception.obj
 0001:0001a69c       _CxxThrowException         000000018001b69c f   libvcruntime:throw.obj
 0001:0001a790       memcpy_avx_ermsb_Intel     000000018001b790 f   libvcruntime:memcpy_avx_ermsb_aligned.obj
 0001:0001acd0       memcpy_avx_ermsb_amd       000000018001bcd0 f   libvcruntime:memcpy_avx_ermsb_aligned_amd.obj
 0001:0001b210       memcpy_sse2_ermsb_Intel    000000018001c210 f   libvcruntime:memcpy_sse2_ermsb_aligned.obj
 0001:0001b570       memcpy_sse2_ermsb_amd      000000018001c570 f   libvcruntime:memcpy_sse2_ermsb_aligned_amd.obj
 0001:0001b8d0       memcpy_repmovs_Intel       000000018001c8d0 f   libvcruntime:memcpy_repmovs.obj
 0001:0001b910       memcpy_CopyDown_Intel      000000018001c910 f   libvcruntime:memcpy_CopyDown.obj
 0001:0001ba50       memcpy_repmovs_amd         000000018001ca50 f   libvcruntime:memcpy_repmovs_amd.obj
 0001:0001ba90       memcpy_CopyDown_amd        000000018001ca90 f   libvcruntime:memcpy_CopyDown_amd.obj
 0001:0001bbb0       sinf                       000000018001cbb0 f   libucrt:sinf.obj
 0001:0001c464       _initterm                  000000018001d464 f   libucrt:initterm.obj
 0001:0001c4b8       _initterm_e                000000018001d4b8 f   libucrt:initterm.obj
 0001:0001c534       _seh_filter_dll            000000018001d534 f   libucrt:exception_filter.obj
 0001:0001c54c       _seh_filter_exe            000000018001d54c f   libucrt:exception_filter.obj
 0001:0001c730       ??$?B$$A6AXPEAXK0@Z@__crt_fast_encoded_nullptr_t@@QEBAP6AXPEAXK0@ZXZ 000000018001d730 f i libucrt:exit.obj
 0001:0001c7c0       ??$__crt_fast_decode_pointer@P6AXPEAXK0@Z@@YAP6AXPEAXK0@ZQ6AX0K0@Z@Z 000000018001d7c0 f i libucrt:exit.obj
 0001:0001c7dc       ??$__crt_fast_encode_pointer@P6AXPEAXK0@Z@@YAP6AXPEAXK0@ZQ6AX0K0@Z@Z 000000018001d7dc f i libucrt:exit.obj
 0001:0001c804       ??$__crt_get_proc_address@P6AXI@Z@@YAP6AXI@ZQEAUHINSTANCE__@@QEBD@Z 000000018001d804 f i libucrt:exit.obj
 0001:0001c80c       ??$__crt_interlocked_read@J@@YAJPEDJ@Z 000000018001d80c f i libucrt:exit.obj
 0001:0001c83c       ??0?$__crt_unique_handle_t@U__crt_hmodule_traits@@@@QEAA@QEAUHINSTANCE__@@@Z 000000018001d83c f i libucrt:exit.obj
 0001:0001c844       ??1?$__crt_unique_handle_t@U__crt_hmodule_traits@@@@QEAA@XZ 000000018001d844 f i libucrt:exit.obj
 0001:0001c980       ?__acrt_select_exit_lock@@YA?AW4__acrt_lock_id@@XZ 000000018001d980 f i libucrt:exit.obj
 0001:0001c988       ?__crt_fast_encode_pointer@@YA?AU__crt_fast_encoded_nullptr_t@@$$T@Z 000000018001d988 f i libucrt:exit.obj
 0001:0001c990       ?__crt_interlocked_read_32@@YAHPEDH@Z 000000018001d990 f i libucrt:exit.obj
 0001:0001c994       ?__crt_rotate_pointer_value@@YA_K_KH@Z 000000018001d994 f i libucrt:exit.obj
 0001:0001c9b0       ?close@?$__crt_unique_handle_t@U__crt_hmodule_traits@@@@QEAAXXZ 000000018001d9b0 f i libucrt:exit.obj
 0001:0001c9dc       ?close@__crt_hmodule_traits@@SA_NPEAUHINSTANCE__@@@Z 000000018001d9dc f i libucrt:exit.obj
 0001:0001cb30       ?get@?$__crt_unique_handle_t@U__crt_hmodule_traits@@@@QEBAPEAUHINSTANCE__@@XZ 000000018001db30 f i libucrt:exit.obj
 0001:0001cb34       ?get_address_of@?$__crt_unique_handle_t@U__crt_hmodule_traits@@@@QEAAPEAPEAUHINSTANCE__@@XZ 000000018001db34 f i libucrt:exit.obj
 0001:0001cb38       ?get_invalid_value@__crt_hmodule_traits@@SAPEAUHINSTANCE__@@XZ 000000018001db38 f i libucrt:exit.obj
 0001:0001cc5c       _Exit                      000000018001dc5c f   libucrt:exit.obj
 0001:0001cc6c       __acrt_initialize_thread_local_exit_callback 000000018001dc6c f   libucrt:exit.obj
 0001:0001cc78       _c_exit                    000000018001dc78 f   libucrt:exit.obj
 0001:0001cc8c       _cexit                     000000018001dc8c f   libucrt:exit.obj
 0001:0001cc9c       _exit                      000000018001dc9c f   libucrt:exit.obj
 0001:0001ccac       _is_c_termination_complete 000000018001dcac f   libucrt:exit.obj
 0001:0001ccb8       _register_thread_local_exe_atexit_callback 000000018001dcb8 f   libucrt:exit.obj
 0001:0001cd08       exit                       000000018001dd08 f   libucrt:exit.obj
 0001:0001cd14       quick_exit                 000000018001dd14 f   libucrt:exit.obj
 0001:0001cd24       ??$?RE@__crt_internal_free_policy@@QEBAXQEBE@Z 000000018001dd24 f i libucrt:argv_parsing.obj
 0001:0001cd30       ??$?RPEAD@__crt_internal_free_policy@@QEBAXQEBQEAD@Z 000000018001dd30 f i libucrt:argv_parsing.obj
 0001:0001cd3c       ??$?RPEA_W@__crt_internal_free_policy@@QEBAXQEBQEA_W@Z 000000018001dd3c f i libucrt:argv_parsing.obj
 0001:0001d0f4       ??$get_module_file_name@$$TAEAY0BAF@DH@?$__crt_char_traits@D@@SAK$$QEA$$TAEAY0BAF@D$$QEAH@Z 000000018001e0f4 f i libucrt:argv_parsing.obj
 0001:0001d104       ??$get_module_file_name@$$TAEAY0BAF@_WH@?$__crt_char_traits@_W@@SAK$$QEA$$TAEAY0BAF@_W$$QEAH@Z 000000018001e104 f i libucrt:argv_parsing.obj
 0001:0001d558       ??$set_program_name@PEAD@?$__crt_char_traits@D@@SAX$$QEAPEAD@Z 000000018001e558 f i libucrt:argv_parsing.obj
 0001:0001d568       ??$set_program_name@PEA_W@?$__crt_char_traits@_W@@SAX$$QEAPEA_W@Z 000000018001e568 f i libucrt:argv_parsing.obj
 0001:0001d588       ??0?$__crt_unique_heap_ptr@EU__crt_internal_free_policy@@@@QEAA@QEAE@Z 000000018001e588 f i libucrt:argv_parsing.obj
 0001:0001d590       ??0?$__crt_unique_heap_ptr@PEADU__crt_internal_free_policy@@@@QEAA@QEAPEAD@Z 000000018001e590 f i libucrt:argv_parsing.obj
 0001:0001d598       ??0?$__crt_unique_heap_ptr@PEA_WU__crt_internal_free_policy@@@@QEAA@QEAPEA_W@Z 000000018001e598 f i libucrt:argv_parsing.obj
 0001:0001d5a0       ??1?$__crt_unique_heap_ptr@EU__crt_internal_free_policy@@@@QEAA@XZ 000000018001e5a0 f i libucrt:argv_parsing.obj
 0001:0001d5c4       ??1?$__crt_unique_heap_ptr@PEADU__crt_internal_free_policy@@@@QEAA@XZ 000000018001e5c4 f i libucrt:argv_parsing.obj
 0001:0001d5e8       ??1?$__crt_unique_heap_ptr@PEA_WU__crt_internal_free_policy@@@@QEAA@XZ 000000018001e5e8 f i libucrt:argv_parsing.obj
 0001:0001d60c       ??B?$__crt_unique_heap_ptr@EU__crt_internal_free_policy@@@@QEBA_NXZ 000000018001e60c f i libucrt:argv_parsing.obj
 0001:0001d660       ?detach@?$__crt_unique_heap_ptr@EU__crt_internal_free_policy@@@@QEAAPEAEXZ 000000018001e660 f i libucrt:argv_parsing.obj
 0001:0001d66c       ?detach@?$__crt_unique_heap_ptr@PEADU__crt_internal_free_policy@@@@QEAAPEAPEADXZ 000000018001e66c f i libucrt:argv_parsing.obj
 0001:0001d678       ?detach@?$__crt_unique_heap_ptr@PEA_WU__crt_internal_free_policy@@@@QEAAPEAPEA_WXZ 000000018001e678 f i libucrt:argv_parsing.obj
 0001:0001d6a0       ?get@?$__crt_unique_heap_ptr@EU__crt_internal_free_policy@@@@QEBAPEAEXZ 000000018001e6a0 f i libucrt:argv_parsing.obj
 0001:0001d6a4       ?get@?$__crt_unique_heap_ptr@PEADU__crt_internal_free_policy@@@@QEBAPEAPEADXZ 000000018001e6a4 f i libucrt:argv_parsing.obj
 0001:0001d6a8       ?get@?$__crt_unique_heap_ptr@PEA_WU__crt_internal_free_policy@@@@QEBAPEAPEA_WXZ 000000018001e6a8 f i libucrt:argv_parsing.obj
 0001:0001d6ac       ?get_address_of@?$__crt_unique_heap_ptr@PEADU__crt_internal_free_policy@@@@QEAAPEAPEAPEADXZ 000000018001e6ac f i libucrt:argv_parsing.obj
 0001:0001d6b0       ?get_address_of@?$__crt_unique_heap_ptr@PEA_WU__crt_internal_free_policy@@@@QEAAPEAPEAPEA_WXZ 000000018001e6b0 f i libucrt:argv_parsing.obj
 0001:0001d6e4       ?is_valid@?$__crt_unique_heap_ptr@EU__crt_internal_free_policy@@@@QEBA_NXZ 000000018001e6e4 f i libucrt:argv_parsing.obj
 0001:0001d6f0       ?release@?$__crt_unique_heap_ptr@EU__crt_internal_free_policy@@@@QEAAXXZ 000000018001e6f0 f i libucrt:argv_parsing.obj
 0001:0001d714       ?release@?$__crt_unique_heap_ptr@PEADU__crt_internal_free_policy@@@@QEAAXXZ 000000018001e714 f i libucrt:argv_parsing.obj
 0001:0001d738       ?release@?$__crt_unique_heap_ptr@PEA_WU__crt_internal_free_policy@@@@QEAAXXZ 000000018001e738 f i libucrt:argv_parsing.obj
 0001:0001d77c       __acrt_allocate_buffer_for_argv 000000018001e77c f   libucrt:argv_parsing.obj
 0001:0001d7f0       _configure_narrow_argv     000000018001e7f0 f   libucrt:argv_parsing.obj
 0001:0001d9d8       _configure_wide_argv       000000018001e9d8 f   libucrt:argv_parsing.obj
 0001:0001dbbc       _set_pgmptr                000000018001ebbc f i libucrt:argv_parsing.obj
 0001:0001dbc8       _set_wpgmptr               000000018001ebc8 f i libucrt:argv_parsing.obj
 0001:0001dbd4       ??$?R_W@__crt_internal_free_policy@@QEBAXQEB_W@Z 000000018001ebd4 f i libucrt:environment_initialization.obj
 0001:0001e248       ??$get_environment_from_os@$$V@?$__crt_char_traits@D@@SAPEADXZ 000000018001f248 f i libucrt:environment_initialization.obj
 0001:0001e250       ??$get_environment_from_os@$$V@?$__crt_char_traits@_W@@SAPEA_WXZ 000000018001f250 f i libucrt:environment_initialization.obj
 0001:0001e458       ??$set_variable_in_environment_nolock@PEADH@?$__crt_char_traits@D@@SAH$$QEAPEAD$$QEAH@Z 000000018001f458 f i libucrt:environment_initialization.obj
 0001:0001e464       ??$set_variable_in_environment_nolock@PEA_WH@?$__crt_char_traits@_W@@SAH$$QEAPEA_W$$QEAH@Z 000000018001f464 f i libucrt:environment_initialization.obj
 0001:0001e470       ??$tcscpy_s@PEADAEB_KAEAPEAD@?$__crt_char_traits@D@@SAH$$QEAPEADAEB_KAEAPEAD@Z 000000018001f470 f i libucrt:environment_initialization.obj
 0001:0001e484       ??$tcscpy_s@PEA_WAEB_KAEAPEA_W@?$__crt_char_traits@_W@@SAH$$QEAPEA_WAEB_KAEAPEA_W@Z 000000018001f484 f i libucrt:environment_initialization.obj
 0001:0001e498       ??$tcslen@AEAPEAD@?$__crt_char_traits@D@@SA_KAEAPEAD@Z 000000018001f498 f i libucrt:environment_initialization.obj
 0001:0001e4b0       ??$tcslen@AEAPEA_W@?$__crt_char_traits@_W@@SA_KAEAPEA_W@Z 000000018001f4b0 f i libucrt:environment_initialization.obj
 0001:0001e4c8       ??$uninitialize@A6AXAEAPEAPEAD@_E@?$dual_state_global@PEAPEAD@__crt_state_management@@QEAAXA6AXAEAPEAPEAD@_E@Z 000000018001f4c8 f i libucrt:environment_initialization.obj
 0001:0001e534       ??$uninitialize@A6AXAEAPEAPEA_W@_E@?$dual_state_global@PEAPEA_W@__crt_state_management@@QEAAXA6AXAEAPEAPEA_W@_E@Z 000000018001f534 f i libucrt:environment_initialization.obj
 0001:0001e5e0       ??0?$__crt_unique_heap_ptr@_WU__crt_internal_free_policy@@@@QEAA@QEA_W@Z 000000018001f5e0 f i libucrt:environment_initialization.obj
 0001:0001e5e8       ??1?$__crt_unique_heap_ptr@_WU__crt_internal_free_policy@@@@QEAA@XZ 000000018001f5e8 f i libucrt:environment_initialization.obj
 0001:0001e60c       ??B?$__crt_unique_heap_ptr@PEADU__crt_internal_free_policy@@@@QEBA_NXZ 000000018001f60c f i libucrt:environment_initialization.obj
 0001:0001e618       ??B?$__crt_unique_heap_ptr@PEA_WU__crt_internal_free_policy@@@@QEBA_NXZ 000000018001f618 f i libucrt:environment_initialization.obj
 0001:0001e624       ??B?$__crt_unique_heap_ptr@_WU__crt_internal_free_policy@@@@QEBA_NXZ 000000018001f624 f i libucrt:environment_initialization.obj
 0001:0001e630       ?__crt_compute_required_transform_buffer_count@@YA_KIQEBD@Z 000000018001f630 f i libucrt:environment_initialization.obj
 0001:0001e660       ?__crt_compute_required_transform_buffer_count@@YA_KIQEB_W@Z 000000018001f660 f i libucrt:environment_initialization.obj
 0001:0001e69c       ?__crt_transform_string@@YA_KIQEBDQEA_W_K@Z 000000018001f69c f i libucrt:environment_initialization.obj
 0001:0001e6c8       ?__crt_transform_string@@YA_KIQEB_WQEAD_K@Z 000000018001f6c8 f i libucrt:environment_initialization.obj
 0001:0001e704       ?detach@?$__crt_unique_heap_ptr@DU__crt_internal_free_policy@@@@QEAAPEADXZ 000000018001f704 f i libucrt:environment_initialization.obj
 0001:0001e710       ?detach@?$__crt_unique_heap_ptr@_WU__crt_internal_free_policy@@@@QEAAPEA_WXZ 000000018001f710 f i libucrt:environment_initialization.obj
 0001:0001e71c       ?get@?$__crt_unique_heap_ptr@_WU__crt_internal_free_policy@@@@QEBAPEA_WXZ 000000018001f71c f i libucrt:environment_initialization.obj
 0001:0001e720       ?get_current_state_index@__crt_state_management@@YA_KXZ 000000018001f720 f i libucrt:environment_initialization.obj
 0001:0001e76c       ?initialize@?$dual_state_global@PEAPEAD@__crt_state_management@@QEAAXQEAPEAD@Z 000000018001f76c f i libucrt:environment_initialization.obj
 0001:0001e77c       ?initialize@?$dual_state_global@PEAPEA_W@__crt_state_management@@QEAAXQEAPEA_W@Z 000000018001f77c f i libucrt:environment_initialization.obj
 0001:0001e78c       ?is_valid@?$__crt_unique_heap_ptr@PEADU__crt_internal_free_policy@@@@QEBA_NXZ 000000018001f78c f i libucrt:environment_initialization.obj
 0001:0001e798       ?is_valid@?$__crt_unique_heap_ptr@PEA_WU__crt_internal_free_policy@@@@QEBA_NXZ 000000018001f798 f i libucrt:environment_initialization.obj
 0001:0001e7a4       ?is_valid@?$__crt_unique_heap_ptr@_WU__crt_internal_free_policy@@@@QEBA_NXZ 000000018001f7a4 f i libucrt:environment_initialization.obj
 0001:0001e7bc       ?release@?$__crt_unique_heap_ptr@_WU__crt_internal_free_policy@@@@QEAAXXZ 000000018001f7bc f i libucrt:environment_initialization.obj
 0001:0001e7e0       ?value@?$dual_state_global@PEAPEAD@__crt_state_management@@QEAAAEAPEAPEADXZ 000000018001f7e0 f i libucrt:environment_initialization.obj
 0001:0001e7e4       ?value@?$dual_state_global@PEAPEA_W@__crt_state_management@@QEAAAEAPEAPEA_WXZ 000000018001f7e4 f i libucrt:environment_initialization.obj
 0001:0001e7e8       __dcrt_get_or_create_narrow_environment_nolock 000000018001f7e8 f   libucrt:environment_initialization.obj
 0001:0001e834       __dcrt_get_or_create_wide_environment_nolock 000000018001f834 f   libucrt:environment_initialization.obj
 0001:0001e880       __dcrt_uninitialize_environments_nolock 000000018001f880 f   libucrt:environment_initialization.obj
 0001:0001e8d4       __p__environ               000000018001f8d4 f   libucrt:environment_initialization.obj
 0001:0001e8e0       __p__wenviron              000000018001f8e0 f   libucrt:environment_initialization.obj
 0001:0001e8ec       _get_initial_narrow_environment 000000018001f8ec f   libucrt:environment_initialization.obj
 0001:0001e950       _get_initial_wide_environment 000000018001f950 f   libucrt:environment_initialization.obj
 0001:0001e9b4       _initialize_narrow_environment 000000018001f9b4 f   libucrt:environment_initialization.obj
 0001:0001e9bc       _initialize_wide_environment 000000018001f9bc f   libucrt:environment_initialization.obj
 0001:0001e9c4       _invoke_watson_if_error    000000018001f9c4 f i libucrt:environment_initialization.obj
 0001:0001ea04       ??$?B$$A6AXXZ@__crt_fast_encoded_nullptr_t@@QEBAP6AXXZXZ 000000018001fa04 f i libucrt:onexit.obj
 0001:0001ea10       ??$?BP6AXXZ@__crt_fast_encoded_nullptr_t@@QEBAPEAP6AXXZXZ 000000018001fa10 f i libucrt:onexit.obj
 0001:0001ea1c       ??$?RP6AXXZ@__crt_internal_free_policy@@QEBAXQEBQ6AXXZ@Z 000000018001fa1c f i libucrt:onexit.obj
 0001:0001eb2c       ??$__crt_fast_decode_pointer@P6AXXZ@@YAP6AXXZQ6AXXZ@Z 000000018001fb2c f i libucrt:onexit.obj
 0001:0001eb48       ??$__crt_fast_decode_pointer@PEAP6AXXZ@@YAPEAP6AXXZQEAP6AXXZ@Z 000000018001fb48 f i libucrt:onexit.obj
 0001:0001eb64       ??$__crt_fast_encode_pointer@P6AHXZ@@YAP6AHXZQ6AHXZ@Z 000000018001fb64 f i libucrt:onexit.obj
 0001:0001eb8c       ??$__crt_fast_encode_pointer@P6AXXZ@@YAP6AXXZQ6AXXZ@Z 000000018001fb8c f i libucrt:onexit.obj
 0001:0001ebb4       ??$__crt_fast_encode_pointer@PEAP6AXXZ@@YAPEAP6AXXZQEAP6AXXZ@Z 000000018001fbb4 f i libucrt:onexit.obj
 0001:0001ec24       ??0?$__crt_unique_heap_ptr@P6AXXZU__crt_internal_free_policy@@@@QEAA@QEAP6AXXZ@Z 000000018001fc24 f i libucrt:onexit.obj
 0001:0001ec2c       ??1?$__crt_unique_heap_ptr@P6AXXZU__crt_internal_free_policy@@@@QEAA@XZ 000000018001fc2c f i libucrt:onexit.obj
 0001:0001ec50       ??1scoped_global_state_reset@__crt_state_management@@QEAA@XZ 000000018001fc50 f i libucrt:onexit.obj
 0001:0001eff8       ?detach@?$__crt_unique_heap_ptr@P6AXXZU__crt_internal_free_policy@@@@QEAAPEAP6AXXZXZ 000000018001fff8 f i libucrt:onexit.obj
 0001:0001f004       ?release@?$__crt_unique_heap_ptr@P6AXXZU__crt_internal_free_policy@@@@QEAAXXZ 0000000180020004 f i libucrt:onexit.obj
 0001:0001f028       _crt_at_quick_exit         0000000180020028 f   libucrt:onexit.obj
 0001:0001f03c       _crt_atexit                000000018002003c f   libucrt:onexit.obj
 0001:0001f050       _execute_onexit_table      0000000180020050 f   libucrt:onexit.obj
 0001:0001f0a4       _initialize_onexit_table   00000001800200a4 f   libucrt:onexit.obj
 0001:0001f0d4       _register_onexit_function  00000001800200d4 f   libucrt:onexit.obj
 0001:0001f2b4       ??$?BX@__crt_fast_encoded_nullptr_t@@QEBAPEAXXZ 00000001800202b4 f i libucrt:initialization.obj
 0001:0001f2c0       ??$__crt_fast_encode_pointer@PEAX@@YAPEAXQEAX@Z 00000001800202c0 f i libucrt:initialization.obj
 0001:0001f3a8       ?__acrt_stdio_is_initialized@@YA_NXZ 00000001800203a8 f i libucrt:initialization.obj
 0001:0001f3b8       ?initialize@?$dual_state_global@PEAU__crt_locale_data@@@__crt_state_management@@QEAAXQEAU__crt_locale_data@@@Z 00000001800203b8 f i libucrt:initialization.obj
 0001:0001f3c8       __acrt_initialize          00000001800203c8 f   libucrt:initialization.obj
 0001:0001f3e0       __acrt_thread_attach       00000001800203e0 f   libucrt:initialization.obj
 0001:0001f3fc       __acrt_thread_detach       00000001800203fc f   libucrt:initialization.obj
 0001:0001f410       __acrt_uninitialize        0000000180020410 f   libucrt:initialization.obj
 0001:0001f454       __acrt_uninitialize_critical 0000000180020454 f   libucrt:initialization.obj
 0001:0001f480       _get_terminate             0000000180020480 f   libucrt:terminate.obj
 0001:0001f4ac       set_terminate              00000001800204ac f   libucrt:terminate.obj
 0001:0001f4e4       terminate                  00000001800204e4 f   libucrt:terminate.obj
 0001:0001f518       free                       0000000180020518 f   libucrt:free.obj
 0001:0001f530       malloc                     0000000180020530 f   libucrt:malloc.obj
 0001:0001f5b4       strcpy_s                   00000001800205b4 f   libucrt:strcpy_s.obj
 0001:0001f62c       _set_abort_behavior        000000018002062c f   libucrt:abort.obj
 0001:0001f650       abort                      0000000180020650 f   libucrt:abort.obj
 0001:0001f6bc       ??$?0AEBV?$stream_output_adapter@D@__crt_stdio_output@@AEB_KAEBQEBDAEAV__crt_cached_ptd_host@@AEBQEAD@?$format_validation_base@DV?$stream_output_adapter@D@__crt_stdio_output@@@__crt_stdio_output@@IEAA@AEBV?$stream_output_adapter@D@1@AEB_KAEBQEBDAEAV__crt_cached_ptd_host@@AEBQEAD@Z 00000001800206bc f i libucrt:output.obj
 0001:0001f748       ??$?0AEBV?$stream_output_adapter@D@__crt_stdio_output@@AEB_KAEBQEBDAEAV__crt_cached_ptd_host@@AEBQEAD@?$positional_parameter_base@DV?$stream_output_adapter@D@__crt_stdio_output@@@__crt_stdio_output@@IEAA@AEBV?$stream_output_adapter@D@1@AEB_KAEBQEBDAEAV__crt_cached_ptd_host@@AEBQEAD@Z 0000000180020748 f i libucrt:output.obj
 0001:0001f7f8       ??$?0AEBV?$stream_output_adapter@D@__crt_stdio_output@@AEB_KAEBQEBDAEAV__crt_cached_ptd_host@@AEBQEAD@?$standard_base@DV?$stream_output_adapter@D@__crt_stdio_output@@@__crt_stdio_output@@IEAA@AEBV?$stream_output_adapter@D@1@AEB_KAEBQEBDAEAV__crt_cached_ptd_host@@AEBQEAD@Z 00000001800207f8 f i libucrt:output.obj
 0001:0001f884       ??$?0AEBV?$stream_output_adapter@_W@__crt_stdio_output@@AEB_KAEBQEB_WAEAV__crt_cached_ptd_host@@AEBQEAD@?$format_validation_base@_WV?$stream_output_adapter@_W@__crt_stdio_output@@@__crt_stdio_output@@IEAA@AEBV?$stream_output_adapter@_W@1@AEB_KAEBQEB_WAEAV__crt_cached_ptd_host@@AEBQEAD@Z 0000000180020884 f i libucrt:output.obj
 0001:0001f918       ??$?0AEBV?$stream_output_adapter@_W@__crt_stdio_output@@AEB_KAEBQEB_WAEAV__crt_cached_ptd_host@@AEBQEAD@?$positional_parameter_base@_WV?$stream_output_adapter@_W@__crt_stdio_output@@@__crt_stdio_output@@IEAA@AEBV?$stream_output_adapter@_W@1@AEB_KAEBQEB_WAEAV__crt_cached_ptd_host@@AEBQEAD@Z 0000000180020918 f i libucrt:output.obj
 0001:0001f9d0       ??$?0AEBV?$stream_output_adapter@_W@__crt_stdio_output@@AEB_KAEBQEB_WAEAV__crt_cached_ptd_host@@AEBQEAD@?$standard_base@_WV?$stream_output_adapter@_W@__crt_stdio_output@@@__crt_stdio_output@@IEAA@AEBV?$stream_output_adapter@_W@1@AEB_KAEBQEB_WAEAV__crt_cached_ptd_host@@AEBQEAD@Z 00000001800209d0 f i libucrt:output.obj
 0001:0001fa64       ??$?0AEBV?$string_output_adapter@D@__crt_stdio_output@@AEB_KAEBQEBDAEAV__crt_cached_ptd_host@@AEBQEAD@?$format_validation_base@DV?$string_output_adapter@D@__crt_stdio_output@@@__crt_stdio_output@@IEAA@AEBV?$string_output_adapter@D@1@AEB_KAEBQEBDAEAV__crt_cached_ptd_host@@AEBQEAD@Z 0000000180020a64 f i libucrt:output.obj
 0001:0001faf0       ??$?0AEBV?$string_output_adapter@D@__crt_stdio_output@@AEB_KAEBQEBDAEAV__crt_cached_ptd_host@@AEBQEAD@?$positional_parameter_base@DV?$string_output_adapter@D@__crt_stdio_output@@@__crt_stdio_output@@IEAA@AEBV?$string_output_adapter@D@1@AEB_KAEBQEBDAEAV__crt_cached_ptd_host@@AEBQEAD@Z 0000000180020af0 f i libucrt:output.obj
 0001:0001fba0       ??$?0AEBV?$string_output_adapter@D@__crt_stdio_output@@AEB_KAEBQEBDAEAV__crt_cached_ptd_host@@AEBQEAD@?$standard_base@DV?$string_output_adapter@D@__crt_stdio_output@@@__crt_stdio_output@@IEAA@AEBV?$string_output_adapter@D@1@AEB_KAEBQEBDAEAV__crt_cached_ptd_host@@AEBQEAD@Z 0000000180020ba0 f i libucrt:output.obj
 0001:0001fc2c       ??$?0AEBV?$string_output_adapter@_W@__crt_stdio_output@@AEB_KAEBQEB_WAEAV__crt_cached_ptd_host@@AEBQEAD@?$format_validation_base@_WV?$string_output_adapter@_W@__crt_stdio_output@@@__crt_stdio_output@@IEAA@AEBV?$string_output_adapter@_W@1@AEB_KAEBQEB_WAEAV__crt_cached_ptd_host@@AEBQEAD@Z 0000000180020c2c f i libucrt:output.obj
 0001:0001fcc0       ??$?0AEBV?$string_output_adapter@_W@__crt_stdio_output@@AEB_KAEBQEB_WAEAV__crt_cached_ptd_host@@AEBQEAD@?$positional_parameter_base@_WV?$string_output_adapter@_W@__crt_stdio_output@@@__crt_stdio_output@@IEAA@AEBV?$string_output_adapter@_W@1@AEB_KAEBQEB_WAEAV__crt_cached_ptd_host@@AEBQEAD@Z 0000000180020cc0 f i libucrt:output.obj
 0001:0001fd78       ??$?0AEBV?$string_output_adapter@_W@__crt_stdio_output@@AEB_KAEBQEB_WAEAV__crt_cached_ptd_host@@AEBQEAD@?$standard_base@_WV?$string_output_adapter@_W@__crt_stdio_output@@@__crt_stdio_output@@IEAA@AEBV?$string_output_adapter@_W@1@AEB_KAEBQEB_WAEAV__crt_cached_ptd_host@@AEBQEAD@Z 0000000180020d78 f i libucrt:output.obj
 0001:0002010c       ??$_tcstol_internal@DPEAPEAD$0A@@@YAJAEAV__crt_cached_ptd_host@@QEBDQEAPEADH@Z 000000018002110c f i libucrt:output.obj
 0001:00020148       ??$_tcstol_internal@_WPEAPEA_W$0A@@@YAJAEAV__crt_cached_ptd_host@@QEB_WQEAPEA_WH@Z 0000000180021148 f i libucrt:output.obj
 0001:000216e4       ??$count@D@formatting_buffer@__crt_stdio_output@@QEBA_KXZ 00000001800226e4 f i libucrt:output.obj
 0001:00021708       ??$count@_W@formatting_buffer@__crt_stdio_output@@QEBA_KXZ 0000000180022708 f i libucrt:output.obj
 0001:0002172c       ??$data@D@formatting_buffer@__crt_stdio_output@@QEAAPEADXZ 000000018002272c f i libucrt:output.obj
 0001:00021740       ??$data@_W@formatting_buffer@__crt_stdio_output@@QEAAPEA_WXZ 0000000180022740 f i libucrt:output.obj
 0001:00021754       ??$ensure_buffer_is_big_enough@D@formatting_buffer@__crt_stdio_output@@QEAA_N_KAEAV__crt_cached_ptd_host@@@Z 0000000180022754 f i libucrt:output.obj
 0001:00021828       ??$ensure_buffer_is_big_enough@_W@formatting_buffer@__crt_stdio_output@@QEAA_N_KAEAV__crt_cached_ptd_host@@@Z 0000000180022828 f i libucrt:output.obj
 0001:00021900       ??$extract_argument_from_va_list@C_J@?$positional_parameter_base@DV?$stream_output_adapter@D@__crt_stdio_output@@@__crt_stdio_output@@IEAA_NAEA_J@Z 0000000180022900 f i libucrt:output.obj
 0001:00021a4c       ??$extract_argument_from_va_list@C_J@?$positional_parameter_base@DV?$string_output_adapter@D@__crt_stdio_output@@@__crt_stdio_output@@IEAA_NAEA_J@Z 0000000180022a4c f i libucrt:output.obj
 0001:00021b98       ??$extract_argument_from_va_list@C_J@?$positional_parameter_base@_WV?$stream_output_adapter@_W@__crt_stdio_output@@@__crt_stdio_output@@IEAA_NAEA_J@Z 0000000180022b98 f i libucrt:output.obj
 0001:00021ce8       ??$extract_argument_from_va_list@C_J@?$positional_parameter_base@_WV?$string_output_adapter@_W@__crt_stdio_output@@@__crt_stdio_output@@IEAA_NAEA_J@Z 0000000180022ce8 f i libucrt:output.obj
 0001:00021e38       ??$extract_argument_from_va_list@C_J@?$standard_base@DV?$stream_output_adapter@D@__crt_stdio_output@@@__crt_stdio_output@@IEAA_NAEA_J@Z 0000000180022e38 f i libucrt:output.obj
 0001:00021e54       ??$extract_argument_from_va_list@C_J@?$standard_base@DV?$string_output_adapter@D@__crt_stdio_output@@@__crt_stdio_output@@IEAA_NAEA_J@Z 0000000180022e54 f i libucrt:output.obj
 0001:00021e70       ??$extract_argument_from_va_list@C_J@?$standard_base@_WV?$stream_output_adapter@_W@__crt_stdio_output@@@__crt_stdio_output@@IEAA_NAEA_J@Z 0000000180022e70 f i libucrt:output.obj
 0001:00021e8c       ??$extract_argument_from_va_list@C_J@?$standard_base@_WV?$string_output_adapter@_W@__crt_stdio_output@@@__crt_stdio_output@@IEAA_NAEA_J@Z 0000000180022e8c f i libucrt:output.obj
 0001:00021ea8       ??$extract_argument_from_va_list@E_J@?$positional_parameter_base@DV?$stream_output_adapter@D@__crt_stdio_output@@@__crt_stdio_output@@IEAA_NAEA_J@Z 0000000180022ea8 f i libucrt:output.obj
 0001:00021ff4       ??$extract_argument_from_va_list@E_J@?$positional_parameter_base@DV?$string_output_adapter@D@__crt_stdio_output@@@__crt_stdio_output@@IEAA_NAEA_J@Z 0000000180022ff4 f i libucrt:output.obj
 0001:00022140       ??$extract_argument_from_va_list@E_J@?$positional_parameter_base@_WV?$stream_output_adapter@_W@__crt_stdio_output@@@__crt_stdio_output@@IEAA_NAEA_J@Z 0000000180023140 f i libucrt:output.obj
 0001:0002228c       ??$extract_argument_from_va_list@E_J@?$positional_parameter_base@_WV?$string_output_adapter@_W@__crt_stdio_output@@@__crt_stdio_output@@IEAA_NAEA_J@Z 000000018002328c f i libucrt:output.obj
 0001:000223d8       ??$extract_argument_from_va_list@E_J@?$standard_base@DV?$stream_output_adapter@D@__crt_stdio_output@@@__crt_stdio_output@@IEAA_NAEA_J@Z 00000001800233d8 f i libucrt:output.obj
 0001:000223f4       ??$extract_argument_from_va_list@E_J@?$standard_base@DV?$string_output_adapter@D@__crt_stdio_output@@@__crt_stdio_output@@IEAA_NAEA_J@Z 00000001800233f4 f i libucrt:output.obj
 0001:00022410       ??$extract_argument_from_va_list@E_J@?$standard_base@_WV?$stream_output_adapter@_W@__crt_stdio_output@@@__crt_stdio_output@@IEAA_NAEA_J@Z 0000000180023410 f i libucrt:output.obj
 0001:0002242c       ??$extract_argument_from_va_list@E_J@?$standard_base@_WV?$string_output_adapter@_W@__crt_stdio_output@@@__crt_stdio_output@@IEAA_NAEA_J@Z 000000018002342c f i libucrt:output.obj
 0001:00022448       ??$extract_argument_from_va_list@F_J@?$positional_parameter_base@DV?$stream_output_adapter@D@__crt_stdio_output@@@__crt_stdio_output@@IEAA_NAEA_J@Z 0000000180023448 f i libucrt:output.obj
 0001:00022594       ??$extract_argument_from_va_list@F_J@?$positional_parameter_base@DV?$string_output_adapter@D@__crt_stdio_output@@@__crt_stdio_output@@IEAA_NAEA_J@Z 0000000180023594 f i libucrt:output.obj
 0001:000226e0       ??$extract_argument_from_va_list@F_J@?$positional_parameter_base@_WV?$stream_output_adapter@_W@__crt_stdio_output@@@__crt_stdio_output@@IEAA_NAEA_J@Z 00000001800236e0 f i libucrt:output.obj
 0001:00022830       ??$extract_argument_from_va_list@F_J@?$positional_parameter_base@_WV?$string_output_adapter@_W@__crt_stdio_output@@@__crt_stdio_output@@IEAA_NAEA_J@Z 0000000180023830 f i libucrt:output.obj
 0001:00022980       ??$extract_argument_from_va_list@F_J@?$standard_base@DV?$stream_output_adapter@D@__crt_stdio_output@@@__crt_stdio_output@@IEAA_NAEA_J@Z 0000000180023980 f i libucrt:output.obj
 0001:0002299c       ??$extract_argument_from_va_list@F_J@?$standard_base@DV?$string_output_adapter@D@__crt_stdio_output@@@__crt_stdio_output@@IEAA_NAEA_J@Z 000000018002399c f i libucrt:output.obj
 0001:000229b8       ??$extract_argument_from_va_list@F_J@?$standard_base@_WV?$stream_output_adapter@_W@__crt_stdio_output@@@__crt_stdio_output@@IEAA_NAEA_J@Z 00000001800239b8 f i libucrt:output.obj
 0001:000229d4       ??$extract_argument_from_va_list@F_J@?$standard_base@_WV?$string_output_adapter@_W@__crt_stdio_output@@@__crt_stdio_output@@IEAA_NAEA_J@Z 00000001800239d4 f i libucrt:output.obj
 0001:000229f0       ??$extract_argument_from_va_list@GD@?$positional_parameter_base@DV?$stream_output_adapter@D@__crt_stdio_output@@@__crt_stdio_output@@IEAA_NAEAD@Z 00000001800239f0 f i libucrt:output.obj
 0001:00022b38       ??$extract_argument_from_va_list@GD@?$positional_parameter_base@DV?$string_output_adapter@D@__crt_stdio_output@@@__crt_stdio_output@@IEAA_NAEAD@Z 0000000180023b38 f i libucrt:output.obj
 0001:00022c80       ??$extract_argument_from_va_list@GD@?$standard_base@DV?$stream_output_adapter@D@__crt_stdio_output@@@__crt_stdio_output@@IEAA_NAEAD@Z 0000000180023c80 f i libucrt:output.obj
 0001:00022c9c       ??$extract_argument_from_va_list@GD@?$standard_base@DV?$string_output_adapter@D@__crt_stdio_output@@@__crt_stdio_output@@IEAA_NAEAD@Z 0000000180023c9c f i libucrt:output.obj
 0001:00022cb8       ??$extract_argument_from_va_list@G_J@?$positional_parameter_base@DV?$stream_output_adapter@D@__crt_stdio_output@@@__crt_stdio_output@@IEAA_NAEA_J@Z 0000000180023cb8 f i libucrt:output.obj
 0001:00022e04       ??$extract_argument_from_va_list@G_J@?$positional_parameter_base@DV?$string_output_adapter@D@__crt_stdio_output@@@__crt_stdio_output@@IEAA_NAEA_J@Z 0000000180023e04 f i libucrt:output.obj
 0001:00022f50       ??$extract_argument_from_va_list@G_J@?$positional_parameter_base@_WV?$stream_output_adapter@_W@__crt_stdio_output@@@__crt_stdio_output@@IEAA_NAEA_J@Z 0000000180023f50 f i libucrt:output.obj
 0001:0002309c       ??$extract_argument_from_va_list@G_J@?$positional_parameter_base@_WV?$string_output_adapter@_W@__crt_stdio_output@@@__crt_stdio_output@@IEAA_NAEA_J@Z 000000018002409c f i libucrt:output.obj
 0001:000231e8       ??$extract_argument_from_va_list@G_J@?$standard_base@DV?$stream_output_adapter@D@__crt_stdio_output@@@__crt_stdio_output@@IEAA_NAEA_J@Z 00000001800241e8 f i libucrt:output.obj
 0001:00023204       ??$extract_argument_from_va_list@G_J@?$standard_base@DV?$string_output_adapter@D@__crt_stdio_output@@@__crt_stdio_output@@IEAA_NAEA_J@Z 0000000180024204 f i libucrt:output.obj
 0001:00023220       ??$extract_argument_from_va_list@G_J@?$standard_base@_WV?$stream_output_adapter@_W@__crt_stdio_output@@@__crt_stdio_output@@IEAA_NAEA_J@Z 0000000180024220 f i libucrt:output.obj
 0001:0002323c       ??$extract_argument_from_va_list@G_J@?$standard_base@_WV?$string_output_adapter@_W@__crt_stdio_output@@@__crt_stdio_output@@IEAA_NAEA_J@Z 000000018002423c f i libucrt:output.obj
 0001:00023258       ??$extract_argument_from_va_list@H_J@?$positional_parameter_base@DV?$stream_output_adapter@D@__crt_stdio_output@@@__crt_stdio_output@@IEAA_NAEA_J@Z 0000000180024258 f i libucrt:output.obj
 0001:000233a0       ??$extract_argument_from_va_list@H_J@?$positional_parameter_base@DV?$string_output_adapter@D@__crt_stdio_output@@@__crt_stdio_output@@IEAA_NAEA_J@Z 00000001800243a0 f i libucrt:output.obj
 0001:000234e8       ??$extract_argument_from_va_list@H_J@?$positional_parameter_base@_WV?$stream_output_adapter@_W@__crt_stdio_output@@@__crt_stdio_output@@IEAA_NAEA_J@Z 00000001800244e8 f i libucrt:output.obj
 0001:00023634       ??$extract_argument_from_va_list@H_J@?$positional_parameter_base@_WV?$string_output_adapter@_W@__crt_stdio_output@@@__crt_stdio_output@@IEAA_NAEA_J@Z 0000000180024634 f i libucrt:output.obj
 0001:00023780       ??$extract_argument_from_va_list@H_J@?$standard_base@DV?$stream_output_adapter@D@__crt_stdio_output@@@__crt_stdio_output@@IEAA_NAEA_J@Z 0000000180024780 f i libucrt:output.obj
 0001:0002379c       ??$extract_argument_from_va_list@H_J@?$standard_base@DV?$string_output_adapter@D@__crt_stdio_output@@@__crt_stdio_output@@IEAA_NAEA_J@Z 000000018002479c f i libucrt:output.obj
 0001:000237b8       ??$extract_argument_from_va_list@H_J@?$standard_base@_WV?$stream_output_adapter@_W@__crt_stdio_output@@@__crt_stdio_output@@IEAA_NAEA_J@Z 00000001800247b8 f i libucrt:output.obj
 0001:000237d4       ??$extract_argument_from_va_list@H_J@?$standard_base@_WV?$string_output_adapter@_W@__crt_stdio_output@@@__crt_stdio_output@@IEAA_NAEA_J@Z 00000001800247d4 f i libucrt:output.obj
 0001:000237f0       ??$extract_argument_from_va_list@I_J@?$positional_parameter_base@DV?$stream_output_adapter@D@__crt_stdio_output@@@__crt_stdio_output@@IEAA_NAEA_J@Z 00000001800247f0 f i libucrt:output.obj
 0001:00023938       ??$extract_argument_from_va_list@I_J@?$positional_parameter_base@DV?$string_output_adapter@D@__crt_stdio_output@@@__crt_stdio_output@@IEAA_NAEA_J@Z 0000000180024938 f i libucrt:output.obj
 0001:00023a80       ??$extract_argument_from_va_list@I_J@?$positional_parameter_base@_WV?$stream_output_adapter@_W@__crt_stdio_output@@@__crt_stdio_output@@IEAA_NAEA_J@Z 0000000180024a80 f i libucrt:output.obj
 0001:00023bcc       ??$extract_argument_from_va_list@I_J@?$positional_parameter_base@_WV?$string_output_adapter@_W@__crt_stdio_output@@@__crt_stdio_output@@IEAA_NAEA_J@Z 0000000180024bcc f i libucrt:output.obj
 0001:00023d18       ??$extract_argument_from_va_list@I_J@?$standard_base@DV?$stream_output_adapter@D@__crt_stdio_output@@@__crt_stdio_output@@IEAA_NAEA_J@Z 0000000180024d18 f i libucrt:output.obj
 0001:00023d34       ??$extract_argument_from_va_list@I_J@?$standard_base@DV?$string_output_adapter@D@__crt_stdio_output@@@__crt_stdio_output@@IEAA_NAEA_J@Z 0000000180024d34 f i libucrt:output.obj
 0001:00023d50       ??$extract_argument_from_va_list@I_J@?$standard_base@_WV?$stream_output_adapter@_W@__crt_stdio_output@@@__crt_stdio_output@@IEAA_NAEA_J@Z 0000000180024d50 f i libucrt:output.obj
 0001:00023d6c       ??$extract_argument_from_va_list@I_J@?$standard_base@_WV?$string_output_adapter@_W@__crt_stdio_output@@@__crt_stdio_output@@IEAA_NAEA_J@Z 0000000180024d6c f i libucrt:output.obj
 0001:00023d88       ??$extract_argument_from_va_list@PEADPEAD@?$positional_parameter_base@DV?$stream_output_adapter@D@__crt_stdio_output@@@__crt_stdio_output@@IEAA_NAEAPEAD@Z 0000000180024d88 f i libucrt:output.obj
 0001:00023ed0       ??$extract_argument_from_va_list@PEADPEAD@?$positional_parameter_base@DV?$string_output_adapter@D@__crt_stdio_output@@@__crt_stdio_output@@IEAA_NAEAPEAD@Z 0000000180024ed0 f i libucrt:output.obj
 0001:00024018       ??$extract_argument_from_va_list@PEADPEAD@?$positional_parameter_base@_WV?$stream_output_adapter@_W@__crt_stdio_output@@@__crt_stdio_output@@IEAA_NAEAPEAD@Z 0000000180025018 f i libucrt:output.obj
 0001:00024164       ??$extract_argument_from_va_list@PEADPEAD@?$positional_parameter_base@_WV?$string_output_adapter@_W@__crt_stdio_output@@@__crt_stdio_output@@IEAA_NAEAPEAD@Z 0000000180025164 f i libucrt:output.obj
 0001:000242b0       ??$extract_argument_from_va_list@PEADPEAD@?$standard_base@DV?$stream_output_adapter@D@__crt_stdio_output@@@__crt_stdio_output@@IEAA_NAEAPEAD@Z 00000001800252b0 f i libucrt:output.obj
 0001:000242cc       ??$extract_argument_from_va_list@PEADPEAD@?$standard_base@DV?$string_output_adapter@D@__crt_stdio_output@@@__crt_stdio_output@@IEAA_NAEAPEAD@Z 00000001800252cc f i libucrt:output.obj
 0001:000242e8       ??$extract_argument_from_va_list@PEADPEAD@?$standard_base@_WV?$stream_output_adapter@_W@__crt_stdio_output@@@__crt_stdio_output@@IEAA_NAEAPEAD@Z 00000001800252e8 f i libucrt:output.obj
 0001:00024304       ??$extract_argument_from_va_list@PEADPEAD@?$standard_base@_WV?$string_output_adapter@_W@__crt_stdio_output@@@__crt_stdio_output@@IEAA_NAEAPEAD@Z 0000000180025304 f i libucrt:output.obj
 0001:00024320       ??$extract_argument_from_va_list@PEAUansi_string@?1??type_case_Z@?$output_processor@DV?$stream_output_adapter@D@__crt_stdio_output@@V?$format_validation_base@DV?$stream_output_adapter@D@__crt_stdio_output@@@2@@__crt_stdio_output@@AEAA_NXZ@PEAU1?1??234@AEAA_NXZ@@?$standard_base@DV?$stream_output_adapter@D@__crt_stdio_output@@@__crt_stdio_output@@IEAA_NAEAPEAUansi_string@?1??type_case_Z@?$output_processor@DV?$stream_output_adapter@D@__crt_stdio_output@@V?$format_validation_base@DV?$stream_output_adapter@D@__crt_stdio_output@@@2@@1@AEAA_NXZ@@Z 0000000180025320 f i libucrt:output.obj
 0001:0002433c       ??$extract_argument_from_va_list@PEAUansi_string@?1??type_case_Z@?$output_processor@DV?$stream_output_adapter@D@__crt_stdio_output@@V?$positional_parameter_base@DV?$stream_output_adapter@D@__crt_stdio_output@@@2@@__crt_stdio_output@@AEAA_NXZ@PEAU1?1??234@AEAA_NXZ@@?$positional_parameter_base@DV?$stream_output_adapter@D@__crt_stdio_output@@@__crt_stdio_output@@IEAA_NAEAPEAUansi_string@?1??type_case_Z@?$output_processor@DV?$stream_output_adapter@D@__crt_stdio_output@@V?$positional_parameter_base@DV?$stream_output_adapter@D@__crt_stdio_output@@@2@@1@AEAA_NXZ@@Z 000000018002533c f i libucrt:output.obj
 0001:00024484       ??$extract_argument_from_va_list@PEAUansi_string@?1??type_case_Z@?$output_processor@DV?$stream_output_adapter@D@__crt_stdio_output@@V?$positional_parameter_base@DV?$stream_output_adapter@D@__crt_stdio_output@@@2@@__crt_stdio_output@@AEAA_NXZ@PEAU1?1??234@AEAA_NXZ@@?$standard_base@DV?$stream_output_adapter@D@__crt_stdio_output@@@__crt_stdio_output@@IEAA_NAEAPEAUansi_string@?1??type_case_Z@?$output_processor@DV?$stream_output_adapter@D@__crt_stdio_output@@V?$positional_parameter_base@DV?$stream_output_adapter@D@__crt_stdio_output@@@2@@1@AEAA_NXZ@@Z 0000000180025484 f i libucrt:output.obj
 0001:000244a0       ??$extract_argument_from_va_list@PEAUansi_string@?1??type_case_Z@?$output_processor@DV?$stream_output_adapter@D@__crt_stdio_output@@V?$standard_base@DV?$stream_output_adapter@D@__crt_stdio_output@@@2@@__crt_stdio_output@@AEAA_NXZ@PEAU1?1??234@AEAA_NXZ@@?$standard_base@DV?$stream_output_adapter@D@__crt_stdio_output@@@__crt_stdio_output@@IEAA_NAEAPEAUansi_string@?1??type_case_Z@?$output_processor@DV?$stream_output_adapter@D@__crt_stdio_output@@V?$standard_base@DV?$stream_output_adapter@D@__crt_stdio_output@@@2@@1@AEAA_NXZ@@Z 00000001800254a0 f i libucrt:output.obj
 0001:000244bc       ??$extract_argument_from_va_list@PEAUansi_string@?1??type_case_Z@?$output_processor@DV?$string_output_adapter@D@__crt_stdio_output@@V?$format_validation_base@DV?$string_output_adapter@D@__crt_stdio_output@@@2@@__crt_stdio_output@@AEAA_NXZ@PEAU1?1??234@AEAA_NXZ@@?$standard_base@DV?$string_output_adapter@D@__crt_stdio_output@@@__crt_stdio_output@@IEAA_NAEAPEAUansi_string@?1??type_case_Z@?$output_processor@DV?$string_output_adapter@D@__crt_stdio_output@@V?$format_validation_base@DV?$string_output_adapter@D@__crt_stdio_output@@@2@@1@AEAA_NXZ@@Z 00000001800254bc f i libucrt:output.obj
 0001:000244d8       ??$extract_argument_from_va_list@PEAUansi_string@?1??type_case_Z@?$output_processor@DV?$string_output_adapter@D@__crt_stdio_output@@V?$positional_parameter_base@DV?$string_output_adapter@D@__crt_stdio_output@@@2@@__crt_stdio_output@@AEAA_NXZ@PEAU1?1??234@AEAA_NXZ@@?$positional_parameter_base@DV?$string_output_adapter@D@__crt_stdio_output@@@__crt_stdio_output@@IEAA_NAEAPEAUansi_string@?1??type_case_Z@?$output_processor@DV?$string_output_adapter@D@__crt_stdio_output@@V?$positional_parameter_base@DV?$string_output_adapter@D@__crt_stdio_output@@@2@@1@AEAA_NXZ@@Z 00000001800254d8 f i libucrt:output.obj
 0001:00024620       ??$extract_argument_from_va_list@PEAUansi_string@?1??type_case_Z@?$output_processor@DV?$string_output_adapter@D@__crt_stdio_output@@V?$positional_parameter_base@DV?$string_output_adapter@D@__crt_stdio_output@@@2@@__crt_stdio_output@@AEAA_NXZ@PEAU1?1??234@AEAA_NXZ@@?$standard_base@DV?$string_output_adapter@D@__crt_stdio_output@@@__crt_stdio_output@@IEAA_NAEAPEAUansi_string@?1??type_case_Z@?$output_processor@DV?$string_output_adapter@D@__crt_stdio_output@@V?$positional_parameter_base@DV?$string_output_adapter@D@__crt_stdio_output@@@2@@1@AEAA_NXZ@@Z 0000000180025620 f i libucrt:output.obj
 0001:0002463c       ??$extract_argument_from_va_list@PEAUansi_string@?1??type_case_Z@?$output_processor@DV?$string_output_adapter@D@__crt_stdio_output@@V?$standard_base@DV?$string_output_adapter@D@__crt_stdio_output@@@2@@__crt_stdio_output@@AEAA_NXZ@PEAU1?1??234@AEAA_NXZ@@?$standard_base@DV?$string_output_adapter@D@__crt_stdio_output@@@__crt_stdio_output@@IEAA_NAEAPEAUansi_string@?1??type_case_Z@?$output_processor@DV?$string_output_adapter@D@__crt_stdio_output@@V?$standard_base@DV?$string_output_adapter@D@__crt_stdio_output@@@2@@1@AEAA_NXZ@@Z 000000018002563c f i libucrt:output.obj
 0001:00024658       ??$extract_argument_from_va_list@PEAUansi_string@?1??type_case_Z@?$output_processor@_WV?$stream_output_adapter@_W@__crt_stdio_output@@V?$format_validation_base@_WV?$stream_output_adapter@_W@__crt_stdio_output@@@2@@__crt_stdio_output@@AEAA_NXZ@PEAU1?1??234@AEAA_NXZ@@?$standard_base@_WV?$stream_output_adapter@_W@__crt_stdio_output@@@__crt_stdio_output@@IEAA_NAEAPEAUansi_string@?1??type_case_Z@?$output_processor@_WV?$stream_output_adapter@_W@__crt_stdio_output@@V?$format_validation_base@_WV?$stream_output_adapter@_W@__crt_stdio_output@@@2@@1@AEAA_NXZ@@Z 0000000180025658 f i libucrt:output.obj
 0001:00024674       ??$extract_argument_from_va_list@PEAUansi_string@?1??type_case_Z@?$output_processor@_WV?$stream_output_adapter@_W@__crt_stdio_output@@V?$positional_parameter_base@_WV?$stream_output_adapter@_W@__crt_stdio_output@@@2@@__crt_stdio_output@@AEAA_NXZ@PEAU1?1??234@AEAA_NXZ@@?$positional_parameter_base@_WV?$stream_output_adapter@_W@__crt_stdio_output@@@__crt_stdio_output@@IEAA_NAEAPEAUansi_string@?1??type_case_Z@?$output_processor@_WV?$stream_output_adapter@_W@__crt_stdio_output@@V?$positional_parameter_base@_WV?$stream_output_adapter@_W@__crt_stdio_output@@@2@@1@AEAA_NXZ@@Z 0000000180025674 f i libucrt:output.obj
 0001:000247c0       ??$extract_argument_from_va_list@PEAUansi_string@?1??type_case_Z@?$output_processor@_WV?$stream_output_adapter@_W@__crt_stdio_output@@V?$positional_parameter_base@_WV?$stream_output_adapter@_W@__crt_stdio_output@@@2@@__crt_stdio_output@@AEAA_NXZ@PEAU1?1??234@AEAA_NXZ@@?$standard_base@_WV?$stream_output_adapter@_W@__crt_stdio_output@@@__crt_stdio_output@@IEAA_NAEAPEAUansi_string@?1??type_case_Z@?$output_processor@_WV?$stream_output_adapter@_W@__crt_stdio_output@@V?$positional_parameter_base@_WV?$stream_output_adapter@_W@__crt_stdio_output@@@2@@1@AEAA_NXZ@@Z 00000001800257c0 f i libucrt:output.obj
 0001:000247dc       ??$extract_argument_from_va_list@PEAUansi_string@?1??type_case_Z@?$output_processor@_WV?$stream_output_adapter@_W@__crt_stdio_output@@V?$standard_base@_WV?$stream_output_adapter@_W@__crt_stdio_output@@@2@@__crt_stdio_output@@AEAA_NXZ@PEAU1?1??234@AEAA_NXZ@@?$standard_base@_WV?$stream_output_adapter@_W@__crt_stdio_output@@@__crt_stdio_output@@IEAA_NAEAPEAUansi_string@?1??type_case_Z@?$output_processor@_WV?$stream_output_adapter@_W@__crt_stdio_output@@V?$standard_base@_WV?$stream_output_adapter@_W@__crt_stdio_output@@@2@@1@AEAA_NXZ@@Z 00000001800257dc f i libucrt:output.obj
 0001:000247f8       ??$extract_argument_from_va_list@PEAUansi_string@?1??type_case_Z@?$output_processor@_WV?$string_output_adapter@_W@__crt_stdio_output@@V?$format_validation_base@_WV?$string_output_adapter@_W@__crt_stdio_output@@@2@@__crt_stdio_output@@AEAA_NXZ@PEAU1?1??234@AEAA_NXZ@@?$standard_base@_WV?$string_output_adapter@_W@__crt_stdio_output@@@__crt_stdio_output@@IEAA_NAEAPEAUansi_string@?1??type_case_Z@?$output_processor@_WV?$string_output_adapter@_W@__crt_stdio_output@@V?$format_validation_base@_WV?$string_output_adapter@_W@__crt_stdio_output@@@2@@1@AEAA_NXZ@@Z 00000001800257f8 f i libucrt:output.obj
 0001:00024814       ??$extract_argument_from_va_list@PEAUansi_string@?1??type_case_Z@?$output_processor@_WV?$string_output_adapter@_W@__crt_stdio_output@@V?$positional_parameter_base@_WV?$string_output_adapter@_W@__crt_stdio_output@@@2@@__crt_stdio_output@@AEAA_NXZ@PEAU1?1??234@AEAA_NXZ@@?$positional_parameter_base@_WV?$string_output_adapter@_W@__crt_stdio_output@@@__crt_stdio_output@@IEAA_NAEAPEAUansi_string@?1??type_case_Z@?$output_processor@_WV?$string_output_adapter@_W@__crt_stdio_output@@V?$positional_parameter_base@_WV?$string_output_adapter@_W@__crt_stdio_output@@@2@@1@AEAA_NXZ@@Z 0000000180025814 f i libucrt:output.obj
 0001:00024960       ??$extract_argument_from_va_list@PEAUansi_string@?1??type_case_Z@?$output_processor@_WV?$string_output_adapter@_W@__crt_stdio_output@@V?$positional_parameter_base@_WV?$string_output_adapter@_W@__crt_stdio_output@@@2@@__crt_stdio_output@@AEAA_NXZ@PEAU1?1??234@AEAA_NXZ@@?$standard_base@_WV?$string_output_adapter@_W@__crt_stdio_output@@@__crt_stdio_output@@IEAA_NAEAPEAUansi_string@?1??type_case_Z@?$output_processor@_WV?$string_output_adapter@_W@__crt_stdio_output@@V?$positional_parameter_base@_WV?$string_output_adapter@_W@__crt_stdio_output@@@2@@1@AEAA_NXZ@@Z 0000000180025960 f i libucrt:output.obj
 0001:0002497c       ??$extract_argument_from_va_list@PEAUansi_string@?1??type_case_Z@?$output_processor@_WV?$string_output_adapter@_W@__crt_stdio_output@@V?$standard_base@_WV?$string_output_adapter@_W@__crt_stdio_output@@@2@@__crt_stdio_output@@AEAA_NXZ@PEAU1?1??234@AEAA_NXZ@@?$standard_base@_WV?$string_output_adapter@_W@__crt_stdio_output@@@__crt_stdio_output@@IEAA_NAEAPEAUansi_string@?1??type_case_Z@?$output_processor@_WV?$string_output_adapter@_W@__crt_stdio_output@@V?$standard_base@_WV?$string_output_adapter@_W@__crt_stdio_output@@@2@@1@AEAA_NXZ@@Z 000000018002597c f i libucrt:output.obj
 0001:00024998       ??$extract_argument_from_va_list@PEAXPEAX@?$positional_parameter_base@DV?$stream_output_adapter@D@__crt_stdio_output@@@__crt_stdio_output@@IEAA_NAEAPEAX@Z 0000000180025998 f i libucrt:output.obj
 0001:00024ae0       ??$extract_argument_from_va_list@PEAXPEAX@?$positional_parameter_base@DV?$string_output_adapter@D@__crt_stdio_output@@@__crt_stdio_output@@IEAA_NAEAPEAX@Z 0000000180025ae0 f i libucrt:output.obj
 0001:00024c28       ??$extract_argument_from_va_list@PEAXPEAX@?$positional_parameter_base@_WV?$stream_output_adapter@_W@__crt_stdio_output@@@__crt_stdio_output@@IEAA_NAEAPEAX@Z 0000000180025c28 f i libucrt:output.obj
 0001:00024d74       ??$extract_argument_from_va_list@PEAXPEAX@?$positional_parameter_base@_WV?$string_output_adapter@_W@__crt_stdio_output@@@__crt_stdio_output@@IEAA_NAEAPEAX@Z 0000000180025d74 f i libucrt:output.obj
 0001:00024ec0       ??$extract_argument_from_va_list@PEAXPEAX@?$standard_base@DV?$stream_output_adapter@D@__crt_stdio_output@@@__crt_stdio_output@@IEAA_NAEAPEAX@Z 0000000180025ec0 f i libucrt:output.obj
 0001:00024edc       ??$extract_argument_from_va_list@PEAXPEAX@?$standard_base@DV?$string_output_adapter@D@__crt_stdio_output@@@__crt_stdio_output@@IEAA_NAEAPEAX@Z 0000000180025edc f i libucrt:output.obj
 0001:00024ef8       ??$extract_argument_from_va_list@PEAXPEAX@?$standard_base@_WV?$stream_output_adapter@_W@__crt_stdio_output@@@__crt_stdio_output@@IEAA_NAEAPEAX@Z 0000000180025ef8 f i libucrt:output.obj
 0001:00024f14       ??$extract_argument_from_va_list@PEAXPEAX@?$standard_base@_WV?$string_output_adapter@_W@__crt_stdio_output@@@__crt_stdio_output@@IEAA_NAEAPEAX@Z 0000000180025f14 f i libucrt:output.obj
 0001:00024f30       ??$extract_argument_from_va_list@U_CRT_DOUBLE@@U1@@?$positional_parameter_base@DV?$stream_output_adapter@D@__crt_stdio_output@@@__crt_stdio_output@@IEAA_NAEAU_CRT_DOUBLE@@@Z 0000000180025f30 f i libucrt:output.obj
 0001:0002507c       ??$extract_argument_from_va_list@U_CRT_DOUBLE@@U1@@?$positional_parameter_base@DV?$string_output_adapter@D@__crt_stdio_output@@@__crt_stdio_output@@IEAA_NAEAU_CRT_DOUBLE@@@Z 000000018002607c f i libucrt:output.obj
 0001:000251c8       ??$extract_argument_from_va_list@U_CRT_DOUBLE@@U1@@?$positional_parameter_base@_WV?$stream_output_adapter@_W@__crt_stdio_output@@@__crt_stdio_output@@IEAA_NAEAU_CRT_DOUBLE@@@Z 00000001800261c8 f i libucrt:output.obj
 0001:00025314       ??$extract_argument_from_va_list@U_CRT_DOUBLE@@U1@@?$positional_parameter_base@_WV?$string_output_adapter@_W@__crt_stdio_output@@@__crt_stdio_output@@IEAA_NAEAU_CRT_DOUBLE@@@Z 0000000180026314 f i libucrt:output.obj
 0001:00025460       ??$extract_argument_from_va_list@U_CRT_DOUBLE@@U1@@?$standard_base@DV?$stream_output_adapter@D@__crt_stdio_output@@@__crt_stdio_output@@IEAA_NAEAU_CRT_DOUBLE@@@Z 0000000180026460 f i libucrt:output.obj
 0001:00025480       ??$extract_argument_from_va_list@U_CRT_DOUBLE@@U1@@?$standard_base@DV?$string_output_adapter@D@__crt_stdio_output@@@__crt_stdio_output@@IEAA_NAEAU_CRT_DOUBLE@@@Z 0000000180026480 f i libucrt:output.obj
 0001:000254a0       ??$extract_argument_from_va_list@U_CRT_DOUBLE@@U1@@?$standard_base@_WV?$stream_output_adapter@_W@__crt_stdio_output@@@__crt_stdio_output@@IEAA_NAEAU_CRT_DOUBLE@@@Z 00000001800264a0 f i libucrt:output.obj
 0001:000254c0       ??$extract_argument_from_va_list@U_CRT_DOUBLE@@U1@@?$standard_base@_WV?$string_output_adapter@_W@__crt_stdio_output@@@__crt_stdio_output@@IEAA_NAEAU_CRT_DOUBLE@@@Z 00000001800264c0 f i libucrt:output.obj
 0001:000254e0       ??$extract_argument_from_va_list@_J_J@?$positional_parameter_base@DV?$stream_output_adapter@D@__crt_stdio_output@@@__crt_stdio_output@@IEAA_NAEA_J@Z 00000001800264e0 f i libucrt:output.obj
 0001:00025628       ??$extract_argument_from_va_list@_J_J@?$positional_parameter_base@DV?$string_output_adapter@D@__crt_stdio_output@@@__crt_stdio_output@@IEAA_NAEA_J@Z 0000000180026628 f i libucrt:output.obj
 0001:00025770       ??$extract_argument_from_va_list@_J_J@?$positional_parameter_base@_WV?$stream_output_adapter@_W@__crt_stdio_output@@@__crt_stdio_output@@IEAA_NAEA_J@Z 0000000180026770 f i libucrt:output.obj
 0001:000258bc       ??$extract_argument_from_va_list@_J_J@?$positional_parameter_base@_WV?$string_output_adapter@_W@__crt_stdio_output@@@__crt_stdio_output@@IEAA_NAEA_J@Z 00000001800268bc f i libucrt:output.obj
 0001:00025a08       ??$extract_argument_from_va_list@_J_J@?$standard_base@DV?$stream_output_adapter@D@__crt_stdio_output@@@__crt_stdio_output@@IEAA_NAEA_J@Z 0000000180026a08 f i libucrt:output.obj
 0001:00025a24       ??$extract_argument_from_va_list@_J_J@?$standard_base@DV?$string_output_adapter@D@__crt_stdio_output@@@__crt_stdio_output@@IEAA_NAEA_J@Z 0000000180026a24 f i libucrt:output.obj
 0001:00025a40       ??$extract_argument_from_va_list@_J_J@?$standard_base@_WV?$stream_output_adapter@_W@__crt_stdio_output@@@__crt_stdio_output@@IEAA_NAEA_J@Z 0000000180026a40 f i libucrt:output.obj
 0001:00025a5c       ??$extract_argument_from_va_list@_J_J@?$standard_base@_WV?$string_output_adapter@_W@__crt_stdio_output@@@__crt_stdio_output@@IEAA_NAEA_J@Z 0000000180026a5c f i libucrt:output.obj
 0001:00025a78       ??$extract_argument_from_va_list@_K_J@?$positional_parameter_base@DV?$stream_output_adapter@D@__crt_stdio_output@@@__crt_stdio_output@@IEAA_NAEA_J@Z 0000000180026a78 f i libucrt:output.obj
 0001:00025bc0       ??$extract_argument_from_va_list@_K_J@?$positional_parameter_base@DV?$string_output_adapter@D@__crt_stdio_output@@@__crt_stdio_output@@IEAA_NAEA_J@Z 0000000180026bc0 f i libucrt:output.obj
 0001:00025d08       ??$extract_argument_from_va_list@_K_J@?$positional_parameter_base@_WV?$stream_output_adapter@_W@__crt_stdio_output@@@__crt_stdio_output@@IEAA_NAEA_J@Z 0000000180026d08 f i libucrt:output.obj
 0001:00025e54       ??$extract_argument_from_va_list@_K_J@?$positional_parameter_base@_WV?$string_output_adapter@_W@__crt_stdio_output@@@__crt_stdio_output@@IEAA_NAEA_J@Z 0000000180026e54 f i libucrt:output.obj
 0001:00025fa0       ??$extract_argument_from_va_list@_K_J@?$standard_base@DV?$stream_output_adapter@D@__crt_stdio_output@@@__crt_stdio_output@@IEAA_NAEA_J@Z 0000000180026fa0 f i libucrt:output.obj
 0001:00025fbc       ??$extract_argument_from_va_list@_K_J@?$standard_base@DV?$string_output_adapter@D@__crt_stdio_output@@@__crt_stdio_output@@IEAA_NAEA_J@Z 0000000180026fbc f i libucrt:output.obj
 0001:00025fd8       ??$extract_argument_from_va_list@_K_J@?$standard_base@_WV?$stream_output_adapter@_W@__crt_stdio_output@@@__crt_stdio_output@@IEAA_NAEA_J@Z 0000000180026fd8 f i libucrt:output.obj
 0001:00025ff4       ??$extract_argument_from_va_list@_K_J@?$standard_base@_WV?$string_output_adapter@_W@__crt_stdio_output@@@__crt_stdio_output@@IEAA_NAEA_J@Z 0000000180026ff4 f i libucrt:output.obj
 0001:00026010       ??$extract_argument_from_va_list@_W_W@?$positional_parameter_base@DV?$stream_output_adapter@D@__crt_stdio_output@@@__crt_stdio_output@@IEAA_NAEA_W@Z 0000000180027010 f i libucrt:output.obj
 0001:0002615c       ??$extract_argument_from_va_list@_W_W@?$positional_parameter_base@DV?$string_output_adapter@D@__crt_stdio_output@@@__crt_stdio_output@@IEAA_NAEA_W@Z 000000018002715c f i libucrt:output.obj
 0001:000262a8       ??$extract_argument_from_va_list@_W_W@?$positional_parameter_base@_WV?$stream_output_adapter@_W@__crt_stdio_output@@@__crt_stdio_output@@IEAA_NAEA_W@Z 00000001800272a8 f i libucrt:output.obj
 0001:000263f4       ??$extract_argument_from_va_list@_W_W@?$positional_parameter_base@_WV?$string_output_adapter@_W@__crt_stdio_output@@@__crt_stdio_output@@IEAA_NAEA_W@Z 00000001800273f4 f i libucrt:output.obj
 0001:00026540       ??$extract_argument_from_va_list@_W_W@?$standard_base@DV?$stream_output_adapter@D@__crt_stdio_output@@@__crt_stdio_output@@IEAA_NAEA_W@Z 0000000180027540 f i libucrt:output.obj
 0001:0002655c       ??$extract_argument_from_va_list@_W_W@?$standard_base@DV?$string_output_adapter@D@__crt_stdio_output@@@__crt_stdio_output@@IEAA_NAEA_W@Z 000000018002755c f i libucrt:output.obj
 0001:00026578       ??$extract_argument_from_va_list@_W_W@?$standard_base@_WV?$stream_output_adapter@_W@__crt_stdio_output@@@__crt_stdio_output@@IEAA_NAEA_W@Z 0000000180027578 f i libucrt:output.obj
 0001:00026594       ??$extract_argument_from_va_list@_W_W@?$standard_base@_WV?$string_output_adapter@_W@__crt_stdio_output@@@__crt_stdio_output@@IEAA_NAEA_W@Z 0000000180027594 f i libucrt:output.obj
 0001:000265b0       ??$get_parameter_type@D@?$positional_parameter_base@DV?$stream_output_adapter@D@__crt_stdio_output@@@__crt_stdio_output@@CA?AW4parameter_type@01@PEAD@Z 00000001800275b0 f i libucrt:output.obj
 0001:000265b8       ??$get_parameter_type@D@?$positional_parameter_base@DV?$string_output_adapter@D@__crt_stdio_output@@@__crt_stdio_output@@CA?AW4parameter_type@01@PEAD@Z 00000001800275b8 f i libucrt:output.obj
 0001:000265c0       ??$get_parameter_type@D@?$positional_parameter_base@_WV?$stream_output_adapter@_W@__crt_stdio_output@@@__crt_stdio_output@@CA?AW4parameter_type@01@PEAD@Z 00000001800275c0 f i libucrt:output.obj
 0001:000265c8       ??$get_parameter_type@D@?$positional_parameter_base@_WV?$string_output_adapter@_W@__crt_stdio_output@@@__crt_stdio_output@@CA?AW4parameter_type@01@PEAD@Z 00000001800275c8 f i libucrt:output.obj
 0001:000265d0       ??$get_parameter_type@Uansi_string@?1??type_case_Z@?$output_processor@DV?$stream_output_adapter@D@__crt_stdio_output@@V?$positional_parameter_base@DV?$stream_output_adapter@D@__crt_stdio_output@@@2@@__crt_stdio_output@@AEAA_NXZ@@?$positional_parameter_base@DV?$stream_output_adapter@D@__crt_stdio_output@@@__crt_stdio_output@@CA?AW4parameter_type@01@PEAUansi_string@?1??type_case_Z@?$output_processor@DV?$stream_output_adapter@D@__crt_stdio_output@@V?$positional_parameter_base@DV?$stream_output_adapter@D@__crt_stdio_output@@@2@@1@AEAA_NXZ@@Z 00000001800275d0 f i libucrt:output.obj
 0001:000265d8       ??$get_parameter_type@Uansi_string@?1??type_case_Z@?$output_processor@DV?$string_output_adapter@D@__crt_stdio_output@@V?$positional_parameter_base@DV?$string_output_adapter@D@__crt_stdio_output@@@2@@__crt_stdio_output@@AEAA_NXZ@@?$positional_parameter_base@DV?$string_output_adapter@D@__crt_stdio_output@@@__crt_stdio_output@@CA?AW4parameter_type@01@PEAUansi_string@?1??type_case_Z@?$output_processor@DV?$string_output_adapter@D@__crt_stdio_output@@V?$positional_parameter_base@DV?$string_output_adapter@D@__crt_stdio_output@@@2@@1@AEAA_NXZ@@Z 00000001800275d8 f i libucrt:output.obj
 0001:000265e0       ??$get_parameter_type@Uansi_string@?1??type_case_Z@?$output_processor@_WV?$stream_output_adapter@_W@__crt_stdio_output@@V?$positional_parameter_base@_WV?$stream_output_adapter@_W@__crt_stdio_output@@@2@@__crt_stdio_output@@AEAA_NXZ@@?$positional_parameter_base@_WV?$stream_output_adapter@_W@__crt_stdio_output@@@__crt_stdio_output@@CA?AW4parameter_type@01@PEAUansi_string@?1??type_case_Z@?$output_processor@_WV?$stream_output_adapter@_W@__crt_stdio_output@@V?$positional_parameter_base@_WV?$stream_output_adapter@_W@__crt_stdio_output@@@2@@1@AEAA_NXZ@@Z 00000001800275e0 f i libucrt:output.obj
 0001:000265e8       ??$get_parameter_type@Uansi_string@?1??type_case_Z@?$output_processor@_WV?$string_output_adapter@_W@__crt_stdio_output@@V?$positional_parameter_base@_WV?$string_output_adapter@_W@__crt_stdio_output@@@2@@__crt_stdio_output@@AEAA_NXZ@@?$positional_parameter_base@_WV?$string_output_adapter@_W@__crt_stdio_output@@@__crt_stdio_output@@CA?AW4parameter_type@01@PEAUansi_string@?1??type_case_Z@?$output_processor@_WV?$string_output_adapter@_W@__crt_stdio_output@@V?$positional_parameter_base@_WV?$string_output_adapter@_W@__crt_stdio_output@@@2@@1@AEAA_NXZ@@Z 00000001800275e8 f i libucrt:output.obj
 0001:000265f0       ??$get_parameter_type@X@?$positional_parameter_base@DV?$stream_output_adapter@D@__crt_stdio_output@@@__crt_stdio_output@@CA?AW4parameter_type@01@PEAX@Z 00000001800275f0 f i libucrt:output.obj
 0001:000265f8       ??$get_parameter_type@X@?$positional_parameter_base@DV?$string_output_adapter@D@__crt_stdio_output@@@__crt_stdio_output@@CA?AW4parameter_type@01@PEAX@Z 00000001800275f8 f i libucrt:output.obj
 0001:00026600       ??$get_parameter_type@X@?$positional_parameter_base@_WV?$stream_output_adapter@_W@__crt_stdio_output@@@__crt_stdio_output@@CA?AW4parameter_type@01@PEAX@Z 0000000180027600 f i libucrt:output.obj
 0001:00026608       ??$get_parameter_type@X@?$positional_parameter_base@_WV?$string_output_adapter@_W@__crt_stdio_output@@@__crt_stdio_output@@CA?AW4parameter_type@01@PEAX@Z 0000000180027608 f i libucrt:output.obj
 0001:00026610       ??$is_character_specifier@D@?$positional_parameter_base@DV?$stream_output_adapter@D@__crt_stdio_output@@@__crt_stdio_output@@CA_ND@Z 0000000180027610 f i libucrt:output.obj
 0001:0002661c       ??$is_character_specifier@D@?$positional_parameter_base@DV?$string_output_adapter@D@__crt_stdio_output@@@__crt_stdio_output@@CA_ND@Z 000000018002761c f i libucrt:output.obj
 0001:00026628       ??$is_character_specifier@_W@?$positional_parameter_base@_WV?$stream_output_adapter@_W@__crt_stdio_output@@@__crt_stdio_output@@CA_N_W@Z 0000000180027628 f i libucrt:output.obj
 0001:0002663c       ??$is_character_specifier@_W@?$positional_parameter_base@_WV?$string_output_adapter@_W@__crt_stdio_output@@@__crt_stdio_output@@CA_N_W@Z 000000018002763c f i libucrt:output.obj
 0001:00026650       ??$is_integral_specifier@D@?$positional_parameter_base@DV?$stream_output_adapter@D@__crt_stdio_output@@@__crt_stdio_output@@CA_ND@Z 0000000180027650 f i libucrt:output.obj
 0001:0002667c       ??$is_integral_specifier@D@?$positional_parameter_base@DV?$string_output_adapter@D@__crt_stdio_output@@@__crt_stdio_output@@CA_ND@Z 000000018002767c f i libucrt:output.obj
 0001:000266a8       ??$is_integral_specifier@_W@?$positional_parameter_base@_WV?$stream_output_adapter@_W@__crt_stdio_output@@@__crt_stdio_output@@CA_N_W@Z 00000001800276a8 f i libucrt:output.obj
 0001:000266d8       ??$is_integral_specifier@_W@?$positional_parameter_base@_WV?$string_output_adapter@_W@__crt_stdio_output@@@__crt_stdio_output@@CA_N_W@Z 00000001800276d8 f i libucrt:output.obj
 0001:00026708       ??$is_overflow_condition@K@__crt_strtox@@YA_NIK@Z 0000000180027708 f i libucrt:output.obj
 0001:00026738       ??$is_pointer_specifier@D@?$positional_parameter_base@DV?$stream_output_adapter@D@__crt_stdio_output@@@__crt_stdio_output@@CA_ND@Z 0000000180027738 f i libucrt:output.obj
 0001:00026740       ??$is_pointer_specifier@D@?$positional_parameter_base@DV?$string_output_adapter@D@__crt_stdio_output@@@__crt_stdio_output@@CA_ND@Z 0000000180027740 f i libucrt:output.obj
 0001:00026748       ??$is_pointer_specifier@_W@?$positional_parameter_base@_WV?$stream_output_adapter@_W@__crt_stdio_output@@@__crt_stdio_output@@CA_N_W@Z 0000000180027748 f i libucrt:output.obj
 0001:00026754       ??$is_pointer_specifier@_W@?$positional_parameter_base@_WV?$string_output_adapter@_W@__crt_stdio_output@@@__crt_stdio_output@@CA_N_W@Z 0000000180027754 f i libucrt:output.obj
 0001:00026760       ??$is_string_specifier@D@?$positional_parameter_base@DV?$stream_output_adapter@D@__crt_stdio_output@@@__crt_stdio_output@@CA_ND@Z 0000000180027760 f i libucrt:output.obj
 0001:0002676c       ??$is_string_specifier@D@?$positional_parameter_base@DV?$string_output_adapter@D@__crt_stdio_output@@@__crt_stdio_output@@CA_ND@Z 000000018002776c f i libucrt:output.obj
 0001:00026778       ??$is_string_specifier@_W@?$positional_parameter_base@_WV?$stream_output_adapter@_W@__crt_stdio_output@@@__crt_stdio_output@@CA_N_W@Z 0000000180027778 f i libucrt:output.obj
 0001:0002678c       ??$is_string_specifier@_W@?$positional_parameter_base@_WV?$string_output_adapter@_W@__crt_stdio_output@@@__crt_stdio_output@@CA_N_W@Z 000000018002778c f i libucrt:output.obj
 0001:000267a0       ??$is_wide_character_specifier@D@__crt_stdio_output@@YA_N_KDW4length_modifier@0@@Z 00000001800277a0 f i libucrt:output.obj
 0001:000267d4       ??$is_wide_character_specifier@_W@__crt_stdio_output@@YA_N_K_WW4length_modifier@0@@Z 00000001800277d4 f i libucrt:output.obj
 0001:00026824       ??$make_c_string_character_source@DPEAPEAD@__crt_strtox@@YA?AV?$c_string_character_source@D@0@QEBDQEAPEAD@Z 0000000180027824 f i libucrt:output.obj
 0001:0002683c       ??$make_c_string_character_source@_WPEAPEA_W@__crt_strtox@@YA?AV?$c_string_character_source@_W@0@QEB_WQEAPEA_W@Z 000000018002783c f i libucrt:output.obj
 0001:00026854       ??$parse_integer@KV?$c_string_character_source@D@__crt_strtox@@$0A@@__crt_strtox@@YAKAEAV__crt_cached_ptd_host@@V?$c_string_character_source@D@0@H_N@Z 0000000180027854 f i libucrt:output.obj
 0001:00026bb4       ??$parse_integer@KV?$c_string_character_source@_W@__crt_strtox@@$0A@@__crt_strtox@@YAKAEAV__crt_cached_ptd_host@@V?$c_string_character_source@_W@0@H_N@Z 0000000180027bb4 f i libucrt:output.obj
 0001:00027508       ??$peek_va_arg@C@__crt_stdio_output@@YACPEAD@Z 0000000180028508 f i libucrt:output.obj
 0001:0002750c       ??$peek_va_arg@E@__crt_stdio_output@@YAEPEAD@Z 000000018002850c f i libucrt:output.obj
 0001:00027510       ??$peek_va_arg@F@__crt_stdio_output@@YAFPEAD@Z 0000000180028510 f i libucrt:output.obj
 0001:00027514       ??$peek_va_arg@G@__crt_stdio_output@@YAGPEAD@Z 0000000180028514 f i libucrt:output.obj
 0001:00027518       ??$peek_va_arg@H@__crt_stdio_output@@YAHPEAD@Z 0000000180028518 f i libucrt:output.obj
 0001:0002751c       ??$peek_va_arg@I@__crt_stdio_output@@YAIPEAD@Z 000000018002851c f i libucrt:output.obj
 0001:00027520       ??$peek_va_arg@PEAD@__crt_stdio_output@@YAPEADPEAD@Z 0000000180028520 f i libucrt:output.obj
 0001:00027524       ??$peek_va_arg@PEAUansi_string@?1??type_case_Z@?$output_processor@DV?$stream_output_adapter@D@__crt_stdio_output@@V?$positional_parameter_base@DV?$stream_output_adapter@D@__crt_stdio_output@@@2@@__crt_stdio_output@@AEAA_NXZ@@__crt_stdio_output@@YAPEAUansi_string@?1??type_case_Z@?$output_processor@DV?$stream_output_adapter@D@__crt_stdio_output@@V?$positional_parameter_base@DV?$stream_output_adapter@D@__crt_stdio_output@@@2@@0@AEAA_NXZ@PEAD@Z 0000000180028524 f i libucrt:output.obj
 0001:00027528       ??$peek_va_arg@PEAUansi_string@?1??type_case_Z@?$output_processor@DV?$string_output_adapter@D@__crt_stdio_output@@V?$positional_parameter_base@DV?$string_output_adapter@D@__crt_stdio_output@@@2@@__crt_stdio_output@@AEAA_NXZ@@__crt_stdio_output@@YAPEAUansi_string@?1??type_case_Z@?$output_processor@DV?$string_output_adapter@D@__crt_stdio_output@@V?$positional_parameter_base@DV?$string_output_adapter@D@__crt_stdio_output@@@2@@0@AEAA_NXZ@PEAD@Z 0000000180028528 f i libucrt:output.obj
 0001:0002752c       ??$peek_va_arg@PEAUansi_string@?1??type_case_Z@?$output_processor@_WV?$stream_output_adapter@_W@__crt_stdio_output@@V?$positional_parameter_base@_WV?$stream_output_adapter@_W@__crt_stdio_output@@@2@@__crt_stdio_output@@AEAA_NXZ@@__crt_stdio_output@@YAPEAUansi_string@?1??type_case_Z@?$output_processor@_WV?$stream_output_adapter@_W@__crt_stdio_output@@V?$positional_parameter_base@_WV?$stream_output_adapter@_W@__crt_stdio_output@@@2@@0@AEAA_NXZ@PEAD@Z 000000018002852c f i libucrt:output.obj
 0001:00027530       ??$peek_va_arg@PEAUansi_string@?1??type_case_Z@?$output_processor@_WV?$string_output_adapter@_W@__crt_stdio_output@@V?$positional_parameter_base@_WV?$string_output_adapter@_W@__crt_stdio_output@@@2@@__crt_stdio_output@@AEAA_NXZ@@__crt_stdio_output@@YAPEAUansi_string@?1??type_case_Z@?$output_processor@_WV?$string_output_adapter@_W@__crt_stdio_output@@V?$positional_parameter_base@_WV?$string_output_adapter@_W@__crt_stdio_output@@@2@@0@AEAA_NXZ@PEAD@Z 0000000180028530 f i libucrt:output.obj
 0001:00027534       ??$peek_va_arg@PEAX@__crt_stdio_output@@YAPEAXPEAD@Z 0000000180028534 f i libucrt:output.obj
 0001:00027538       ??$peek_va_arg@U_CRT_DOUBLE@@@__crt_stdio_output@@YA?AU_CRT_DOUBLE@@PEAD@Z 0000000180028538 f i libucrt:output.obj
 0001:0002753c       ??$peek_va_arg@_J@__crt_stdio_output@@YA_JPEAD@Z 000000018002853c f i libucrt:output.obj
 0001:00027540       ??$peek_va_arg@_K@__crt_stdio_output@@YA_KPEAD@Z 0000000180028540 f i libucrt:output.obj
 0001:00027544       ??$peek_va_arg@_W@__crt_stdio_output@@YA_WPEAD@Z 0000000180028544 f i libucrt:output.obj
 0001:00027548       ??$puttc_nolock_internal@AEBDPEAU_iobuf@@AEAV__crt_cached_ptd_host@@@?$__crt_char_traits@D@@SAHAEBD$$QEAPEAU_iobuf@@AEAV__crt_cached_ptd_host@@@Z 0000000180028548 f i libucrt:output.obj
 0001:00027558       ??$puttc_nolock_internal@AEB_WPEAU_iobuf@@AEAV__crt_cached_ptd_host@@@?$__crt_char_traits@_W@@SAGAEB_W$$QEAPEAU_iobuf@@AEAV__crt_cached_ptd_host@@@Z 0000000180028558 f i libucrt:output.obj
 0001:00027568       ??$read_va_arg@C@__crt_stdio_output@@YACAEAPEAD@Z 0000000180028568 f i libucrt:output.obj
 0001:00027578       ??$read_va_arg@E@__crt_stdio_output@@YAEAEAPEAD@Z 0000000180028578 f i libucrt:output.obj
 0001:00027588       ??$read_va_arg@F@__crt_stdio_output@@YAFAEAPEAD@Z 0000000180028588 f i libucrt:output.obj
 0001:0002759c       ??$read_va_arg@G@__crt_stdio_output@@YAGAEAPEAD@Z 000000018002859c f i libucrt:output.obj
 0001:000275b0       ??$read_va_arg@H@__crt_stdio_output@@YAHAEAPEAD@Z 00000001800285b0 f i libucrt:output.obj
 0001:000275c0       ??$read_va_arg@I@__crt_stdio_output@@YAIAEAPEAD@Z 00000001800285c0 f i libucrt:output.obj
 0001:000275d0       ??$read_va_arg@PEAD@__crt_stdio_output@@YAPEADAEAPEAD@Z 00000001800285d0 f i libucrt:output.obj
 0001:000275e4       ??$read_va_arg@PEAUansi_string@?1??type_case_Z@?$output_processor@DV?$stream_output_adapter@D@__crt_stdio_output@@V?$format_validation_base@DV?$stream_output_adapter@D@__crt_stdio_output@@@2@@__crt_stdio_output@@AEAA_NXZ@@__crt_stdio_output@@YAPEAUansi_string@?1??type_case_Z@?$output_processor@DV?$stream_output_adapter@D@__crt_stdio_output@@V?$format_validation_base@DV?$stream_output_adapter@D@__crt_stdio_output@@@2@@0@AEAA_NXZ@AEAPEAD@Z 00000001800285e4 f i libucrt:output.obj
 0001:000275f8       ??$read_va_arg@PEAUansi_string@?1??type_case_Z@?$output_processor@DV?$stream_output_adapter@D@__crt_stdio_output@@V?$positional_parameter_base@DV?$stream_output_adapter@D@__crt_stdio_output@@@2@@__crt_stdio_output@@AEAA_NXZ@@__crt_stdio_output@@YAPEAUansi_string@?1??type_case_Z@?$output_processor@DV?$stream_output_adapter@D@__crt_stdio_output@@V?$positional_parameter_base@DV?$stream_output_adapter@D@__crt_stdio_output@@@2@@0@AEAA_NXZ@AEAPEAD@Z 00000001800285f8 f i libucrt:output.obj
 0001:0002760c       ??$read_va_arg@PEAUansi_string@?1??type_case_Z@?$output_processor@DV?$stream_output_adapter@D@__crt_stdio_output@@V?$standard_base@DV?$stream_output_adapter@D@__crt_stdio_output@@@2@@__crt_stdio_output@@AEAA_NXZ@@__crt_stdio_output@@YAPEAUansi_string@?1??type_case_Z@?$output_processor@DV?$stream_output_adapter@D@__crt_stdio_output@@V?$standard_base@DV?$stream_output_adapter@D@__crt_stdio_output@@@2@@0@AEAA_NXZ@AEAPEAD@Z 000000018002860c f i libucrt:output.obj
 0001:00027620       ??$read_va_arg@PEAUansi_string@?1??type_case_Z@?$output_processor@DV?$string_output_adapter@D@__crt_stdio_output@@V?$format_validation_base@DV?$string_output_adapter@D@__crt_stdio_output@@@2@@__crt_stdio_output@@AEAA_NXZ@@__crt_stdio_output@@YAPEAUansi_string@?1??type_case_Z@?$output_processor@DV?$string_output_adapter@D@__crt_stdio_output@@V?$format_validation_base@DV?$string_output_adapter@D@__crt_stdio_output@@@2@@0@AEAA_NXZ@AEAPEAD@Z 0000000180028620 f i libucrt:output.obj
 0001:00027634       ??$read_va_arg@PEAUansi_string@?1??type_case_Z@?$output_processor@DV?$string_output_adapter@D@__crt_stdio_output@@V?$positional_parameter_base@DV?$string_output_adapter@D@__crt_stdio_output@@@2@@__crt_stdio_output@@AEAA_NXZ@@__crt_stdio_output@@YAPEAUansi_string@?1??type_case_Z@?$output_processor@DV?$string_output_adapter@D@__crt_stdio_output@@V?$positional_parameter_base@DV?$string_output_adapter@D@__crt_stdio_output@@@2@@0@AEAA_NXZ@AEAPEAD@Z 0000000180028634 f i libucrt:output.obj
 0001:00027648       ??$read_va_arg@PEAUansi_string@?1??type_case_Z@?$output_processor@DV?$string_output_adapter@D@__crt_stdio_output@@V?$standard_base@DV?$string_output_adapter@D@__crt_stdio_output@@@2@@__crt_stdio_output@@AEAA_NXZ@@__crt_stdio_output@@YAPEAUansi_string@?1??type_case_Z@?$output_processor@DV?$string_output_adapter@D@__crt_stdio_output@@V?$standard_base@DV?$string_output_adapter@D@__crt_stdio_output@@@2@@0@AEAA_NXZ@AEAPEAD@Z 0000000180028648 f i libucrt:output.obj
 0001:0002765c       ??$read_va_arg@PEAUansi_string@?1??type_case_Z@?$output_processor@_WV?$stream_output_adapter@_W@__crt_stdio_output@@V?$format_validation_base@_WV?$stream_output_adapter@_W@__crt_stdio_output@@@2@@__crt_stdio_output@@AEAA_NXZ@@__crt_stdio_output@@YAPEAUansi_string@?1??type_case_Z@?$output_processor@_WV?$stream_output_adapter@_W@__crt_stdio_output@@V?$format_validation_base@_WV?$stream_output_adapter@_W@__crt_stdio_output@@@2@@0@AEAA_NXZ@AEAPEAD@Z 000000018002865c f i libucrt:output.obj
 0001:00027670       ??$read_va_arg@PEAUansi_string@?1??type_case_Z@?$output_processor@_WV?$stream_output_adapter@_W@__crt_stdio_output@@V?$positional_parameter_base@_WV?$stream_output_adapter@_W@__crt_stdio_output@@@2@@__crt_stdio_output@@AEAA_NXZ@@__crt_stdio_output@@YAPEAUansi_string@?1??type_case_Z@?$output_processor@_WV?$stream_output_adapter@_W@__crt_stdio_output@@V?$positional_parameter_base@_WV?$stream_output_adapter@_W@__crt_stdio_output@@@2@@0@AEAA_NXZ@AEAPEAD@Z 0000000180028670 f i libucrt:output.obj
 0001:00027684       ??$read_va_arg@PEAUansi_string@?1??type_case_Z@?$output_processor@_WV?$stream_output_adapter@_W@__crt_stdio_output@@V?$standard_base@_WV?$stream_output_adapter@_W@__crt_stdio_output@@@2@@__crt_stdio_output@@AEAA_NXZ@@__crt_stdio_output@@YAPEAUansi_string@?1??type_case_Z@?$output_processor@_WV?$stream_output_adapter@_W@__crt_stdio_output@@V?$standard_base@_WV?$stream_output_adapter@_W@__crt_stdio_output@@@2@@0@AEAA_NXZ@AEAPEAD@Z 0000000180028684 f i libucrt:output.obj
 0001:00027698       ??$read_va_arg@PEAUansi_string@?1??type_case_Z@?$output_processor@_WV?$string_output_adapter@_W@__crt_stdio_output@@V?$format_validation_base@_WV?$string_output_adapter@_W@__crt_stdio_output@@@2@@__crt_stdio_output@@AEAA_NXZ@@__crt_stdio_output@@YAPEAUansi_string@?1??type_case_Z@?$output_processor@_WV?$string_output_adapter@_W@__crt_stdio_output@@V?$format_validation_base@_WV?$string_output_adapter@_W@__crt_stdio_output@@@2@@0@AEAA_NXZ@AEAPEAD@Z 0000000180028698 f i libucrt:output.obj
 0001:000276ac       ??$read_va_arg@PEAUansi_string@?1??type_case_Z@?$output_processor@_WV?$string_output_adapter@_W@__crt_stdio_output@@V?$positional_parameter_base@_WV?$string_output_adapter@_W@__crt_stdio_output@@@2@@__crt_stdio_output@@AEAA_NXZ@@__crt_stdio_output@@YAPEAUansi_string@?1??type_case_Z@?$output_processor@_WV?$string_output_adapter@_W@__crt_stdio_output@@V?$positional_parameter_base@_WV?$string_output_adapter@_W@__crt_stdio_output@@@2@@0@AEAA_NXZ@AEAPEAD@Z 00000001800286ac f i libucrt:output.obj
 0001:000276c0       ??$read_va_arg@PEAUansi_string@?1??type_case_Z@?$output_processor@_WV?$string_output_adapter@_W@__crt_stdio_output@@V?$standard_base@_WV?$string_output_adapter@_W@__crt_stdio_output@@@2@@__crt_stdio_output@@AEAA_NXZ@@__crt_stdio_output@@YAPEAUansi_string@?1??type_case_Z@?$output_processor@_WV?$string_output_adapter@_W@__crt_stdio_output@@V?$standard_base@_WV?$string_output_adapter@_W@__crt_stdio_output@@@2@@0@AEAA_NXZ@AEAPEAD@Z 00000001800286c0 f i libucrt:output.obj
 0001:000276d4       ??$read_va_arg@PEAX@__crt_stdio_output@@YAPEAXAEAPEAD@Z 00000001800286d4 f i libucrt:output.obj
 0001:000276e8       ??$read_va_arg@U_CRT_DOUBLE@@@__crt_stdio_output@@YA?AU_CRT_DOUBLE@@AEAPEAD@Z 00000001800286e8 f i libucrt:output.obj
 0001:000276fc       ??$read_va_arg@_J@__crt_stdio_output@@YA_JAEAPEAD@Z 00000001800286fc f i libucrt:output.obj
 0001:00027710       ??$read_va_arg@_K@__crt_stdio_output@@YA_KAEAPEAD@Z 0000000180028710 f i libucrt:output.obj
 0001:00027724       ??$read_va_arg@_W@__crt_stdio_output@@YA_WAEAPEAD@Z 0000000180028724 f i libucrt:output.obj
 0001:00027738       ??$scratch_count@D@formatting_buffer@__crt_stdio_output@@QEBA_KXZ 0000000180028738 f i libucrt:output.obj
 0001:0002775c       ??$scratch_data@D@formatting_buffer@__crt_stdio_output@@QEAAPEADXZ 000000018002875c f i libucrt:output.obj
 0001:00027788       ??$type_case_integer@$07@?$output_processor@DV?$stream_output_adapter@D@__crt_stdio_output@@V?$format_validation_base@DV?$stream_output_adapter@D@__crt_stdio_output@@@2@@__crt_stdio_output@@AEAA_N_N@Z 0000000180028788 f i libucrt:output.obj
 0001:00027a0c       ??$type_case_integer@$07@?$output_processor@DV?$stream_output_adapter@D@__crt_stdio_output@@V?$positional_parameter_base@DV?$stream_output_adapter@D@__crt_stdio_output@@@2@@__crt_stdio_output@@AEAA_N_N@Z 0000000180028a0c f i libucrt:output.obj
 0001:00027cc4       ??$type_case_integer@$07@?$output_processor@DV?$stream_output_adapter@D@__crt_stdio_output@@V?$standard_base@DV?$stream_output_adapter@D@__crt_stdio_output@@@2@@__crt_stdio_output@@AEAA_N_N@Z 0000000180028cc4 f i libucrt:output.obj
 0001:00027f48       ??$type_case_integer@$07@?$output_processor@DV?$string_output_adapter@D@__crt_stdio_output@@V?$format_validation_base@DV?$string_output_adapter@D@__crt_stdio_output@@@2@@__crt_stdio_output@@AEAA_N_N@Z 0000000180028f48 f i libucrt:output.obj
 0001:000281cc       ??$type_case_integer@$07@?$output_processor@DV?$string_output_adapter@D@__crt_stdio_output@@V?$positional_parameter_base@DV?$string_output_adapter@D@__crt_stdio_output@@@2@@__crt_stdio_output@@AEAA_N_N@Z 00000001800291cc f i libucrt:output.obj
 0001:00028484       ??$type_case_integer@$07@?$output_processor@DV?$string_output_adapter@D@__crt_stdio_output@@V?$standard_base@DV?$string_output_adapter@D@__crt_stdio_output@@@2@@__crt_stdio_output@@AEAA_N_N@Z 0000000180029484 f i libucrt:output.obj
 0001:00028708       ??$type_case_integer@$07@?$output_processor@_WV?$stream_output_adapter@_W@__crt_stdio_output@@V?$format_validation_base@_WV?$stream_output_adapter@_W@__crt_stdio_output@@@2@@__crt_stdio_output@@AEAA_N_N@Z 0000000180029708 f i libucrt:output.obj
 0001:00028994       ??$type_case_integer@$07@?$output_processor@_WV?$stream_output_adapter@_W@__crt_stdio_output@@V?$positional_parameter_base@_WV?$stream_output_adapter@_W@__crt_stdio_output@@@2@@__crt_stdio_output@@AEAA_N_N@Z 0000000180029994 f i libucrt:output.obj
 0001:00028c54       ??$type_case_integer@$07@?$output_processor@_WV?$stream_output_adapter@_W@__crt_stdio_output@@V?$standard_base@_WV?$stream_output_adapter@_W@__crt_stdio_output@@@2@@__crt_stdio_output@@AEAA_N_N@Z 0000000180029c54 f i libucrt:output.obj
 0001:00028ee0       ??$type_case_integer@$07@?$output_processor@_WV?$string_output_adapter@_W@__crt_stdio_output@@V?$format_validation_base@_WV?$string_output_adapter@_W@__crt_stdio_output@@@2@@__crt_stdio_output@@AEAA_N_N@Z 0000000180029ee0 f i libucrt:output.obj
 0001:0002916c       ??$type_case_integer@$07@?$output_processor@_WV?$string_output_adapter@_W@__crt_stdio_output@@V?$positional_parameter_base@_WV?$string_output_adapter@_W@__crt_stdio_output@@@2@@__crt_stdio_output@@AEAA_N_N@Z 000000018002a16c f i libucrt:output.obj
 0001:0002942c       ??$type_case_integer@$07@?$output_processor@_WV?$string_output_adapter@_W@__crt_stdio_output@@V?$standard_base@_WV?$string_output_adapter@_W@__crt_stdio_output@@@2@@__crt_stdio_output@@AEAA_N_N@Z 000000018002a42c f i libucrt:output.obj
 0001:000296b8       ??$type_case_integer@$09@?$output_processor@DV?$stream_output_adapter@D@__crt_stdio_output@@V?$format_validation_base@DV?$stream_output_adapter@D@__crt_stdio_output@@@2@@__crt_stdio_output@@AEAA_N_N@Z 000000018002a6b8 f i libucrt:output.obj
 0001:0002993c       ??$type_case_integer@$09@?$output_processor@DV?$stream_output_adapter@D@__crt_stdio_output@@V?$positional_parameter_base@DV?$stream_output_adapter@D@__crt_stdio_output@@@2@@__crt_stdio_output@@AEAA_N_N@Z 000000018002a93c f i libucrt:output.obj
 0001:00029bf4       ??$type_case_integer@$09@?$output_processor@DV?$stream_output_adapter@D@__crt_stdio_output@@V?$standard_base@DV?$stream_output_adapter@D@__crt_stdio_output@@@2@@__crt_stdio_output@@AEAA_N_N@Z 000000018002abf4 f i libucrt:output.obj
 0001:00029e78       ??$type_case_integer@$09@?$output_processor@DV?$string_output_adapter@D@__crt_stdio_output@@V?$format_validation_base@DV?$string_output_adapter@D@__crt_stdio_output@@@2@@__crt_stdio_output@@AEAA_N_N@Z 000000018002ae78 f i libucrt:output.obj
 0001:0002a0fc       ??$type_case_integer@$09@?$output_processor@DV?$string_output_adapter@D@__crt_stdio_output@@V?$positional_parameter_base@DV?$string_output_adapter@D@__crt_stdio_output@@@2@@__crt_stdio_output@@AEAA_N_N@Z 000000018002b0fc f i libucrt:output.obj
 0001:0002a3b4       ??$type_case_integer@$09@?$output_processor@DV?$string_output_adapter@D@__crt_stdio_output@@V?$standard_base@DV?$string_output_adapter@D@__crt_stdio_output@@@2@@__crt_stdio_output@@AEAA_N_N@Z 000000018002b3b4 f i libucrt:output.obj
 0001:0002a638       ??$type_case_integer@$09@?$output_processor@_WV?$stream_output_adapter@_W@__crt_stdio_output@@V?$format_validation_base@_WV?$stream_output_adapter@_W@__crt_stdio_output@@@2@@__crt_stdio_output@@AEAA_N_N@Z 000000018002b638 f i libucrt:output.obj
 0001:0002a8c4       ??$type_case_integer@$09@?$output_processor@_WV?$stream_output_adapter@_W@__crt_stdio_output@@V?$positional_parameter_base@_WV?$stream_output_adapter@_W@__crt_stdio_output@@@2@@__crt_stdio_output@@AEAA_N_N@Z 000000018002b8c4 f i libucrt:output.obj
 0001:0002ab84       ??$type_case_integer@$09@?$output_processor@_WV?$stream_output_adapter@_W@__crt_stdio_output@@V?$standard_base@_WV?$stream_output_adapter@_W@__crt_stdio_output@@@2@@__crt_stdio_output@@AEAA_N_N@Z 000000018002bb84 f i libucrt:output.obj
 0001:0002ae10       ??$type_case_integer@$09@?$output_processor@_WV?$string_output_adapter@_W@__crt_stdio_output@@V?$format_validation_base@_WV?$string_output_adapter@_W@__crt_stdio_output@@@2@@__crt_stdio_output@@AEAA_N_N@Z 000000018002be10 f i libucrt:output.obj
 0001:0002b09c       ??$type_case_integer@$09@?$output_processor@_WV?$string_output_adapter@_W@__crt_stdio_output@@V?$positional_parameter_base@_WV?$string_output_adapter@_W@__crt_stdio_output@@@2@@__crt_stdio_output@@AEAA_N_N@Z 000000018002c09c f i libucrt:output.obj
 0001:0002b35c       ??$type_case_integer@$09@?$output_processor@_WV?$string_output_adapter@_W@__crt_stdio_output@@V?$standard_base@_WV?$string_output_adapter@_W@__crt_stdio_output@@@2@@__crt_stdio_output@@AEAA_N_N@Z 000000018002c35c f i libucrt:output.obj
 0001:0002b5e8       ??$type_case_integer@$0BA@@?$output_processor@DV?$stream_output_adapter@D@__crt_stdio_output@@V?$format_validation_base@DV?$stream_output_adapter@D@__crt_stdio_output@@@2@@__crt_stdio_output@@AEAA_N_N@Z 000000018002c5e8 f i libucrt:output.obj
 0001:0002b86c       ??$type_case_integer@$0BA@@?$output_processor@DV?$stream_output_adapter@D@__crt_stdio_output@@V?$positional_parameter_base@DV?$stream_output_adapter@D@__crt_stdio_output@@@2@@__crt_stdio_output@@AEAA_N_N@Z 000000018002c86c f i libucrt:output.obj
 0001:0002bb24       ??$type_case_integer@$0BA@@?$output_processor@DV?$stream_output_adapter@D@__crt_stdio_output@@V?$standard_base@DV?$stream_output_adapter@D@__crt_stdio_output@@@2@@__crt_stdio_output@@AEAA_N_N@Z 000000018002cb24 f i libucrt:output.obj
 0001:0002bda8       ??$type_case_integer@$0BA@@?$output_processor@DV?$string_output_adapter@D@__crt_stdio_output@@V?$format_validation_base@DV?$string_output_adapter@D@__crt_stdio_output@@@2@@__crt_stdio_output@@AEAA_N_N@Z 000000018002cda8 f i libucrt:output.obj
 0001:0002c02c       ??$type_case_integer@$0BA@@?$output_processor@DV?$string_output_adapter@D@__crt_stdio_output@@V?$positional_parameter_base@DV?$string_output_adapter@D@__crt_stdio_output@@@2@@__crt_stdio_output@@AEAA_N_N@Z 000000018002d02c f i libucrt:output.obj
 0001:0002c2e4       ??$type_case_integer@$0BA@@?$output_processor@DV?$string_output_adapter@D@__crt_stdio_output@@V?$standard_base@DV?$string_output_adapter@D@__crt_stdio_output@@@2@@__crt_stdio_output@@AEAA_N_N@Z 000000018002d2e4 f i libucrt:output.obj
 0001:0002c568       ??$type_case_integer@$0BA@@?$output_processor@_WV?$stream_output_adapter@_W@__crt_stdio_output@@V?$format_validation_base@_WV?$stream_output_adapter@_W@__crt_stdio_output@@@2@@__crt_stdio_output@@AEAA_N_N@Z 000000018002d568 f i libucrt:output.obj
 0001:0002c7f4       ??$type_case_integer@$0BA@@?$output_processor@_WV?$stream_output_adapter@_W@__crt_stdio_output@@V?$positional_parameter_base@_WV?$stream_output_adapter@_W@__crt_stdio_output@@@2@@__crt_stdio_output@@AEAA_N_N@Z 000000018002d7f4 f i libucrt:output.obj
 0001:0002cab4       ??$type_case_integer@$0BA@@?$output_processor@_WV?$stream_output_adapter@_W@__crt_stdio_output@@V?$standard_base@_WV?$stream_output_adapter@_W@__crt_stdio_output@@@2@@__crt_stdio_output@@AEAA_N_N@Z 000000018002dab4 f i libucrt:output.obj
 0001:0002cd40       ??$type_case_integer@$0BA@@?$output_processor@_WV?$string_output_adapter@_W@__crt_stdio_output@@V?$format_validation_base@_WV?$string_output_adapter@_W@__crt_stdio_output@@@2@@__crt_stdio_output@@AEAA_N_N@Z 000000018002dd40 f i libucrt:output.obj
 0001:0002cfcc       ??$type_case_integer@$0BA@@?$output_processor@_WV?$string_output_adapter@_W@__crt_stdio_output@@V?$positional_parameter_base@_WV?$string_output_adapter@_W@__crt_stdio_output@@@2@@__crt_stdio_output@@AEAA_N_N@Z 000000018002dfcc f i libucrt:output.obj
 0001:0002d28c       ??$type_case_integer@$0BA@@?$output_processor@_WV?$string_output_adapter@_W@__crt_stdio_output@@V?$standard_base@_WV?$string_output_adapter@_W@__crt_stdio_output@@@2@@__crt_stdio_output@@AEAA_N_N@Z 000000018002e28c f i libucrt:output.obj
 0001:0002d518       ??$type_case_integer_parse_into_buffer@I$07@?$output_processor@DV?$stream_output_adapter@D@__crt_stdio_output@@V?$format_validation_base@DV?$stream_output_adapter@D@__crt_stdio_output@@@2@@__crt_stdio_output@@AEAAXI_N@Z 000000018002e518 f i libucrt:output.obj
 0001:0002d5a0       ??$type_case_integer_parse_into_buffer@I$07@?$output_processor@DV?$stream_output_adapter@D@__crt_stdio_output@@V?$positional_parameter_base@DV?$stream_output_adapter@D@__crt_stdio_output@@@2@@__crt_stdio_output@@AEAAXI_N@Z 000000018002e5a0 f i libucrt:output.obj
 0001:0002d628       ??$type_case_integer_parse_into_buffer@I$07@?$output_processor@DV?$stream_output_adapter@D@__crt_stdio_output@@V?$standard_base@DV?$stream_output_adapter@D@__crt_stdio_output@@@2@@__crt_stdio_output@@AEAAXI_N@Z 000000018002e628 f i libucrt:output.obj
 0001:0002d6b0       ??$type_case_integer_parse_into_buffer@I$07@?$output_processor@DV?$string_output_adapter@D@__crt_stdio_output@@V?$format_validation_base@DV?$string_output_adapter@D@__crt_stdio_output@@@2@@__crt_stdio_output@@AEAAXI_N@Z 000000018002e6b0 f i libucrt:output.obj
 0001:0002d738       ??$type_case_integer_parse_into_buffer@I$07@?$output_processor@DV?$string_output_adapter@D@__crt_stdio_output@@V?$positional_parameter_base@DV?$string_output_adapter@D@__crt_stdio_output@@@2@@__crt_stdio_output@@AEAAXI_N@Z 000000018002e738 f i libucrt:output.obj
 0001:0002d7c0       ??$type_case_integer_parse_into_buffer@I$07@?$output_processor@DV?$string_output_adapter@D@__crt_stdio_output@@V?$standard_base@DV?$string_output_adapter@D@__crt_stdio_output@@@2@@__crt_stdio_output@@AEAAXI_N@Z 000000018002e7c0 f i libucrt:output.obj
 0001:0002d848       ??$type_case_integer_parse_into_buffer@I$07@?$output_processor@_WV?$stream_output_adapter@_W@__crt_stdio_output@@V?$format_validation_base@_WV?$stream_output_adapter@_W@__crt_stdio_output@@@2@@__crt_stdio_output@@AEAAXI_N@Z 000000018002e848 f i libucrt:output.obj
 0001:0002d8f0       ??$type_case_integer_parse_into_buffer@I$07@?$output_processor@_WV?$stream_output_adapter@_W@__crt_stdio_output@@V?$positional_parameter_base@_WV?$stream_output_adapter@_W@__crt_stdio_output@@@2@@__crt_stdio_output@@AEAAXI_N@Z 000000018002e8f0 f i libucrt:output.obj
 0001:0002d998       ??$type_case_integer_parse_into_buffer@I$07@?$output_processor@_WV?$stream_output_adapter@_W@__crt_stdio_output@@V?$standard_base@_WV?$stream_output_adapter@_W@__crt_stdio_output@@@2@@__crt_stdio_output@@AEAAXI_N@Z 000000018002e998 f i libucrt:output.obj
 0001:0002da40       ??$type_case_integer_parse_into_buffer@I$07@?$output_processor@_WV?$string_output_adapter@_W@__crt_stdio_output@@V?$format_validation_base@_WV?$string_output_adapter@_W@__crt_stdio_output@@@2@@__crt_stdio_output@@AEAAXI_N@Z 000000018002ea40 f i libucrt:output.obj
 0001:0002dae8       ??$type_case_integer_parse_into_buffer@I$07@?$output_processor@_WV?$string_output_adapter@_W@__crt_stdio_output@@V?$positional_parameter_base@_WV?$string_output_adapter@_W@__crt_stdio_output@@@2@@__crt_stdio_output@@AEAAXI_N@Z 000000018002eae8 f i libucrt:output.obj
 0001:0002db90       ??$type_case_integer_parse_into_buffer@I$07@?$output_processor@_WV?$string_output_adapter@_W@__crt_stdio_output@@V?$standard_base@_WV?$string_output_adapter@_W@__crt_stdio_output@@@2@@__crt_stdio_output@@AEAAXI_N@Z 000000018002eb90 f i libucrt:output.obj
 0001:0002dc38       ??$type_case_integer_parse_into_buffer@I$09@?$output_processor@DV?$stream_output_adapter@D@__crt_stdio_output@@V?$format_validation_base@DV?$stream_output_adapter@D@__crt_stdio_output@@@2@@__crt_stdio_output@@AEAAXI_N@Z 000000018002ec38 f i libucrt:output.obj
 0001:0002dd0c       ??$type_case_integer_parse_into_buffer@I$09@?$output_processor@DV?$stream_output_adapter@D@__crt_stdio_output@@V?$positional_parameter_base@DV?$stream_output_adapter@D@__crt_stdio_output@@@2@@__crt_stdio_output@@AEAAXI_N@Z 000000018002ed0c f i libucrt:output.obj
 0001:0002dde0       ??$type_case_integer_parse_into_buffer@I$09@?$output_processor@DV?$stream_output_adapter@D@__crt_stdio_output@@V?$standard_base@DV?$stream_output_adapter@D@__crt_stdio_output@@@2@@__crt_stdio_output@@AEAAXI_N@Z 000000018002ede0 f i libucrt:output.obj
 0001:0002deb4       ??$type_case_integer_parse_into_buffer@I$09@?$output_processor@DV?$string_output_adapter@D@__crt_stdio_output@@V?$format_validation_base@DV?$string_output_adapter@D@__crt_stdio_output@@@2@@__crt_stdio_output@@AEAAXI_N@Z 000000018002eeb4 f i libucrt:output.obj
 0001:0002df88       ??$type_case_integer_parse_into_buffer@I$09@?$output_processor@DV?$string_output_adapter@D@__crt_stdio_output@@V?$positional_parameter_base@DV?$string_output_adapter@D@__crt_stdio_output@@@2@@__crt_stdio_output@@AEAAXI_N@Z 000000018002ef88 f i libucrt:output.obj
 0001:0002e05c       ??$type_case_integer_parse_into_buffer@I$09@?$output_processor@DV?$string_output_adapter@D@__crt_stdio_output@@V?$standard_base@DV?$string_output_adapter@D@__crt_stdio_output@@@2@@__crt_stdio_output@@AEAAXI_N@Z 000000018002f05c f i libucrt:output.obj
 0001:0002e130       ??$type_case_integer_parse_into_buffer@I$09@?$output_processor@_WV?$stream_output_adapter@_W@__crt_stdio_output@@V?$format_validation_base@_WV?$stream_output_adapter@_W@__crt_stdio_output@@@2@@__crt_stdio_output@@AEAAXI_N@Z 000000018002f130 f i libucrt:output.obj
 0001:0002e21c       ??$type_case_integer_parse_into_buffer@I$09@?$output_processor@_WV?$stream_output_adapter@_W@__crt_stdio_output@@V?$positional_parameter_base@_WV?$stream_output_adapter@_W@__crt_stdio_output@@@2@@__crt_stdio_output@@AEAAXI_N@Z 000000018002f21c f i libucrt:output.obj
 0001:0002e308       ??$type_case_integer_parse_into_buffer@I$09@?$output_processor@_WV?$stream_output_adapter@_W@__crt_stdio_output@@V?$standard_base@_WV?$stream_output_adapter@_W@__crt_stdio_output@@@2@@__crt_stdio_output@@AEAAXI_N@Z 000000018002f308 f i libucrt:output.obj
 0001:0002e3f4       ??$type_case_integer_parse_into_buffer@I$09@?$output_processor@_WV?$string_output_adapter@_W@__crt_stdio_output@@V?$format_validation_base@_WV?$string_output_adapter@_W@__crt_stdio_output@@@2@@__crt_stdio_output@@AEAAXI_N@Z 000000018002f3f4 f i libucrt:output.obj
 0001:0002e4e0       ??$type_case_integer_parse_into_buffer@I$09@?$output_processor@_WV?$string_output_adapter@_W@__crt_stdio_output@@V?$positional_parameter_base@_WV?$string_output_adapter@_W@__crt_stdio_output@@@2@@__crt_stdio_output@@AEAAXI_N@Z 000000018002f4e0 f i libucrt:output.obj
 0001:0002e5cc       ??$type_case_integer_parse_into_buffer@I$09@?$output_processor@_WV?$string_output_adapter@_W@__crt_stdio_output@@V?$standard_base@_WV?$string_output_adapter@_W@__crt_stdio_output@@@2@@__crt_stdio_output@@AEAAXI_N@Z 000000018002f5cc f i libucrt:output.obj
 0001:0002e6b8       ??$type_case_integer_parse_into_buffer@I$0BA@@?$output_processor@DV?$stream_output_adapter@D@__crt_stdio_output@@V?$format_validation_base@DV?$stream_output_adapter@D@__crt_stdio_output@@@2@@__crt_stdio_output@@AEAAXI_N@Z 000000018002f6b8 f i libucrt:output.obj
 0001:0002e760       ??$type_case_integer_parse_into_buffer@I$0BA@@?$output_processor@DV?$stream_output_adapter@D@__crt_stdio_output@@V?$positional_parameter_base@DV?$stream_output_adapter@D@__crt_stdio_output@@@2@@__crt_stdio_output@@AEAAXI_N@Z 000000018002f760 f i libucrt:output.obj
 0001:0002e808       ??$type_case_integer_parse_into_buffer@I$0BA@@?$output_processor@DV?$stream_output_adapter@D@__crt_stdio_output@@V?$standard_base@DV?$stream_output_adapter@D@__crt_stdio_output@@@2@@__crt_stdio_output@@AEAAXI_N@Z 000000018002f808 f i libucrt:output.obj
 0001:0002e8b0       ??$type_case_integer_parse_into_buffer@I$0BA@@?$output_processor@DV?$string_output_adapter@D@__crt_stdio_output@@V?$format_validation_base@DV?$string_output_adapter@D@__crt_stdio_output@@@2@@__crt_stdio_output@@AEAAXI_N@Z 000000018002f8b0 f i libucrt:output.obj
 0001:0002e958       ??$type_case_integer_parse_into_buffer@I$0BA@@?$output_processor@DV?$string_output_adapter@D@__crt_stdio_output@@V?$positional_parameter_base@DV?$string_output_adapter@D@__crt_stdio_output@@@2@@__crt_stdio_output@@AEAAXI_N@Z 000000018002f958 f i libucrt:output.obj
 0001:0002ea00       ??$type_case_integer_parse_into_buffer@I$0BA@@?$output_processor@DV?$string_output_adapter@D@__crt_stdio_output@@V?$standard_base@DV?$string_output_adapter@D@__crt_stdio_output@@@2@@__crt_stdio_output@@AEAAXI_N@Z 000000018002fa00 f i libucrt:output.obj
 0001:0002eaa8       ??$type_case_integer_parse_into_buffer@I$0BA@@?$output_processor@_WV?$stream_output_adapter@_W@__crt_stdio_output@@V?$format_validation_base@_WV?$stream_output_adapter@_W@__crt_stdio_output@@@2@@__crt_stdio_output@@AEAAXI_N@Z 000000018002faa8 f i libucrt:output.obj
 0001:0002eb70       ??$type_case_integer_parse_into_buffer@I$0BA@@?$output_processor@_WV?$stream_output_adapter@_W@__crt_stdio_output@@V?$positional_parameter_base@_WV?$stream_output_adapter@_W@__crt_stdio_output@@@2@@__crt_stdio_output@@AEAAXI_N@Z 000000018002fb70 f i libucrt:output.obj
 0001:0002ec38       ??$type_case_integer_parse_into_buffer@I$0BA@@?$output_processor@_WV?$stream_output_adapter@_W@__crt_stdio_output@@V?$standard_base@_WV?$stream_output_adapter@_W@__crt_stdio_output@@@2@@__crt_stdio_output@@AEAAXI_N@Z 000000018002fc38 f i libucrt:output.obj
 0001:0002ed00       ??$type_case_integer_parse_into_buffer@I$0BA@@?$output_processor@_WV?$string_output_adapter@_W@__crt_stdio_output@@V?$format_validation_base@_WV?$string_output_adapter@_W@__crt_stdio_output@@@2@@__crt_stdio_output@@AEAAXI_N@Z 000000018002fd00 f i libucrt:output.obj
 0001:0002edc8       ??$type_case_integer_parse_into_buffer@I$0BA@@?$output_processor@_WV?$string_output_adapter@_W@__crt_stdio_output@@V?$positional_parameter_base@_WV?$string_output_adapter@_W@__crt_stdio_output@@@2@@__crt_stdio_output@@AEAAXI_N@Z 000000018002fdc8 f i libucrt:output.obj
 0001:0002ee90       ??$type_case_integer_parse_into_buffer@I$0BA@@?$output_processor@_WV?$string_output_adapter@_W@__crt_stdio_output@@V?$standard_base@_WV?$string_output_adapter@_W@__crt_stdio_output@@@2@@__crt_stdio_output@@AEAAXI_N@Z 000000018002fe90 f i libucrt:output.obj
 0001:0002ef58       ??$type_case_integer_parse_into_buffer@_K$07@?$output_processor@DV?$stream_output_adapter@D@__crt_stdio_output@@V?$format_validation_base@DV?$stream_output_adapter@D@__crt_stdio_output@@@2@@__crt_stdio_output@@AEAAX_K_N@Z 000000018002ff58 f i libucrt:output.obj
 0001:0002efe0       ??$type_case_integer_parse_into_buffer@_K$07@?$output_processor@DV?$stream_output_adapter@D@__crt_stdio_output@@V?$positional_parameter_base@DV?$stream_output_adapter@D@__crt_stdio_output@@@2@@__crt_stdio_output@@AEAAX_K_N@Z 000000018002ffe0 f i libucrt:output.obj
 0001:0002f068       ??$type_case_integer_parse_into_buffer@_K$07@?$output_processor@DV?$stream_output_adapter@D@__crt_stdio_output@@V?$standard_base@DV?$stream_output_adapter@D@__crt_stdio_output@@@2@@__crt_stdio_output@@AEAAX_K_N@Z 0000000180030068 f i libucrt:output.obj
 0001:0002f0f0       ??$type_case_integer_parse_into_buffer@_K$07@?$output_processor@DV?$string_output_adapter@D@__crt_stdio_output@@V?$format_validation_base@DV?$string_output_adapter@D@__crt_stdio_output@@@2@@__crt_stdio_output@@AEAAX_K_N@Z 00000001800300f0 f i libucrt:output.obj
 0001:0002f178       ??$type_case_integer_parse_into_buffer@_K$07@?$output_processor@DV?$string_output_adapter@D@__crt_stdio_output@@V?$positional_parameter_base@DV?$string_output_adapter@D@__crt_stdio_output@@@2@@__crt_stdio_output@@AEAAX_K_N@Z 0000000180030178 f i libucrt:output.obj
 0001:0002f200       ??$type_case_integer_parse_into_buffer@_K$07@?$output_processor@DV?$string_output_adapter@D@__crt_stdio_output@@V?$standard_base@DV?$string_output_adapter@D@__crt_stdio_output@@@2@@__crt_stdio_output@@AEAAX_K_N@Z 0000000180030200 f i libucrt:output.obj
 0001:0002f288       ??$type_case_integer_parse_into_buffer@_K$07@?$output_processor@_WV?$stream_output_adapter@_W@__crt_stdio_output@@V?$format_validation_base@_WV?$stream_output_adapter@_W@__crt_stdio_output@@@2@@__crt_stdio_output@@AEAAX_K_N@Z 0000000180030288 f i libucrt:output.obj
 0001:0002f330       ??$type_case_integer_parse_into_buffer@_K$07@?$output_processor@_WV?$stream_output_adapter@_W@__crt_stdio_output@@V?$positional_parameter_base@_WV?$stream_output_adapter@_W@__crt_stdio_output@@@2@@__crt_stdio_output@@AEAAX_K_N@Z 0000000180030330 f i libucrt:output.obj
 0001:0002f3d8       ??$type_case_integer_parse_into_buffer@_K$07@?$output_processor@_WV?$stream_output_adapter@_W@__crt_stdio_output@@V?$standard_base@_WV?$stream_output_adapter@_W@__crt_stdio_output@@@2@@__crt_stdio_output@@AEAAX_K_N@Z 00000001800303d8 f i libucrt:output.obj
 0001:0002f480       ??$type_case_integer_parse_into_buffer@_K$07@?$output_processor@_WV?$string_output_adapter@_W@__crt_stdio_output@@V?$format_validation_base@_WV?$string_output_adapter@_W@__crt_stdio_output@@@2@@__crt_stdio_output@@AEAAX_K_N@Z 0000000180030480 f i libucrt:output.obj
 0001:0002f528       ??$type_case_integer_parse_into_buffer@_K$07@?$output_processor@_WV?$string_output_adapter@_W@__crt_stdio_output@@V?$positional_parameter_base@_WV?$string_output_adapter@_W@__crt_stdio_output@@@2@@__crt_stdio_output@@AEAAX_K_N@Z 0000000180030528 f i libucrt:output.obj
 0001:0002f5d0       ??$type_case_integer_parse_into_buffer@_K$07@?$output_processor@_WV?$string_output_adapter@_W@__crt_stdio_output@@V?$standard_base@_WV?$string_output_adapter@_W@__crt_stdio_output@@@2@@__crt_stdio_output@@AEAAX_K_N@Z 00000001800305d0 f i libucrt:output.obj
 0001:0002f678       ??$type_case_integer_parse_into_buffer@_K$09@?$output_processor@DV?$stream_output_adapter@D@__crt_stdio_output@@V?$format_validation_base@DV?$stream_output_adapter@D@__crt_stdio_output@@@2@@__crt_stdio_output@@AEAAX_K_N@Z 0000000180030678 f i libucrt:output.obj
 0001:0002f754       ??$type_case_integer_parse_into_buffer@_K$09@?$output_processor@DV?$stream_output_adapter@D@__crt_stdio_output@@V?$positional_parameter_base@DV?$stream_output_adapter@D@__crt_stdio_output@@@2@@__crt_stdio_output@@AEAAX_K_N@Z 0000000180030754 f i libucrt:output.obj
 0001:0002f830       ??$type_case_integer_parse_into_buffer@_K$09@?$output_processor@DV?$stream_output_adapter@D@__crt_stdio_output@@V?$standard_base@DV?$stream_output_adapter@D@__crt_stdio_output@@@2@@__crt_stdio_output@@AEAAX_K_N@Z 0000000180030830 f i libucrt:output.obj
 0001:0002f90c       ??$type_case_integer_parse_into_buffer@_K$09@?$output_processor@DV?$string_output_adapter@D@__crt_stdio_output@@V?$format_validation_base@DV?$string_output_adapter@D@__crt_stdio_output@@@2@@__crt_stdio_output@@AEAAX_K_N@Z 000000018003090c f i libucrt:output.obj
 0001:0002f9e8       ??$type_case_integer_parse_into_buffer@_K$09@?$output_processor@DV?$string_output_adapter@D@__crt_stdio_output@@V?$positional_parameter_base@DV?$string_output_adapter@D@__crt_stdio_output@@@2@@__crt_stdio_output@@AEAAX_K_N@Z 00000001800309e8 f i libucrt:output.obj
 0001:0002fac4       ??$type_case_integer_parse_into_buffer@_K$09@?$output_processor@DV?$string_output_adapter@D@__crt_stdio_output@@V?$standard_base@DV?$string_output_adapter@D@__crt_stdio_output@@@2@@__crt_stdio_output@@AEAAX_K_N@Z 0000000180030ac4 f i libucrt:output.obj
 0001:0002fba0       ??$type_case_integer_parse_into_buffer@_K$09@?$output_processor@_WV?$stream_output_adapter@_W@__crt_stdio_output@@V?$format_validation_base@_WV?$stream_output_adapter@_W@__crt_stdio_output@@@2@@__crt_stdio_output@@AEAAX_K_N@Z 0000000180030ba0 f i libucrt:output.obj
 0001:0002fc94       ??$type_case_integer_parse_into_buffer@_K$09@?$output_processor@_WV?$stream_output_adapter@_W@__crt_stdio_output@@V?$positional_parameter_base@_WV?$stream_output_adapter@_W@__crt_stdio_output@@@2@@__crt_stdio_output@@AEAAX_K_N@Z 0000000180030c94 f i libucrt:output.obj
 0001:0002fd88       ??$type_case_integer_parse_into_buffer@_K$09@?$output_processor@_WV?$stream_output_adapter@_W@__crt_stdio_output@@V?$standard_base@_WV?$stream_output_adapter@_W@__crt_stdio_output@@@2@@__crt_stdio_output@@AEAAX_K_N@Z 0000000180030d88 f i libucrt:output.obj
 0001:0002fe7c       ??$type_case_integer_parse_into_buffer@_K$09@?$output_processor@_WV?$string_output_adapter@_W@__crt_stdio_output@@V?$format_validation_base@_WV?$string_output_adapter@_W@__crt_stdio_output@@@2@@__crt_stdio_output@@AEAAX_K_N@Z 0000000180030e7c f i libucrt:output.obj
 0001:0002ff70       ??$type_case_integer_parse_into_buffer@_K$09@?$output_processor@_WV?$string_output_adapter@_W@__crt_stdio_output@@V?$positional_parameter_base@_WV?$string_output_adapter@_W@__crt_stdio_output@@@2@@__crt_stdio_output@@AEAAX_K_N@Z 0000000180030f70 f i libucrt:output.obj
 0001:00030064       ??$type_case_integer_parse_into_buffer@_K$09@?$output_processor@_WV?$string_output_adapter@_W@__crt_stdio_output@@V?$standard_base@_WV?$string_output_adapter@_W@__crt_stdio_output@@@2@@__crt_stdio_output@@AEAAX_K_N@Z 0000000180031064 f i libucrt:output.obj
 0001:00030158       ??$type_case_integer_parse_into_buffer@_K$0BA@@?$output_processor@DV?$stream_output_adapter@D@__crt_stdio_output@@V?$format_validation_base@DV?$stream_output_adapter@D@__crt_stdio_output@@@2@@__crt_stdio_output@@AEAAX_K_N@Z 0000000180031158 f i libucrt:output.obj
 0001:00030200       ??$type_case_integer_parse_into_buffer@_K$0BA@@?$output_processor@DV?$stream_output_adapter@D@__crt_stdio_output@@V?$positional_parameter_base@DV?$stream_output_adapter@D@__crt_stdio_output@@@2@@__crt_stdio_output@@AEAAX_K_N@Z 0000000180031200 f i libucrt:output.obj
 0001:000302a8       ??$type_case_integer_parse_into_buffer@_K$0BA@@?$output_processor@DV?$stream_output_adapter@D@__crt_stdio_output@@V?$standard_base@DV?$stream_output_adapter@D@__crt_stdio_output@@@2@@__crt_stdio_output@@AEAAX_K_N@Z 00000001800312a8 f i libucrt:output.obj
 0001:00030350       ??$type_case_integer_parse_into_buffer@_K$0BA@@?$output_processor@DV?$string_output_adapter@D@__crt_stdio_output@@V?$format_validation_base@DV?$string_output_adapter@D@__crt_stdio_output@@@2@@__crt_stdio_output@@AEAAX_K_N@Z 0000000180031350 f i libucrt:output.obj
 0001:000303f8       ??$type_case_integer_parse_into_buffer@_K$0BA@@?$output_processor@DV?$string_output_adapter@D@__crt_stdio_output@@V?$positional_parameter_base@DV?$string_output_adapter@D@__crt_stdio_output@@@2@@__crt_stdio_output@@AEAAX_K_N@Z 00000001800313f8 f i libucrt:output.obj
 0001:000304a0       ??$type_case_integer_parse_into_buffer@_K$0BA@@?$output_processor@DV?$string_output_adapter@D@__crt_stdio_output@@V?$standard_base@DV?$string_output_adapter@D@__crt_stdio_output@@@2@@__crt_stdio_output@@AEAAX_K_N@Z 00000001800314a0 f i libucrt:output.obj
 0001:00030548       ??$type_case_integer_parse_into_buffer@_K$0BA@@?$output_processor@_WV?$stream_output_adapter@_W@__crt_stdio_output@@V?$format_validation_base@_WV?$stream_output_adapter@_W@__crt_stdio_output@@@2@@__crt_stdio_output@@AEAAX_K_N@Z 0000000180031548 f i libucrt:output.obj
 0001:00030610       ??$type_case_integer_parse_into_buffer@_K$0BA@@?$output_processor@_WV?$stream_output_adapter@_W@__crt_stdio_output@@V?$positional_parameter_base@_WV?$stream_output_adapter@_W@__crt_stdio_output@@@2@@__crt_stdio_output@@AEAAX_K_N@Z 0000000180031610 f i libucrt:output.obj
 0001:000306d8       ??$type_case_integer_parse_into_buffer@_K$0BA@@?$output_processor@_WV?$stream_output_adapter@_W@__crt_stdio_output@@V?$standard_base@_WV?$stream_output_adapter@_W@__crt_stdio_output@@@2@@__crt_stdio_output@@AEAAX_K_N@Z 00000001800316d8 f i libucrt:output.obj
 0001:000307a0       ??$type_case_integer_parse_into_buffer@_K$0BA@@?$output_processor@_WV?$string_output_adapter@_W@__crt_stdio_output@@V?$format_validation_base@_WV?$string_output_adapter@_W@__crt_stdio_output@@@2@@__crt_stdio_output@@AEAAX_K_N@Z 00000001800317a0 f i libucrt:output.obj
 0001:00030868       ??$type_case_integer_parse_into_buffer@_K$0BA@@?$output_processor@_WV?$string_output_adapter@_W@__crt_stdio_output@@V?$positional_parameter_base@_WV?$string_output_adapter@_W@__crt_stdio_output@@@2@@__crt_stdio_output@@AEAAX_K_N@Z 0000000180031868 f i libucrt:output.obj
 0001:00030930       ??$type_case_integer_parse_into_buffer@_K$0BA@@?$output_processor@_WV?$string_output_adapter@_W@__crt_stdio_output@@V?$standard_base@_WV?$string_output_adapter@_W@__crt_stdio_output@@@2@@__crt_stdio_output@@AEAAX_K_N@Z 0000000180031930 f i libucrt:output.obj
 0001:000309f8       ??$write_multiple_characters@V?$stream_output_adapter@D@__crt_stdio_output@@D@__crt_stdio_output@@YAXAEBV?$stream_output_adapter@D@0@DHQEAHAEAV__crt_cached_ptd_host@@@Z 00000001800319f8 f i libucrt:output.obj
 0001:00030ab0       ??$write_multiple_characters@V?$stream_output_adapter@_W@__crt_stdio_output@@D@__crt_stdio_output@@YAXAEBV?$stream_output_adapter@_W@0@DHQEAHAEAV__crt_cached_ptd_host@@@Z 0000000180031ab0 f i libucrt:output.obj
 0001:00030b6c       ??$write_multiple_characters@V?$string_output_adapter@D@__crt_stdio_output@@D@__crt_stdio_output@@YAXAEBV?$string_output_adapter@D@0@DHQEAHAEAV__crt_cached_ptd_host@@@Z 0000000180031b6c f i libucrt:output.obj
 0001:00030c00       ??$write_multiple_characters@V?$string_output_adapter@_W@__crt_stdio_output@@D@__crt_stdio_output@@YAXAEBV?$string_output_adapter@_W@0@DHQEAHAEAV__crt_cached_ptd_host@@@Z 0000000180031c00 f i libucrt:output.obj
 0001:00030e2c       ??0?$c_string_character_source@D@__crt_strtox@@QEAA@QEBDQEAPEBD@Z 0000000180031e2c f i libucrt:output.obj
 0001:00030e44       ??0?$c_string_character_source@_W@__crt_strtox@@QEAA@QEB_WQEAPEB_W@Z 0000000180031e44 f i libucrt:output.obj
 0001:00030e5c       ??0?$cached@H@__crt_cached_ptd_host@@QEAA@XZ 0000000180031e5c f i libucrt:output.obj
 0001:00030e68       ??0?$cached@K@__crt_cached_ptd_host@@QEAA@XZ 0000000180031e68 f i libucrt:output.obj
 0001:00030e74       ??0?$common_data@D@__crt_stdio_output@@IEAA@AEAV__crt_cached_ptd_host@@@Z 0000000180031e74 f i libucrt:output.obj
 0001:00030ebc       ??0?$common_data@_W@__crt_stdio_output@@IEAA@AEAV__crt_cached_ptd_host@@@Z 0000000180031ebc f i libucrt:output.obj
 0001:00030f08       ??0?$output_adapter_data@DV?$stream_output_adapter@D@__crt_stdio_output@@@__crt_stdio_output@@IEAA@AEBV?$stream_output_adapter@D@1@_KQEBDAEAV__crt_cached_ptd_host@@QEAD@Z 0000000180031f08 f i libucrt:output.obj
 0001:00030f80       ??0?$output_adapter_data@DV?$string_output_adapter@D@__crt_stdio_output@@@__crt_stdio_output@@IEAA@AEBV?$string_output_adapter@D@1@_KQEBDAEAV__crt_cached_ptd_host@@QEAD@Z 0000000180031f80 f i libucrt:output.obj
 0001:00030ff8       ??0?$output_adapter_data@_WV?$stream_output_adapter@_W@__crt_stdio_output@@@__crt_stdio_output@@IEAA@AEBV?$stream_output_adapter@_W@1@_KQEB_WAEAV__crt_cached_ptd_host@@QEAD@Z 0000000180031ff8 f i libucrt:output.obj
 0001:00031078       ??0?$output_adapter_data@_WV?$string_output_adapter@_W@__crt_stdio_output@@@__crt_stdio_output@@IEAA@AEBV?$string_output_adapter@_W@1@_KQEB_WAEAV__crt_cached_ptd_host@@QEAD@Z 0000000180032078 f i libucrt:output.obj
 0001:000310f8       ??0?$output_processor@DV?$stream_output_adapter@D@__crt_stdio_output@@V?$format_validation_base@DV?$stream_output_adapter@D@__crt_stdio_output@@@2@@__crt_stdio_output@@QEAA@AEBV?$stream_output_adapter@D@1@_KQEBDAEAV__crt_cached_ptd_host@@QEAD@Z 00000001800320f8 f i libucrt:output.obj
 0001:00031178       ??0?$output_processor@DV?$stream_output_adapter@D@__crt_stdio_output@@V?$positional_parameter_base@DV?$stream_output_adapter@D@__crt_stdio_output@@@2@@__crt_stdio_output@@QEAA@AEBV?$stream_output_adapter@D@1@_KQEBDAEAV__crt_cached_ptd_host@@QEAD@Z 0000000180032178 f i libucrt:output.obj
 0001:00031220       ??0?$output_processor@DV?$stream_output_adapter@D@__crt_stdio_output@@V?$standard_base@DV?$stream_output_adapter@D@__crt_stdio_output@@@2@@__crt_stdio_output@@QEAA@AEBV?$stream_output_adapter@D@1@_KQEBDAEAV__crt_cached_ptd_host@@QEAD@Z 0000000180032220 f i libucrt:output.obj
 0001:000312a0       ??0?$output_processor@DV?$string_output_adapter@D@__crt_stdio_output@@V?$format_validation_base@DV?$string_output_adapter@D@__crt_stdio_output@@@2@@__crt_stdio_output@@QEAA@AEBV?$string_output_adapter@D@1@_KQEBDAEAV__crt_cached_ptd_host@@QEAD@Z 00000001800322a0 f i libucrt:output.obj
 0001:00031320       ??0?$output_processor@DV?$string_output_adapter@D@__crt_stdio_output@@V?$positional_parameter_base@DV?$string_output_adapter@D@__crt_stdio_output@@@2@@__crt_stdio_output@@QEAA@AEBV?$string_output_adapter@D@1@_KQEBDAEAV__crt_cached_ptd_host@@QEAD@Z 0000000180032320 f i libucrt:output.obj
 0001:000313c8       ??0?$output_processor@DV?$string_output_adapter@D@__crt_stdio_output@@V?$standard_base@DV?$string_output_adapter@D@__crt_stdio_output@@@2@@__crt_stdio_output@@QEAA@AEBV?$string_output_adapter@D@1@_KQEBDAEAV__crt_cached_ptd_host@@QEAD@Z 00000001800323c8 f i libucrt:output.obj
 0001:00031448       ??0?$output_processor@_WV?$stream_output_adapter@_W@__crt_stdio_output@@V?$format_validation_base@_WV?$stream_output_adapter@_W@__crt_stdio_output@@@2@@__crt_stdio_output@@QEAA@AEBV?$stream_output_adapter@_W@1@_KQEB_WAEAV__crt_cached_ptd_host@@QEAD@Z 0000000180032448 f i libucrt:output.obj
 0001:000314d0       ??0?$output_processor@_WV?$stream_output_adapter@_W@__crt_stdio_output@@V?$positional_parameter_base@_WV?$stream_output_adapter@_W@__crt_stdio_output@@@2@@__crt_stdio_output@@QEAA@AEBV?$stream_output_adapter@_W@1@_KQEB_WAEAV__crt_cached_ptd_host@@QEAD@Z 00000001800324d0 f i libucrt:output.obj
 0001:0003157c       ??0?$output_processor@_WV?$stream_output_adapter@_W@__crt_stdio_output@@V?$standard_base@_WV?$stream_output_adapter@_W@__crt_stdio_output@@@2@@__crt_stdio_output@@QEAA@AEBV?$stream_output_adapter@_W@1@_KQEB_WAEAV__crt_cached_ptd_host@@QEAD@Z 000000018003257c f i libucrt:output.obj
 0001:00031604       ??0?$output_processor@_WV?$string_output_adapter@_W@__crt_stdio_output@@V?$format_validation_base@_WV?$string_output_adapter@_W@__crt_stdio_output@@@2@@__crt_stdio_output@@QEAA@AEBV?$string_output_adapter@_W@1@_KQEB_WAEAV__crt_cached_ptd_host@@QEAD@Z 0000000180032604 f i libucrt:output.obj
 0001:0003168c       ??0?$output_processor@_WV?$string_output_adapter@_W@__crt_stdio_output@@V?$positional_parameter_base@_WV?$string_output_adapter@_W@__crt_stdio_output@@@2@@__crt_stdio_output@@QEAA@AEBV?$string_output_adapter@_W@1@_KQEB_WAEAV__crt_cached_ptd_host@@QEAD@Z 000000018003268c f i libucrt:output.obj
 0001:00031738       ??0?$output_processor@_WV?$string_output_adapter@_W@__crt_stdio_output@@V?$standard_base@_WV?$string_output_adapter@_W@__crt_stdio_output@@@2@@__crt_stdio_output@@QEAA@AEBV?$string_output_adapter@_W@1@_KQEB_WAEAV__crt_cached_ptd_host@@QEAD@Z 0000000180032738 f i libucrt:output.obj
 0001:000317c0       ??0?$stream_output_adapter@D@__crt_stdio_output@@QEAA@QEAU_iobuf@@@Z 00000001800327c0 f i libucrt:output.obj
 0001:000317c8       ??0?$stream_output_adapter@_W@__crt_stdio_output@@QEAA@QEAU_iobuf@@@Z 00000001800327c8 f i libucrt:output.obj
 0001:000317d0       ??0?$string_output_adapter@D@__crt_stdio_output@@QEAA@QEAU?$string_output_adapter_context@D@1@@Z 00000001800327d0 f i libucrt:output.obj
 0001:000317d8       ??0?$string_output_adapter@_W@__crt_stdio_output@@QEAA@QEAU?$string_output_adapter_context@_W@1@@Z 00000001800327d8 f i libucrt:output.obj
 0001:000317e0       ??0__acrt_stdio_temporary_buffering_guard@@QEAA@QEAU_iobuf@@AEAV__crt_cached_ptd_host@@@Z 00000001800327e0 f i libucrt:output.obj
 0001:00031810       ??0__crt_cached_ptd_host@@QEAA@QEAU__crt_locale_pointers@@@Z 0000000180032810 f i libucrt:output.obj
 0001:00031868       ??0__crt_scoped_get_last_error_reset@@QEAA@XZ 0000000180032868 f i libucrt:output.obj
 0001:00031888       ??0__crt_stdio_stream@@QEAA@QEAU_iobuf@@@Z 0000000180032888 f i libucrt:output.obj
 0001:00031890       ??0formatting_buffer@__crt_stdio_output@@QEAA@XZ 0000000180032890 f i libucrt:output.obj
 0001:000318ac       ??0guard@?$cached@H@__crt_cached_ptd_host@@QEAA@AEAU12@@Z 00000001800328ac f i libucrt:output.obj
 0001:000318c4       ??1?$c_string_character_source@D@__crt_strtox@@QEAA@XZ 00000001800328c4 f i libucrt:output.obj
 0001:000318d8       ??1?$c_string_character_source@_W@__crt_strtox@@QEAA@XZ 00000001800328d8 f i libucrt:output.obj
 0001:000318ec       ??1?$common_data@D@__crt_stdio_output@@QEAA@XZ 00000001800328ec f i libucrt:output.obj
 0001:00031918       ??1?$common_data@_W@__crt_stdio_output@@QEAA@XZ 0000000180032918 f i libucrt:output.obj
 0001:00031944       ??1?$format_validation_base@DV?$stream_output_adapter@D@__crt_stdio_output@@@__crt_stdio_output@@QEAA@XZ 0000000180032944 f i libucrt:output.obj
 0001:00031970       ??1?$format_validation_base@DV?$string_output_adapter@D@__crt_stdio_output@@@__crt_stdio_output@@QEAA@XZ 0000000180032970 f i libucrt:output.obj
 0001:0003199c       ??1?$format_validation_base@_WV?$stream_output_adapter@_W@__crt_stdio_output@@@__crt_stdio_output@@QEAA@XZ 000000018003299c f i libucrt:output.obj
 0001:000319c8       ??1?$format_validation_base@_WV?$string_output_adapter@_W@__crt_stdio_output@@@__crt_stdio_output@@QEAA@XZ 00000001800329c8 f i libucrt:output.obj
 0001:000319f4       ??1?$output_adapter_data@DV?$stream_output_adapter@D@__crt_stdio_output@@@__crt_stdio_output@@QEAA@XZ 00000001800329f4 f i libucrt:output.obj
 0001:00031a20       ??1?$output_adapter_data@DV?$string_output_adapter@D@__crt_stdio_output@@@__crt_stdio_output@@QEAA@XZ 0000000180032a20 f i libucrt:output.obj
 0001:00031a4c       ??1?$output_adapter_data@_WV?$stream_output_adapter@_W@__crt_stdio_output@@@__crt_stdio_output@@QEAA@XZ 0000000180032a4c f i libucrt:output.obj
 0001:00031a78       ??1?$output_adapter_data@_WV?$string_output_adapter@_W@__crt_stdio_output@@@__crt_stdio_output@@QEAA@XZ 0000000180032a78 f i libucrt:output.obj
 0001:00031aa4       ??1?$output_processor@DV?$stream_output_adapter@D@__crt_stdio_output@@V?$format_validation_base@DV?$stream_output_adapter@D@__crt_stdio_output@@@2@@__crt_stdio_output@@QEAA@XZ 0000000180032aa4 f i libucrt:output.obj
 0001:00031ad0       ??1?$output_processor@DV?$stream_output_adapter@D@__crt_stdio_output@@V?$positional_parameter_base@DV?$stream_output_adapter@D@__crt_stdio_output@@@2@@__crt_stdio_output@@QEAA@XZ 0000000180032ad0 f i libucrt:output.obj
 0001:00031afc       ??1?$output_processor@DV?$stream_output_adapter@D@__crt_stdio_output@@V?$standard_base@DV?$stream_output_adapter@D@__crt_stdio_output@@@2@@__crt_stdio_output@@QEAA@XZ 0000000180032afc f i libucrt:output.obj
 0001:00031b28       ??1?$output_processor@DV?$string_output_adapter@D@__crt_stdio_output@@V?$format_validation_base@DV?$string_output_adapter@D@__crt_stdio_output@@@2@@__crt_stdio_output@@QEAA@XZ 0000000180032b28 f i libucrt:output.obj
 0001:00031b54       ??1?$output_processor@DV?$string_output_adapter@D@__crt_stdio_output@@V?$positional_parameter_base@DV?$string_output_adapter@D@__crt_stdio_output@@@2@@__crt_stdio_output@@QEAA@XZ 0000000180032b54 f i libucrt:output.obj
 0001:00031b80       ??1?$output_processor@DV?$string_output_adapter@D@__crt_stdio_output@@V?$standard_base@DV?$string_output_adapter@D@__crt_stdio_output@@@2@@__crt_stdio_output@@QEAA@XZ 0000000180032b80 f i libucrt:output.obj
 0001:00031bac       ??1?$output_processor@_WV?$stream_output_adapter@_W@__crt_stdio_output@@V?$format_validation_base@_WV?$stream_output_adapter@_W@__crt_stdio_output@@@2@@__crt_stdio_output@@QEAA@XZ 0000000180032bac f i libucrt:output.obj
 0001:00031bd8       ??1?$output_processor@_WV?$stream_output_adapter@_W@__crt_stdio_output@@V?$positional_parameter_base@_WV?$stream_output_adapter@_W@__crt_stdio_output@@@2@@__crt_stdio_output@@QEAA@XZ 0000000180032bd8 f i libucrt:output.obj
 0001:00031c04       ??1?$output_processor@_WV?$stream_output_adapter@_W@__crt_stdio_output@@V?$standard_base@_WV?$stream_output_adapter@_W@__crt_stdio_output@@@2@@__crt_stdio_output@@QEAA@XZ 0000000180032c04 f i libucrt:output.obj
 0001:00031c30       ??1?$output_processor@_WV?$string_output_adapter@_W@__crt_stdio_output@@V?$format_validation_base@_WV?$string_output_adapter@_W@__crt_stdio_output@@@2@@__crt_stdio_output@@QEAA@XZ 0000000180032c30 f i libucrt:output.obj
 0001:00031c5c       ??1?$output_processor@_WV?$string_output_adapter@_W@__crt_stdio_output@@V?$positional_parameter_base@_WV?$string_output_adapter@_W@__crt_stdio_output@@@2@@__crt_stdio_output@@QEAA@XZ 0000000180032c5c f i libucrt:output.obj
 0001:00031c88       ??1?$output_processor@_WV?$string_output_adapter@_W@__crt_stdio_output@@V?$standard_base@_WV?$string_output_adapter@_W@__crt_stdio_output@@@2@@__crt_stdio_output@@QEAA@XZ 0000000180032c88 f i libucrt:output.obj
 0001:00031cb4       ??1?$positional_parameter_base@DV?$stream_output_adapter@D@__crt_stdio_output@@@__crt_stdio_output@@QEAA@XZ 0000000180032cb4 f i libucrt:output.obj
 0001:00031ce0       ??1?$positional_parameter_base@DV?$string_output_adapter@D@__crt_stdio_output@@@__crt_stdio_output@@QEAA@XZ 0000000180032ce0 f i libucrt:output.obj
 0001:00031d0c       ??1?$positional_parameter_base@_WV?$stream_output_adapter@_W@__crt_stdio_output@@@__crt_stdio_output@@QEAA@XZ 0000000180032d0c f i libucrt:output.obj
 0001:00031d38       ??1?$positional_parameter_base@_WV?$string_output_adapter@_W@__crt_stdio_output@@@__crt_stdio_output@@QEAA@XZ 0000000180032d38 f i libucrt:output.obj
 0001:00031d64       ??1?$standard_base@DV?$stream_output_adapter@D@__crt_stdio_output@@@__crt_stdio_output@@QEAA@XZ 0000000180032d64 f i libucrt:output.obj
 0001:00031d90       ??1?$standard_base@DV?$string_output_adapter@D@__crt_stdio_output@@@__crt_stdio_output@@QEAA@XZ 0000000180032d90 f i libucrt:output.obj
 0001:00031dbc       ??1?$standard_base@_WV?$stream_output_adapter@_W@__crt_stdio_output@@@__crt_stdio_output@@QEAA@XZ 0000000180032dbc f i libucrt:output.obj
 0001:00031de8       ??1?$standard_base@_WV?$string_output_adapter@_W@__crt_stdio_output@@@__crt_stdio_output@@QEAA@XZ 0000000180032de8 f i libucrt:output.obj
 0001:00031e14       ??1__acrt_stdio_temporary_buffering_guard@@QEAA@XZ 0000000180032e14 f i libucrt:output.obj
 0001:00031e30       ??1__crt_cached_ptd_host@@QEAA@XZ 0000000180032e30 f i libucrt:output.obj
 0001:00031e94       ??1__crt_scoped_get_last_error_reset@@QEAA@XZ 0000000180032e94 f i libucrt:output.obj
 0001:00031ea0       ??1formatting_buffer@__crt_stdio_output@@QEAA@XZ 0000000180032ea0 f i libucrt:output.obj
 0001:00031ecc       ??1guard@?$cached@H@__crt_cached_ptd_host@@QEAA@XZ 0000000180032ecc f i libucrt:output.obj
 0001:00031ee4       ??4?$__crt_unique_heap_ptr@DU__crt_internal_free_policy@@@@QEAAAEAV0@$$QEAV0@@Z 0000000180032ee4 f i libucrt:output.obj
 0001:00031f28       ??A?$spectre_mitigated_lookup_table@Ustate_transition_pair@__crt_stdio_output@@$0IA@@__crt_stdio_output@@QEBAAEBUstate_transition_pair@1@_K@Z 0000000180032f28 f i libucrt:output.obj
 0001:00031f34       ??C__crt_stdio_stream@@QEBAPEAU__crt_stdio_stream_data@@XZ 0000000180032f34 f i libucrt:output.obj
 0001:00032868       ?adjust_hexit@?$output_processor@DV?$stream_output_adapter@D@__crt_stdio_output@@V?$format_validation_base@DV?$stream_output_adapter@D@__crt_stdio_output@@@2@@__crt_stdio_output@@CADH_N@Z 0000000180033868 f i libucrt:output.obj
 0001:00032878       ?adjust_hexit@?$output_processor@DV?$stream_output_adapter@D@__crt_stdio_output@@V?$positional_parameter_base@DV?$stream_output_adapter@D@__crt_stdio_output@@@2@@__crt_stdio_output@@CADH_N@Z 0000000180033878 f i libucrt:output.obj
 0001:00032888       ?adjust_hexit@?$output_processor@DV?$stream_output_adapter@D@__crt_stdio_output@@V?$standard_base@DV?$stream_output_adapter@D@__crt_stdio_output@@@2@@__crt_stdio_output@@CADH_N@Z 0000000180033888 f i libucrt:output.obj
 0001:00032898       ?adjust_hexit@?$output_processor@DV?$string_output_adapter@D@__crt_stdio_output@@V?$format_validation_base@DV?$string_output_adapter@D@__crt_stdio_output@@@2@@__crt_stdio_output@@CADH_N@Z 0000000180033898 f i libucrt:output.obj
 0001:000328a8       ?adjust_hexit@?$output_processor@DV?$string_output_adapter@D@__crt_stdio_output@@V?$positional_parameter_base@DV?$string_output_adapter@D@__crt_stdio_output@@@2@@__crt_stdio_output@@CADH_N@Z 00000001800338a8 f i libucrt:output.obj
 0001:000328b8       ?adjust_hexit@?$output_processor@DV?$string_output_adapter@D@__crt_stdio_output@@V?$standard_base@DV?$string_output_adapter@D@__crt_stdio_output@@@2@@__crt_stdio_output@@CADH_N@Z 00000001800338b8 f i libucrt:output.obj
 0001:000328c8       ?adjust_hexit@?$output_processor@_WV?$stream_output_adapter@_W@__crt_stdio_output@@V?$format_validation_base@_WV?$stream_output_adapter@_W@__crt_stdio_output@@@2@@__crt_stdio_output@@CADH_N@Z 00000001800338c8 f i libucrt:output.obj
 0001:000328d8       ?adjust_hexit@?$output_processor@_WV?$stream_output_adapter@_W@__crt_stdio_output@@V?$positional_parameter_base@_WV?$stream_output_adapter@_W@__crt_stdio_output@@@2@@__crt_stdio_output@@CADH_N@Z 00000001800338d8 f i libucrt:output.obj
 0001:000328e8       ?adjust_hexit@?$output_processor@_WV?$stream_output_adapter@_W@__crt_stdio_output@@V?$standard_base@_WV?$stream_output_adapter@_W@__crt_stdio_output@@@2@@__crt_stdio_output@@CADH_N@Z 00000001800338e8 f i libucrt:output.obj
 0001:000328f8       ?adjust_hexit@?$output_processor@_WV?$string_output_adapter@_W@__crt_stdio_output@@V?$format_validation_base@_WV?$string_output_adapter@_W@__crt_stdio_output@@@2@@__crt_stdio_output@@CADH_N@Z 00000001800338f8 f i libucrt:output.obj
 0001:00032908       ?adjust_hexit@?$output_processor@_WV?$string_output_adapter@_W@__crt_stdio_output@@V?$positional_parameter_base@_WV?$string_output_adapter@_W@__crt_stdio_output@@@2@@__crt_stdio_output@@CADH_N@Z 0000000180033908 f i libucrt:output.obj
 0001:00032918       ?adjust_hexit@?$output_processor@_WV?$string_output_adapter@_W@__crt_stdio_output@@V?$standard_base@_WV?$string_output_adapter@_W@__crt_stdio_output@@@2@@__crt_stdio_output@@CADH_N@Z 0000000180033918 f i libucrt:output.obj
 0001:00032928       ?advance_to_next_pass@?$positional_parameter_base@DV?$stream_output_adapter@D@__crt_stdio_output@@@__crt_stdio_output@@IEAA_NXZ 0000000180033928 f i libucrt:output.obj
 0001:00032990       ?advance_to_next_pass@?$positional_parameter_base@DV?$string_output_adapter@D@__crt_stdio_output@@@__crt_stdio_output@@IEAA_NXZ 0000000180033990 f i libucrt:output.obj
 0001:000329f8       ?advance_to_next_pass@?$positional_parameter_base@_WV?$stream_output_adapter@_W@__crt_stdio_output@@@__crt_stdio_output@@IEAA_NXZ 00000001800339f8 f i libucrt:output.obj
 0001:00032a60       ?advance_to_next_pass@?$positional_parameter_base@_WV?$string_output_adapter@_W@__crt_stdio_output@@@__crt_stdio_output@@IEAA_NXZ 0000000180033a60 f i libucrt:output.obj
 0001:00032ac8       ?advance_to_next_pass@?$standard_base@DV?$stream_output_adapter@D@__crt_stdio_output@@@__crt_stdio_output@@IEAA_NXZ 0000000180033ac8 f i libucrt:output.obj
 0001:00032ae0       ?advance_to_next_pass@?$standard_base@DV?$string_output_adapter@D@__crt_stdio_output@@@__crt_stdio_output@@IEAA_NXZ 0000000180033ae0 f i libucrt:output.obj
 0001:00032af8       ?advance_to_next_pass@?$standard_base@_WV?$stream_output_adapter@_W@__crt_stdio_output@@@__crt_stdio_output@@IEAA_NXZ 0000000180033af8 f i libucrt:output.obj
 0001:00032b10       ?advance_to_next_pass@?$standard_base@_WV?$string_output_adapter@_W@__crt_stdio_output@@@__crt_stdio_output@@IEAA_NXZ 0000000180033b10 f i libucrt:output.obj
 0001:00032b28       ?check@?$cached@H@__crt_cached_ptd_host@@QEBA_NH@Z 0000000180033b28 f i libucrt:output.obj
 0001:00032b40       ?check_synchronize_global_state_index@__crt_cached_ptd_host@@AEAA_KAEBV__crt_scoped_get_last_error_reset@@@Z 0000000180033b40 f i libucrt:output.obj
 0001:00032b60       ?check_synchronize_per_thread_data@__crt_cached_ptd_host@@AEAAPEAU__acrt_ptd@@XZ 0000000180033b60 f i libucrt:output.obj
 0001:00032be0       ?create_guard@?$cached@H@__crt_cached_ptd_host@@QEAA?AVguard@12@XZ 0000000180033be0 f i libucrt:output.obj
 0001:00032bf8       ?crop_zeroes@__crt_stdio_output@@YAXPEADQEAU__crt_locale_pointers@@@Z 0000000180033bf8 f i libucrt:output.obj
 0001:00032c7c       ?disable@guard@?$cached@H@__crt_cached_ptd_host@@QEAAXXZ 0000000180033c7c f i libucrt:output.obj
 0001:00032c84       ?enable@guard@?$cached@H@__crt_cached_ptd_host@@QEAAXXZ 0000000180033c84 f i libucrt:output.obj
 0001:00032c8c       ?find_next_state@?$output_processor@DV?$stream_output_adapter@D@__crt_stdio_output@@V?$format_validation_base@DV?$stream_output_adapter@D@__crt_stdio_output@@@2@@__crt_stdio_output@@AEBA?AW4state@2@DW432@@Z 0000000180033c8c f i libucrt:output.obj
 0001:00032cd0       ?find_next_state@?$output_processor@DV?$stream_output_adapter@D@__crt_stdio_output@@V?$positional_parameter_base@DV?$stream_output_adapter@D@__crt_stdio_output@@@2@@__crt_stdio_output@@AEBA?AW4state@2@DW432@@Z 0000000180033cd0 f i libucrt:output.obj
 0001:00032d14       ?find_next_state@?$output_processor@DV?$stream_output_adapter@D@__crt_stdio_output@@V?$standard_base@DV?$stream_output_adapter@D@__crt_stdio_output@@@2@@__crt_stdio_output@@AEBA?AW4state@2@DW432@@Z 0000000180033d14 f i libucrt:output.obj
 0001:00032d58       ?find_next_state@?$output_processor@DV?$string_output_adapter@D@__crt_stdio_output@@V?$format_validation_base@DV?$string_output_adapter@D@__crt_stdio_output@@@2@@__crt_stdio_output@@AEBA?AW4state@2@DW432@@Z 0000000180033d58 f i libucrt:output.obj
 0001:00032d9c       ?find_next_state@?$output_processor@DV?$string_output_adapter@D@__crt_stdio_output@@V?$positional_parameter_base@DV?$string_output_adapter@D@__crt_stdio_output@@@2@@__crt_stdio_output@@AEBA?AW4state@2@DW432@@Z 0000000180033d9c f i libucrt:output.obj
 0001:00032de0       ?find_next_state@?$output_processor@DV?$string_output_adapter@D@__crt_stdio_output@@V?$standard_base@DV?$string_output_adapter@D@__crt_stdio_output@@@2@@__crt_stdio_output@@AEBA?AW4state@2@DW432@@Z 0000000180033de0 f i libucrt:output.obj
 0001:00032e24       ?find_next_state@?$output_processor@_WV?$stream_output_adapter@_W@__crt_stdio_output@@V?$format_validation_base@_WV?$stream_output_adapter@_W@__crt_stdio_output@@@2@@__crt_stdio_output@@AEBA?AW4state@2@_WW432@@Z 0000000180033e24 f i libucrt:output.obj
 0001:00032e74       ?find_next_state@?$output_processor@_WV?$stream_output_adapter@_W@__crt_stdio_output@@V?$positional_parameter_base@_WV?$stream_output_adapter@_W@__crt_stdio_output@@@2@@__crt_stdio_output@@AEBA?AW4state@2@_WW432@@Z 0000000180033e74 f i libucrt:output.obj
 0001:00032ec4       ?find_next_state@?$output_processor@_WV?$stream_output_adapter@_W@__crt_stdio_output@@V?$standard_base@_WV?$stream_output_adapter@_W@__crt_stdio_output@@@2@@__crt_stdio_output@@AEBA?AW4state@2@_WW432@@Z 0000000180033ec4 f i libucrt:output.obj
 0001:00032f10       ?find_next_state@?$output_processor@_WV?$string_output_adapter@_W@__crt_stdio_output@@V?$format_validation_base@_WV?$string_output_adapter@_W@__crt_stdio_output@@@2@@__crt_stdio_output@@AEBA?AW4state@2@_WW432@@Z 0000000180033f10 f i libucrt:output.obj
 0001:00032f60       ?find_next_state@?$output_processor@_WV?$string_output_adapter@_W@__crt_stdio_output@@V?$positional_parameter_base@_WV?$string_output_adapter@_W@__crt_stdio_output@@@2@@__crt_stdio_output@@AEBA?AW4state@2@_WW432@@Z 0000000180033f60 f i libucrt:output.obj
 0001:00032fb0       ?find_next_state@?$output_processor@_WV?$string_output_adapter@_W@__crt_stdio_output@@V?$standard_base@_WV?$string_output_adapter@_W@__crt_stdio_output@@@2@@__crt_stdio_output@@AEBA?AW4state@2@_WW432@@Z 0000000180033fb0 f i libucrt:output.obj
 0001:00032ffc       ?force_decimal_point@__crt_stdio_output@@YAXPEADQEAU__crt_locale_pointers@@@Z 0000000180033ffc f i libucrt:output.obj
 0001:00033080       ?force_synchronize_global_state_index@__crt_cached_ptd_host@@AEAA_KAEBV__crt_scoped_get_last_error_reset@@@Z 0000000180034080 f i libucrt:output.obj
 0001:000330a0       ?force_synchronize_per_thread_data@__crt_cached_ptd_host@@AEAAPEAU__acrt_ptd@@XZ 00000001800340a0 f i libucrt:output.obj
 0001:0003310c       ?get@?$c_string_character_source@D@__crt_strtox@@QEAADXZ 000000018003410c f i libucrt:output.obj
 0001:0003311c       ?get@?$c_string_character_source@_W@__crt_strtox@@QEAA_WXZ 000000018003411c f i libucrt:output.obj
 0001:00033130       ?get_current_state_index@__crt_state_management@@YA_KAEBV__crt_scoped_get_last_error_reset@@@Z 0000000180034130 f i libucrt:output.obj
 0001:00033140       ?get_errno@__crt_cached_ptd_host@@QEAA@XZ 0000000180034140 f i libucrt:output.obj
 0001:00033148       ?get_flags@__crt_stdio_stream@@QEBAJXZ 0000000180034148 f i libucrt:output.obj
 0001:00033160       ?get_locale@__crt_cached_ptd_host@@QEAAPEAU__crt_locale_pointers@@XZ 0000000180034160 f i libucrt:output.obj
 0001:00033194       ?get_parameter_type@?$positional_parameter_base@DV?$stream_output_adapter@D@__crt_stdio_output@@@__crt_stdio_output@@CA?AW4parameter_type@12@F@Z 0000000180034194 f i libucrt:output.obj
 0001:0003319c       ?get_parameter_type@?$positional_parameter_base@DV?$stream_output_adapter@D@__crt_stdio_output@@@__crt_stdio_output@@CA?AW4parameter_type@12@G@Z 000000018003419c f i libucrt:output.obj
 0001:000331a4       ?get_parameter_type@?$positional_parameter_base@DV?$stream_output_adapter@D@__crt_stdio_output@@@__crt_stdio_output@@CA?AW4parameter_type@12@H@Z 00000001800341a4 f i libucrt:output.obj
 0001:000331ac       ?get_parameter_type@?$positional_parameter_base@DV?$stream_output_adapter@D@__crt_stdio_output@@@__crt_stdio_output@@CA?AW4parameter_type@12@I@Z 00000001800341ac f i libucrt:output.obj
 0001:000331b4       ?get_parameter_type@?$positional_parameter_base@DV?$stream_output_adapter@D@__crt_stdio_output@@@__crt_stdio_output@@CA?AW4parameter_type@12@U_CRT_DOUBLE@@@Z 00000001800341b4 f i libucrt:output.obj
 0001:000331bc       ?get_parameter_type@?$positional_parameter_base@DV?$stream_output_adapter@D@__crt_stdio_output@@@__crt_stdio_output@@CA?AW4parameter_type@12@_J@Z 00000001800341bc f i libucrt:output.obj
 0001:000331c4       ?get_parameter_type@?$positional_parameter_base@DV?$stream_output_adapter@D@__crt_stdio_output@@@__crt_stdio_output@@CA?AW4parameter_type@12@_K@Z 00000001800341c4 f i libucrt:output.obj
 0001:000331cc       ?get_parameter_type@?$positional_parameter_base@DV?$stream_output_adapter@D@__crt_stdio_output@@@__crt_stdio_output@@CA?AW4parameter_type@12@_W@Z 00000001800341cc f i libucrt:output.obj
 0001:000331d4       ?get_parameter_type@?$positional_parameter_base@DV?$string_output_adapter@D@__crt_stdio_output@@@__crt_stdio_output@@CA?AW4parameter_type@12@F@Z 00000001800341d4 f i libucrt:output.obj
 0001:000331dc       ?get_parameter_type@?$positional_parameter_base@DV?$string_output_adapter@D@__crt_stdio_output@@@__crt_stdio_output@@CA?AW4parameter_type@12@G@Z 00000001800341dc f i libucrt:output.obj
 0001:000331e4       ?get_parameter_type@?$positional_parameter_base@DV?$string_output_adapter@D@__crt_stdio_output@@@__crt_stdio_output@@CA?AW4parameter_type@12@H@Z 00000001800341e4 f i libucrt:output.obj
 0001:000331ec       ?get_parameter_type@?$positional_parameter_base@DV?$string_output_adapter@D@__crt_stdio_output@@@__crt_stdio_output@@CA?AW4parameter_type@12@I@Z 00000001800341ec f i libucrt:output.obj
 0001:000331f4       ?get_parameter_type@?$positional_parameter_base@DV?$string_output_adapter@D@__crt_stdio_output@@@__crt_stdio_output@@CA?AW4parameter_type@12@U_CRT_DOUBLE@@@Z 00000001800341f4 f i libucrt:output.obj
 0001:000331fc       ?get_parameter_type@?$positional_parameter_base@DV?$string_output_adapter@D@__crt_stdio_output@@@__crt_stdio_output@@CA?AW4parameter_type@12@_J@Z 00000001800341fc f i libucrt:output.obj
 0001:00033204       ?get_parameter_type@?$positional_parameter_base@DV?$string_output_adapter@D@__crt_stdio_output@@@__crt_stdio_output@@CA?AW4parameter_type@12@_K@Z 0000000180034204 f i libucrt:output.obj
 0001:0003320c       ?get_parameter_type@?$positional_parameter_base@DV?$string_output_adapter@D@__crt_stdio_output@@@__crt_stdio_output@@CA?AW4parameter_type@12@_W@Z 000000018003420c f i libucrt:output.obj
 0001:00033214       ?get_parameter_type@?$positional_parameter_base@_WV?$stream_output_adapter@_W@__crt_stdio_output@@@__crt_stdio_output@@CA?AW4parameter_type@12@F@Z 0000000180034214 f i libucrt:output.obj
 0001:0003321c       ?get_parameter_type@?$positional_parameter_base@_WV?$stream_output_adapter@_W@__crt_stdio_output@@@__crt_stdio_output@@CA?AW4parameter_type@12@G@Z 000000018003421c f i libucrt:output.obj
 0001:00033224       ?get_parameter_type@?$positional_parameter_base@_WV?$stream_output_adapter@_W@__crt_stdio_output@@@__crt_stdio_output@@CA?AW4parameter_type@12@H@Z 0000000180034224 f i libucrt:output.obj
 0001:0003322c       ?get_parameter_type@?$positional_parameter_base@_WV?$stream_output_adapter@_W@__crt_stdio_output@@@__crt_stdio_output@@CA?AW4parameter_type@12@I@Z 000000018003422c f i libucrt:output.obj
 0001:00033234       ?get_parameter_type@?$positional_parameter_base@_WV?$stream_output_adapter@_W@__crt_stdio_output@@@__crt_stdio_output@@CA?AW4parameter_type@12@U_CRT_DOUBLE@@@Z 0000000180034234 f i libucrt:output.obj
 0001:0003323c       ?get_parameter_type@?$positional_parameter_base@_WV?$stream_output_adapter@_W@__crt_stdio_output@@@__crt_stdio_output@@CA?AW4parameter_type@12@_J@Z 000000018003423c f i libucrt:output.obj
 0001:00033244       ?get_parameter_type@?$positional_parameter_base@_WV?$stream_output_adapter@_W@__crt_stdio_output@@@__crt_stdio_output@@CA?AW4parameter_type@12@_K@Z 0000000180034244 f i libucrt:output.obj
 0001:0003324c       ?get_parameter_type@?$positional_parameter_base@_WV?$stream_output_adapter@_W@__crt_stdio_output@@@__crt_stdio_output@@CA?AW4parameter_type@12@_W@Z 000000018003424c f i libucrt:output.obj
 0001:00033254       ?get_parameter_type@?$positional_parameter_base@_WV?$string_output_adapter@_W@__crt_stdio_output@@@__crt_stdio_output@@CA?AW4parameter_type@12@F@Z 0000000180034254 f i libucrt:output.obj
 0001:0003325c       ?get_parameter_type@?$positional_parameter_base@_WV?$string_output_adapter@_W@__crt_stdio_output@@@__crt_stdio_output@@CA?AW4parameter_type@12@G@Z 000000018003425c f i libucrt:output.obj
 0001:00033264       ?get_parameter_type@?$positional_parameter_base@_WV?$string_output_adapter@_W@__crt_stdio_output@@@__crt_stdio_output@@CA?AW4parameter_type@12@H@Z 0000000180034264 f i libucrt:output.obj
 0001:0003326c       ?get_parameter_type@?$positional_parameter_base@_WV?$string_output_adapter@_W@__crt_stdio_output@@@__crt_stdio_output@@CA?AW4parameter_type@12@I@Z 000000018003426c f i libucrt:output.obj
 0001:00033274       ?get_parameter_type@?$positional_parameter_base@_WV?$string_output_adapter@_W@__crt_stdio_output@@@__crt_stdio_output@@CA?AW4parameter_type@12@U_CRT_DOUBLE@@@Z 0000000180034274 f i libucrt:output.obj
 0001:0003327c       ?get_parameter_type@?$positional_parameter_base@_WV?$string_output_adapter@_W@__crt_stdio_output@@@__crt_stdio_output@@CA?AW4parameter_type@12@_J@Z 000000018003427c f i libucrt:output.obj
 0001:00033284       ?get_parameter_type@?$positional_parameter_base@_WV?$string_output_adapter@_W@__crt_stdio_output@@@__crt_stdio_output@@CA?AW4parameter_type@12@_K@Z 0000000180034284 f i libucrt:output.obj
 0001:0003328c       ?get_parameter_type@?$positional_parameter_base@_WV?$string_output_adapter@_W@__crt_stdio_output@@@__crt_stdio_output@@CA?AW4parameter_type@12@_W@Z 000000018003428c f i libucrt:output.obj
 0001:000332a0       ?get_raw_ptd@__crt_cached_ptd_host@@QEAAPEAU__acrt_ptd@@XZ 00000001800342a0 f i libucrt:output.obj
 0001:00033320       ?has_flag@?$output_processor@DV?$stream_output_adapter@D@__crt_stdio_output@@V?$format_validation_base@DV?$stream_output_adapter@D@__crt_stdio_output@@@2@@__crt_stdio_output@@AEBA_NI@Z 0000000180034320 f i libucrt:output.obj
 0001:00033328       ?has_flag@?$output_processor@DV?$stream_output_adapter@D@__crt_stdio_output@@V?$positional_parameter_base@DV?$stream_output_adapter@D@__crt_stdio_output@@@2@@__crt_stdio_output@@AEBA_NI@Z 0000000180034328 f i libucrt:output.obj
 0001:00033330       ?has_flag@?$output_processor@DV?$stream_output_adapter@D@__crt_stdio_output@@V?$standard_base@DV?$stream_output_adapter@D@__crt_stdio_output@@@2@@__crt_stdio_output@@AEBA_NI@Z 0000000180034330 f i libucrt:output.obj
 0001:00033338       ?has_flag@?$output_processor@DV?$string_output_adapter@D@__crt_stdio_output@@V?$format_validation_base@DV?$string_output_adapter@D@__crt_stdio_output@@@2@@__crt_stdio_output@@AEBA_NI@Z 0000000180034338 f i libucrt:output.obj
 0001:00033340       ?has_flag@?$output_processor@DV?$string_output_adapter@D@__crt_stdio_output@@V?$positional_parameter_base@DV?$string_output_adapter@D@__crt_stdio_output@@@2@@__crt_stdio_output@@AEBA_NI@Z 0000000180034340 f i libucrt:output.obj
 0001:00033348       ?has_flag@?$output_processor@DV?$string_output_adapter@D@__crt_stdio_output@@V?$standard_base@DV?$string_output_adapter@D@__crt_stdio_output@@@2@@__crt_stdio_output@@AEBA_NI@Z 0000000180034348 f i libucrt:output.obj
 0001:00033350       ?has_flag@?$output_processor@_WV?$stream_output_adapter@_W@__crt_stdio_output@@V?$format_validation_base@_WV?$stream_output_adapter@_W@__crt_stdio_output@@@2@@__crt_stdio_output@@AEBA_NI@Z 0000000180034350 f i libucrt:output.obj
 0001:00033358       ?has_flag@?$output_processor@_WV?$stream_output_adapter@_W@__crt_stdio_output@@V?$positional_parameter_base@_WV?$stream_output_adapter@_W@__crt_stdio_output@@@2@@__crt_stdio_output@@AEBA_NI@Z 0000000180034358 f i libucrt:output.obj
 0001:00033360       ?has_flag@?$output_processor@_WV?$stream_output_adapter@_W@__crt_stdio_output@@V?$standard_base@_WV?$stream_output_adapter@_W@__crt_stdio_output@@@2@@__crt_stdio_output@@AEBA_NI@Z 0000000180034360 f i libucrt:output.obj
 0001:00033368       ?has_flag@?$output_processor@_WV?$string_output_adapter@_W@__crt_stdio_output@@V?$format_validation_base@_WV?$string_output_adapter@_W@__crt_stdio_output@@@2@@__crt_stdio_output@@AEBA_NI@Z 0000000180034368 f i libucrt:output.obj
 0001:00033370       ?has_flag@?$output_processor@_WV?$string_output_adapter@_W@__crt_stdio_output@@V?$positional_parameter_base@_WV?$string_output_adapter@_W@__crt_stdio_output@@@2@@__crt_stdio_output@@AEBA_NI@Z 0000000180034370 f i libucrt:output.obj
 0001:00033378       ?has_flag@?$output_processor@_WV?$string_output_adapter@_W@__crt_stdio_output@@V?$standard_base@_WV?$string_output_adapter@_W@__crt_stdio_output@@@2@@__crt_stdio_output@@AEBA_NI@Z 0000000180034378 f i libucrt:output.obj
 0001:00033380       ?is_positional_parameter_reappearance_consistent@?$positional_parameter_base@DV?$stream_output_adapter@D@__crt_stdio_output@@@__crt_stdio_output@@AEAA_NAEBUparameter_data@12@W4parameter_type@12@DW4length_modifier@2@@Z 0000000180034380 f i libucrt:output.obj
 0001:00033644       ?is_positional_parameter_reappearance_consistent@?$positional_parameter_base@DV?$string_output_adapter@D@__crt_stdio_output@@@__crt_stdio_output@@AEAA_NAEBUparameter_data@12@W4parameter_type@12@DW4length_modifier@2@@Z 0000000180034644 f i libucrt:output.obj
 0001:00033908       ?is_positional_parameter_reappearance_consistent@?$positional_parameter_base@_WV?$stream_output_adapter@_W@__crt_stdio_output@@@__crt_stdio_output@@AEAA_NAEBUparameter_data@12@W4parameter_type@12@_WW4length_modifier@2@@Z 0000000180034908 f i libucrt:output.obj
 0001:00033b8c       ?is_positional_parameter_reappearance_consistent@?$positional_parameter_base@_WV?$string_output_adapter@_W@__crt_stdio_output@@@__crt_stdio_output@@AEAA_NAEBUparameter_data@12@W4parameter_type@12@_WW4length_modifier@2@@Z 0000000180034b8c f i libucrt:output.obj
 0001:00033e10       ?is_string_backed@__crt_stdio_stream@@QEBA_NXZ 0000000180034e10 f i libucrt:output.obj
 0001:00033e20       ?maximum_signed_value@__crt_strtox@@YAJK@Z 0000000180034e20 f i libucrt:output.obj
 0001:00033e28       ?minimum_signed_value@__crt_strtox@@YAJK@Z 0000000180034e28 f i libucrt:output.obj
 0001:00033e30       ?narrow_null_string@?$output_processor@DV?$stream_output_adapter@D@__crt_stdio_output@@V?$format_validation_base@DV?$stream_output_adapter@D@__crt_stdio_output@@@2@@__crt_stdio_output@@CAPEADXZ 0000000180034e30 f i libucrt:output.obj
 0001:00033e3c       ?narrow_null_string@?$output_processor@DV?$stream_output_adapter@D@__crt_stdio_output@@V?$positional_parameter_base@DV?$stream_output_adapter@D@__crt_stdio_output@@@2@@__crt_stdio_output@@CAPEADXZ 0000000180034e3c f i libucrt:output.obj
 0001:00033e48       ?narrow_null_string@?$output_processor@DV?$stream_output_adapter@D@__crt_stdio_output@@V?$standard_base@DV?$stream_output_adapter@D@__crt_stdio_output@@@2@@__crt_stdio_output@@CAPEADXZ 0000000180034e48 f i libucrt:output.obj
 0001:00033e54       ?narrow_null_string@?$output_processor@DV?$string_output_adapter@D@__crt_stdio_output@@V?$format_validation_base@DV?$string_output_adapter@D@__crt_stdio_output@@@2@@__crt_stdio_output@@CAPEADXZ 0000000180034e54 f i libucrt:output.obj
 0001:00033e60       ?narrow_null_string@?$output_processor@DV?$string_output_adapter@D@__crt_stdio_output@@V?$positional_parameter_base@DV?$string_output_adapter@D@__crt_stdio_output@@@2@@__crt_stdio_output@@CAPEADXZ 0000000180034e60 f i libucrt:output.obj
 0001:00033e6c       ?narrow_null_string@?$output_processor@DV?$string_output_adapter@D@__crt_stdio_output@@V?$standard_base@DV?$string_output_adapter@D@__crt_stdio_output@@@2@@__crt_stdio_output@@CAPEADXZ 0000000180034e6c f i libucrt:output.obj
 0001:00033e78       ?narrow_null_string@?$output_processor@_WV?$stream_output_adapter@_W@__crt_stdio_output@@V?$format_validation_base@_WV?$stream_output_adapter@_W@__crt_stdio_output@@@2@@__crt_stdio_output@@CAPEADXZ 0000000180034e78 f i libucrt:output.obj
 0001:00033e84       ?narrow_null_string@?$output_processor@_WV?$stream_output_adapter@_W@__crt_stdio_output@@V?$positional_parameter_base@_WV?$stream_output_adapter@_W@__crt_stdio_output@@@2@@__crt_stdio_output@@CAPEADXZ 0000000180034e84 f i libucrt:output.obj
 0001:00033e90       ?narrow_null_string@?$output_processor@_WV?$stream_output_adapter@_W@__crt_stdio_output@@V?$standard_base@_WV?$stream_output_adapter@_W@__crt_stdio_output@@@2@@__crt_stdio_output@@CAPEADXZ 0000000180034e90 f i libucrt:output.obj
 0001:00033e9c       ?narrow_null_string@?$output_processor@_WV?$string_output_adapter@_W@__crt_stdio_output@@V?$format_validation_base@_WV?$string_output_adapter@_W@__crt_stdio_output@@@2@@__crt_stdio_output@@CAPEADXZ 0000000180034e9c f i libucrt:output.obj
 0001:00033ea8       ?narrow_null_string@?$output_processor@_WV?$string_output_adapter@_W@__crt_stdio_output@@V?$positional_parameter_base@_WV?$string_output_adapter@_W@__crt_stdio_output@@@2@@__crt_stdio_output@@CAPEADXZ 0000000180034ea8 f i libucrt:output.obj
 0001:00033eb4       ?narrow_null_string@?$output_processor@_WV?$string_output_adapter@_W@__crt_stdio_output@@V?$standard_base@_WV?$string_output_adapter@_W@__crt_stdio_output@@@2@@__crt_stdio_output@@CAPEADXZ 0000000180034eb4 f i libucrt:output.obj
 0001:00033ec0       ?parse_digit@__crt_strtox@@YAID@Z 0000000180034ec0 f i libucrt:output.obj
 0001:00033efc       ?parse_digit@__crt_strtox@@YAI_W@Z 0000000180034efc f i libucrt:output.obj
 0001:00034124       ?parse_int_from_format_string@?$output_processor@DV?$stream_output_adapter@D@__crt_stdio_output@@V?$format_validation_base@DV?$stream_output_adapter@D@__crt_stdio_output@@@2@@__crt_stdio_output@@AEAA_NQEAH@Z 0000000180035124 f i libucrt:output.obj
 0001:000341d4       ?parse_int_from_format_string@?$output_processor@DV?$stream_output_adapter@D@__crt_stdio_output@@V?$positional_parameter_base@DV?$stream_output_adapter@D@__crt_stdio_output@@@2@@__crt_stdio_output@@AEAA_NQEAH@Z 00000001800351d4 f i libucrt:output.obj
 0001:00034284       ?parse_int_from_format_string@?$output_processor@DV?$stream_output_adapter@D@__crt_stdio_output@@V?$standard_base@DV?$stream_output_adapter@D@__crt_stdio_output@@@2@@__crt_stdio_output@@AEAA_NQEAH@Z 0000000180035284 f i libucrt:output.obj
 0001:00034334       ?parse_int_from_format_string@?$output_processor@DV?$string_output_adapter@D@__crt_stdio_output@@V?$format_validation_base@DV?$string_output_adapter@D@__crt_stdio_output@@@2@@__crt_stdio_output@@AEAA_NQEAH@Z 0000000180035334 f i libucrt:output.obj
 0001:000343e4       ?parse_int_from_format_string@?$output_processor@DV?$string_output_adapter@D@__crt_stdio_output@@V?$positional_parameter_base@DV?$string_output_adapter@D@__crt_stdio_output@@@2@@__crt_stdio_output@@AEAA_NQEAH@Z 00000001800353e4 f i libucrt:output.obj
 0001:00034494       ?parse_int_from_format_string@?$output_processor@DV?$string_output_adapter@D@__crt_stdio_output@@V?$standard_base@DV?$string_output_adapter@D@__crt_stdio_output@@@2@@__crt_stdio_output@@AEAA_NQEAH@Z 0000000180035494 f i libucrt:output.obj
 0001:00034544       ?parse_int_from_format_string@?$output_processor@_WV?$stream_output_adapter@_W@__crt_stdio_output@@V?$format_validation_base@_WV?$stream_output_adapter@_W@__crt_stdio_output@@@2@@__crt_stdio_output@@AEAA_NQEAH@Z 0000000180035544 f i libucrt:output.obj
 0001:000345f8       ?parse_int_from_format_string@?$output_processor@_WV?$stream_output_adapter@_W@__crt_stdio_output@@V?$positional_parameter_base@_WV?$stream_output_adapter@_W@__crt_stdio_output@@@2@@__crt_stdio_output@@AEAA_NQEAH@Z 00000001800355f8 f i libucrt:output.obj
 0001:000346ac       ?parse_int_from_format_string@?$output_processor@_WV?$stream_output_adapter@_W@__crt_stdio_output@@V?$standard_base@_WV?$stream_output_adapter@_W@__crt_stdio_output@@@2@@__crt_stdio_output@@AEAA_NQEAH@Z 00000001800356ac f i libucrt:output.obj
 0001:00034760       ?parse_int_from_format_string@?$output_processor@_WV?$string_output_adapter@_W@__crt_stdio_output@@V?$format_validation_base@_WV?$string_output_adapter@_W@__crt_stdio_output@@@2@@__crt_stdio_output@@AEAA_NQEAH@Z 0000000180035760 f i libucrt:output.obj
 0001:00034814       ?parse_int_from_format_string@?$output_processor@_WV?$string_output_adapter@_W@__crt_stdio_output@@V?$positional_parameter_base@_WV?$string_output_adapter@_W@__crt_stdio_output@@@2@@__crt_stdio_output@@AEAA_NQEAH@Z 0000000180035814 f i libucrt:output.obj
 0001:000348c8       ?parse_int_from_format_string@?$output_processor@_WV?$string_output_adapter@_W@__crt_stdio_output@@V?$standard_base@_WV?$string_output_adapter@_W@__crt_stdio_output@@@2@@__crt_stdio_output@@AEAA_NQEAH@Z 00000001800358c8 f i libucrt:output.obj
 0001:0003497c       ?process@?$output_processor@DV?$stream_output_adapter@D@__crt_stdio_output@@V?$format_validation_base@DV?$stream_output_adapter@D@__crt_stdio_output@@@2@@__crt_stdio_output@@QEAAHXZ 000000018003597c f i libucrt:output.obj
 0001:00034e00       ?process@?$output_processor@DV?$stream_output_adapter@D@__crt_stdio_output@@V?$positional_parameter_base@DV?$stream_output_adapter@D@__crt_stdio_output@@@2@@__crt_stdio_output@@QEAAHXZ 0000000180035e00 f i libucrt:output.obj
 0001:00035340       ?process@?$output_processor@DV?$stream_output_adapter@D@__crt_stdio_output@@V?$standard_base@DV?$stream_output_adapter@D@__crt_stdio_output@@@2@@__crt_stdio_output@@QEAAHXZ 0000000180036340 f i libucrt:output.obj
 0001:000357bc       ?process@?$output_processor@DV?$string_output_adapter@D@__crt_stdio_output@@V?$format_validation_base@DV?$string_output_adapter@D@__crt_stdio_output@@@2@@__crt_stdio_output@@QEAAHXZ 00000001800367bc f i libucrt:output.obj
 0001:00035c20       ?process@?$output_processor@DV?$string_output_adapter@D@__crt_stdio_output@@V?$positional_parameter_base@DV?$string_output_adapter@D@__crt_stdio_output@@@2@@__crt_stdio_output@@QEAAHXZ 0000000180036c20 f i libucrt:output.obj
 0001:0003613c       ?process@?$output_processor@DV?$string_output_adapter@D@__crt_stdio_output@@V?$standard_base@DV?$string_output_adapter@D@__crt_stdio_output@@@2@@__crt_stdio_output@@QEAAHXZ 000000018003713c f i libucrt:output.obj
 0001:0003659c       ?process@?$output_processor@_WV?$stream_output_adapter@_W@__crt_stdio_output@@V?$format_validation_base@_WV?$stream_output_adapter@_W@__crt_stdio_output@@@2@@__crt_stdio_output@@QEAAHXZ 000000018003759c f i libucrt:output.obj
 0001:00036930       ?process@?$output_processor@_WV?$stream_output_adapter@_W@__crt_stdio_output@@V?$positional_parameter_base@_WV?$stream_output_adapter@_W@__crt_stdio_output@@@2@@__crt_stdio_output@@QEAAHXZ 0000000180037930 f i libucrt:output.obj
 0001:00036d7c       ?process@?$output_processor@_WV?$stream_output_adapter@_W@__crt_stdio_output@@V?$standard_base@_WV?$stream_output_adapter@_W@__crt_stdio_output@@@2@@__crt_stdio_output@@QEAAHXZ 0000000180037d7c f i libucrt:output.obj
 0001:00037100       ?process@?$output_processor@_WV?$string_output_adapter@_W@__crt_stdio_output@@V?$format_validation_base@_WV?$string_output_adapter@_W@__crt_stdio_output@@@2@@__crt_stdio_output@@QEAAHXZ 0000000180038100 f i libucrt:output.obj
 0001:0003748c       ?process@?$output_processor@_WV?$string_output_adapter@_W@__crt_stdio_output@@V?$positional_parameter_base@_WV?$string_output_adapter@_W@__crt_stdio_output@@@2@@__crt_stdio_output@@QEAAHXZ 000000018003848c f i libucrt:output.obj
 0001:000378d0       ?process@?$output_processor@_WV?$string_output_adapter@_W@__crt_stdio_output@@V?$standard_base@_WV?$string_output_adapter@_W@__crt_stdio_output@@@2@@__crt_stdio_output@@QEAAHXZ 00000001800388d0 f i libucrt:output.obj
 0001:00037c5c       ?public_stream@__crt_stdio_stream@@QEBAPEAU_iobuf@@XZ 0000000180038c5c f i libucrt:output.obj
 0001:00037c60       ?restore_state@?$c_string_character_source@D@__crt_strtox@@QEAA_NQEBD@Z 0000000180038c60 f i libucrt:output.obj
 0001:00037c68       ?restore_state@?$c_string_character_source@_W@__crt_strtox@@QEAA_NQEB_W@Z 0000000180038c68 f i libucrt:output.obj
 0001:00037c70       ?save_state@?$c_string_character_source@D@__crt_strtox@@QEBAPEBDXZ 0000000180038c70 f i libucrt:output.obj
 0001:00037c74       ?save_state@?$c_string_character_source@_W@__crt_strtox@@QEBAPEB_WXZ 0000000180038c74 f i libucrt:output.obj
 0001:00037c78       ?set@?$cached@H@__crt_cached_ptd_host@@QEAAHH@Z 0000000180038c78 f i libucrt:output.obj
 0001:00037c84       ?set_flag@?$output_processor@DV?$stream_output_adapter@D@__crt_stdio_output@@V?$format_validation_base@DV?$stream_output_adapter@D@__crt_stdio_output@@@2@@__crt_stdio_output@@AEAAXI@Z 0000000180038c84 f i libucrt:output.obj
 0001:00037c88       ?set_flag@?$output_processor@DV?$stream_output_adapter@D@__crt_stdio_output@@V?$positional_parameter_base@DV?$stream_output_adapter@D@__crt_stdio_output@@@2@@__crt_stdio_output@@AEAAXI@Z 0000000180038c88 f i libucrt:output.obj
 0001:00037c8c       ?set_flag@?$output_processor@DV?$stream_output_adapter@D@__crt_stdio_output@@V?$standard_base@DV?$stream_output_adapter@D@__crt_stdio_output@@@2@@__crt_stdio_output@@AEAAXI@Z 0000000180038c8c f i libucrt:output.obj
 0001:00037c90       ?set_flag@?$output_processor@DV?$string_output_adapter@D@__crt_stdio_output@@V?$format_validation_base@DV?$string_output_adapter@D@__crt_stdio_output@@@2@@__crt_stdio_output@@AEAAXI@Z 0000000180038c90 f i libucrt:output.obj
 0001:00037c94       ?set_flag@?$output_processor@DV?$string_output_adapter@D@__crt_stdio_output@@V?$positional_parameter_base@DV?$string_output_adapter@D@__crt_stdio_output@@@2@@__crt_stdio_output@@AEAAXI@Z 0000000180038c94 f i libucrt:output.obj
 0001:00037c98       ?set_flag@?$output_processor@DV?$string_output_adapter@D@__crt_stdio_output@@V?$standard_base@DV?$string_output_adapter@D@__crt_stdio_output@@@2@@__crt_stdio_output@@AEAAXI@Z 0000000180038c98 f i libucrt:output.obj
 0001:00037c9c       ?set_flag@?$output_processor@_WV?$stream_output_adapter@_W@__crt_stdio_output@@V?$format_validation_base@_WV?$stream_output_adapter@_W@__crt_stdio_output@@@2@@__crt_stdio_output@@AEAAXI@Z 0000000180038c9c f i libucrt:output.obj
 0001:00037ca0       ?set_flag@?$output_processor@_WV?$stream_output_adapter@_W@__crt_stdio_output@@V?$positional_parameter_base@_WV?$stream_output_adapter@_W@__crt_stdio_output@@@2@@__crt_stdio_output@@AEAAXI@Z 0000000180038ca0 f i libucrt:output.obj
 0001:00037ca4       ?set_flag@?$output_processor@_WV?$stream_output_adapter@_W@__crt_stdio_output@@V?$standard_base@_WV?$stream_output_adapter@_W@__crt_stdio_output@@@2@@__crt_stdio_output@@AEAAXI@Z 0000000180038ca4 f i libucrt:output.obj
 0001:00037ca8       ?set_flag@?$output_processor@_WV?$string_output_adapter@_W@__crt_stdio_output@@V?$format_validation_base@_WV?$string_output_adapter@_W@__crt_stdio_output@@@2@@__crt_stdio_output@@AEAAXI@Z 0000000180038ca8 f i libucrt:output.obj
 0001:00037cac       ?set_flag@?$output_processor@_WV?$string_output_adapter@_W@__crt_stdio_output@@V?$positional_parameter_base@_WV?$string_output_adapter@_W@__crt_stdio_output@@@2@@__crt_stdio_output@@AEAAXI@Z 0000000180038cac f i libucrt:output.obj
 0001:00037cb0       ?set_flag@?$output_processor@_WV?$string_output_adapter@_W@__crt_stdio_output@@V?$standard_base@_WV?$string_output_adapter@_W@__crt_stdio_output@@@2@@__crt_stdio_output@@AEAAXI@Z 0000000180038cb0 f i libucrt:output.obj
 0001:00037cb4       ?should_format@?$positional_parameter_base@DV?$stream_output_adapter@D@__crt_stdio_output@@@__crt_stdio_output@@IEAA_NXZ 0000000180038cb4 f i libucrt:output.obj
 0001:00037cd4       ?should_format@?$positional_parameter_base@DV?$string_output_adapter@D@__crt_stdio_output@@@__crt_stdio_output@@IEAA_NXZ 0000000180038cd4 f i libucrt:output.obj
 0001:00037cf4       ?should_format@?$positional_parameter_base@_WV?$stream_output_adapter@_W@__crt_stdio_output@@@__crt_stdio_output@@IEAA_NXZ 0000000180038cf4 f i libucrt:output.obj
 0001:00037d14       ?should_format@?$positional_parameter_base@_WV?$string_output_adapter@_W@__crt_stdio_output@@@__crt_stdio_output@@IEAA_NXZ 0000000180038d14 f i libucrt:output.obj
 0001:00037d34       ?should_format@?$standard_base@DV?$stream_output_adapter@D@__crt_stdio_output@@@__crt_stdio_output@@IEAA_NXZ 0000000180038d34 f i libucrt:output.obj
 0001:00037d38       ?should_format@?$standard_base@DV?$string_output_adapter@D@__crt_stdio_output@@@__crt_stdio_output@@IEAA_NXZ 0000000180038d38 f i libucrt:output.obj
 0001:00037d3c       ?should_format@?$standard_base@_WV?$stream_output_adapter@_W@__crt_stdio_output@@@__crt_stdio_output@@IEAA_NXZ 0000000180038d3c f i libucrt:output.obj
 0001:00037d40       ?should_format@?$standard_base@_WV?$string_output_adapter@_W@__crt_stdio_output@@@__crt_stdio_output@@IEAA_NXZ 0000000180038d40 f i libucrt:output.obj
 0001:00037d44       ?should_skip_normal_state_processing@?$positional_parameter_base@DV?$stream_output_adapter@D@__crt_stdio_output@@@__crt_stdio_output@@IEAA_NXZ 0000000180038d44 f i libucrt:output.obj
 0001:00037d78       ?should_skip_normal_state_processing@?$positional_parameter_base@DV?$string_output_adapter@D@__crt_stdio_output@@@__crt_stdio_output@@IEAA_NXZ 0000000180038d78 f i libucrt:output.obj
 0001:00037dac       ?should_skip_normal_state_processing@?$positional_parameter_base@_WV?$stream_output_adapter@_W@__crt_stdio_output@@@__crt_stdio_output@@IEAA_NXZ 0000000180038dac f i libucrt:output.obj
 0001:00037de0       ?should_skip_normal_state_processing@?$positional_parameter_base@_WV?$string_output_adapter@_W@__crt_stdio_output@@@__crt_stdio_output@@IEAA_NXZ 0000000180038de0 f i libucrt:output.obj
 0001:00037e14       ?should_skip_normal_state_processing@?$standard_base@DV?$stream_output_adapter@D@__crt_stdio_output@@@__crt_stdio_output@@IEAA_NXZ 0000000180038e14 f i libucrt:output.obj
 0001:00037e18       ?should_skip_normal_state_processing@?$standard_base@DV?$string_output_adapter@D@__crt_stdio_output@@@__crt_stdio_output@@IEAA_NXZ 0000000180038e18 f i libucrt:output.obj
 0001:00037e1c       ?should_skip_normal_state_processing@?$standard_base@_WV?$stream_output_adapter@_W@__crt_stdio_output@@@__crt_stdio_output@@IEAA_NXZ 0000000180038e1c f i libucrt:output.obj
 0001:00037e20       ?should_skip_normal_state_processing@?$standard_base@_WV?$string_output_adapter@_W@__crt_stdio_output@@@__crt_stdio_output@@IEAA_NXZ 0000000180038e20 f i libucrt:output.obj
 0001:00037e24       ?should_skip_type_state_output@?$positional_parameter_base@DV?$stream_output_adapter@D@__crt_stdio_output@@@__crt_stdio_output@@IEBA_NXZ 0000000180038e24 f i libucrt:output.obj
 0001:00037e44       ?should_skip_type_state_output@?$positional_parameter_base@DV?$string_output_adapter@D@__crt_stdio_output@@@__crt_stdio_output@@IEBA_NXZ 0000000180038e44 f i libucrt:output.obj
 0001:00037e64       ?should_skip_type_state_output@?$positional_parameter_base@_WV?$stream_output_adapter@_W@__crt_stdio_output@@@__crt_stdio_output@@IEBA_NXZ 0000000180038e64 f i libucrt:output.obj
 0001:00037e84       ?should_skip_type_state_output@?$positional_parameter_base@_WV?$string_output_adapter@_W@__crt_stdio_output@@@__crt_stdio_output@@IEBA_NXZ 0000000180038e84 f i libucrt:output.obj
 0001:00037ea4       ?should_skip_type_state_output@?$standard_base@DV?$stream_output_adapter@D@__crt_stdio_output@@@__crt_stdio_output@@IEBA_NXZ 0000000180038ea4 f i libucrt:output.obj
 0001:00037ea8       ?should_skip_type_state_output@?$standard_base@DV?$string_output_adapter@D@__crt_stdio_output@@@__crt_stdio_output@@IEBA_NXZ 0000000180038ea8 f i libucrt:output.obj
 0001:00037eac       ?should_skip_type_state_output@?$standard_base@_WV?$stream_output_adapter@_W@__crt_stdio_output@@@__crt_stdio_output@@IEBA_NXZ 0000000180038eac f i libucrt:output.obj
 0001:00037eb0       ?should_skip_type_state_output@?$standard_base@_WV?$string_output_adapter@_W@__crt_stdio_output@@@__crt_stdio_output@@IEBA_NXZ 0000000180038eb0 f i libucrt:output.obj
 0001:00037eb4       ?state_case_dot@?$output_processor@DV?$stream_output_adapter@D@__crt_stdio_output@@V?$format_validation_base@DV?$stream_output_adapter@D@__crt_stdio_output@@@2@@__crt_stdio_output@@AEAA_NXZ 0000000180038eb4 f i libucrt:output.obj
 0001:00037ebc       ?state_case_dot@?$output_processor@DV?$stream_output_adapter@D@__crt_stdio_output@@V?$positional_parameter_base@DV?$stream_output_adapter@D@__crt_stdio_output@@@2@@__crt_stdio_output@@AEAA_NXZ 0000000180038ebc f i libucrt:output.obj
 0001:00037ec4       ?state_case_dot@?$output_processor@DV?$stream_output_adapter@D@__crt_stdio_output@@V?$standard_base@DV?$stream_output_adapter@D@__crt_stdio_output@@@2@@__crt_stdio_output@@AEAA_NXZ 0000000180038ec4 f i libucrt:output.obj
 0001:00037ecc       ?state_case_dot@?$output_processor@DV?$string_output_adapter@D@__crt_stdio_output@@V?$format_validation_base@DV?$string_output_adapter@D@__crt_stdio_output@@@2@@__crt_stdio_output@@AEAA_NXZ 0000000180038ecc f i libucrt:output.obj
 0001:00037ed4       ?state_case_dot@?$output_processor@DV?$string_output_adapter@D@__crt_stdio_output@@V?$positional_parameter_base@DV?$string_output_adapter@D@__crt_stdio_output@@@2@@__crt_stdio_output@@AEAA_NXZ 0000000180038ed4 f i libucrt:output.obj
 0001:00037edc       ?state_case_dot@?$output_processor@DV?$string_output_adapter@D@__crt_stdio_output@@V?$standard_base@DV?$string_output_adapter@D@__crt_stdio_output@@@2@@__crt_stdio_output@@AEAA_NXZ 0000000180038edc f i libucrt:output.obj
 0001:00037ee4       ?state_case_dot@?$output_processor@_WV?$stream_output_adapter@_W@__crt_stdio_output@@V?$format_validation_base@_WV?$stream_output_adapter@_W@__crt_stdio_output@@@2@@__crt_stdio_output@@AEAA_NXZ 0000000180038ee4 f i libucrt:output.obj
 0001:00037eec       ?state_case_dot@?$output_processor@_WV?$stream_output_adapter@_W@__crt_stdio_output@@V?$positional_parameter_base@_WV?$stream_output_adapter@_W@__crt_stdio_output@@@2@@__crt_stdio_output@@AEAA_NXZ 0000000180038eec f i libucrt:output.obj
 0001:00037ef4       ?state_case_dot@?$output_processor@_WV?$stream_output_adapter@_W@__crt_stdio_output@@V?$standard_base@_WV?$stream_output_adapter@_W@__crt_stdio_output@@@2@@__crt_stdio_output@@AEAA_NXZ 0000000180038ef4 f i libucrt:output.obj
 0001:00037efc       ?state_case_dot@?$output_processor@_WV?$string_output_adapter@_W@__crt_stdio_output@@V?$format_validation_base@_WV?$string_output_adapter@_W@__crt_stdio_output@@@2@@__crt_stdio_output@@AEAA_NXZ 0000000180038efc f i libucrt:output.obj
 0001:00037f04       ?state_case_dot@?$output_processor@_WV?$string_output_adapter@_W@__crt_stdio_output@@V?$positional_parameter_base@_WV?$string_output_adapter@_W@__crt_stdio_output@@@2@@__crt_stdio_output@@AEAA_NXZ 0000000180038f04 f i libucrt:output.obj
 0001:00037f0c       ?state_case_dot@?$output_processor@_WV?$string_output_adapter@_W@__crt_stdio_output@@V?$standard_base@_WV?$string_output_adapter@_W@__crt_stdio_output@@@2@@__crt_stdio_output@@AEAA_NXZ 0000000180038f0c f i libucrt:output.obj
 0001:00037f14       ?state_case_flag@?$output_processor@DV?$stream_output_adapter@D@__crt_stdio_output@@V?$format_validation_base@DV?$stream_output_adapter@D@__crt_stdio_output@@@2@@__crt_stdio_output@@AEAA_NXZ 0000000180038f14 f i libucrt:output.obj
 0001:00037f58       ?state_case_flag@?$output_processor@DV?$stream_output_adapter@D@__crt_stdio_output@@V?$positional_parameter_base@DV?$stream_output_adapter@D@__crt_stdio_output@@@2@@__crt_stdio_output@@AEAA_NXZ 0000000180038f58 f i libucrt:output.obj
 0001:00037f9c       ?state_case_flag@?$output_processor@DV?$stream_output_adapter@D@__crt_stdio_output@@V?$standard_base@DV?$stream_output_adapter@D@__crt_stdio_output@@@2@@__crt_stdio_output@@AEAA_NXZ 0000000180038f9c f i libucrt:output.obj
 0001:00037fe0       ?state_case_flag@?$output_processor@DV?$string_output_adapter@D@__crt_stdio_output@@V?$format_validation_base@DV?$string_output_adapter@D@__crt_stdio_output@@@2@@__crt_stdio_output@@AEAA_NXZ 0000000180038fe0 f i libucrt:output.obj
 0001:00038024       ?state_case_flag@?$output_processor@DV?$string_output_adapter@D@__crt_stdio_output@@V?$positional_parameter_base@DV?$string_output_adapter@D@__crt_stdio_output@@@2@@__crt_stdio_output@@AEAA_NXZ 0000000180039024 f i libucrt:output.obj
 0001:00038068       ?state_case_flag@?$output_processor@DV?$string_output_adapter@D@__crt_stdio_output@@V?$standard_base@DV?$string_output_adapter@D@__crt_stdio_output@@@2@@__crt_stdio_output@@AEAA_NXZ 0000000180039068 f i libucrt:output.obj
 0001:000380ac       ?state_case_flag@?$output_processor@_WV?$stream_output_adapter@_W@__crt_stdio_output@@V?$format_validation_base@_WV?$stream_output_adapter@_W@__crt_stdio_output@@@2@@__crt_stdio_output@@AEAA_NXZ 00000001800390ac f i libucrt:output.obj
 0001:00038104       ?state_case_flag@?$output_processor@_WV?$stream_output_adapter@_W@__crt_stdio_output@@V?$positional_parameter_base@_WV?$stream_output_adapter@_W@__crt_stdio_output@@@2@@__crt_stdio_output@@AEAA_NXZ 0000000180039104 f i libucrt:output.obj
 0001:0003815c       ?state_case_flag@?$output_processor@_WV?$stream_output_adapter@_W@__crt_stdio_output@@V?$standard_base@_WV?$stream_output_adapter@_W@__crt_stdio_output@@@2@@__crt_stdio_output@@AEAA_NXZ 000000018003915c f i libucrt:output.obj
 0001:000381b4       ?state_case_flag@?$output_processor@_WV?$string_output_adapter@_W@__crt_stdio_output@@V?$format_validation_base@_WV?$string_output_adapter@_W@__crt_stdio_output@@@2@@__crt_stdio_output@@AEAA_NXZ 00000001800391b4 f i libucrt:output.obj
 0001:0003820c       ?state_case_flag@?$output_processor@_WV?$string_output_adapter@_W@__crt_stdio_output@@V?$positional_parameter_base@_WV?$string_output_adapter@_W@__crt_stdio_output@@@2@@__crt_stdio_output@@AEAA_NXZ 000000018003920c f i libucrt:output.obj
 0001:00038264       ?state_case_flag@?$output_processor@_WV?$string_output_adapter@_W@__crt_stdio_output@@V?$standard_base@_WV?$string_output_adapter@_W@__crt_stdio_output@@@2@@__crt_stdio_output@@AEAA_NXZ 0000000180039264 f i libucrt:output.obj
 0001:000382bc       ?state_case_normal@?$output_processor@DV?$stream_output_adapter@D@__crt_stdio_output@@V?$format_validation_base@DV?$stream_output_adapter@D@__crt_stdio_output@@@2@@__crt_stdio_output@@AEAA_NXZ 00000001800392bc f i libucrt:output.obj
 0001:00038464       ?state_case_normal@?$output_processor@DV?$stream_output_adapter@D@__crt_stdio_output@@V?$positional_parameter_base@DV?$stream_output_adapter@D@__crt_stdio_output@@@2@@__crt_stdio_output@@AEAA_NXZ 0000000180039464 f i libucrt:output.obj
 0001:00038644       ?state_case_normal@?$output_processor@DV?$stream_output_adapter@D@__crt_stdio_output@@V?$standard_base@DV?$stream_output_adapter@D@__crt_stdio_output@@@2@@__crt_stdio_output@@AEAA_NXZ 0000000180039644 f i libucrt:output.obj
 0001:000387ec       ?state_case_normal@?$output_processor@DV?$string_output_adapter@D@__crt_stdio_output@@V?$format_validation_base@DV?$string_output_adapter@D@__crt_stdio_output@@@2@@__crt_stdio_output@@AEAA_NXZ 00000001800397ec f i libucrt:output.obj
 0001:0003898c       ?state_case_normal@?$output_processor@DV?$string_output_adapter@D@__crt_stdio_output@@V?$positional_parameter_base@DV?$string_output_adapter@D@__crt_stdio_output@@@2@@__crt_stdio_output@@AEAA_NXZ 000000018003998c f i libucrt:output.obj
 0001:00038b60       ?state_case_normal@?$output_processor@DV?$string_output_adapter@D@__crt_stdio_output@@V?$standard_base@DV?$string_output_adapter@D@__crt_stdio_output@@@2@@__crt_stdio_output@@AEAA_NXZ 0000000180039b60 f i libucrt:output.obj
 0001:00038d00       ?state_case_normal@?$output_processor@_WV?$stream_output_adapter@_W@__crt_stdio_output@@V?$format_validation_base@_WV?$stream_output_adapter@_W@__crt_stdio_output@@@2@@__crt_stdio_output@@AEAA_NXZ 0000000180039d00 f i libucrt:output.obj
 0001:00038d74       ?state_case_normal@?$output_processor@_WV?$stream_output_adapter@_W@__crt_stdio_output@@V?$positional_parameter_base@_WV?$stream_output_adapter@_W@__crt_stdio_output@@@2@@__crt_stdio_output@@AEAA_NXZ 0000000180039d74 f i libucrt:output.obj
 0001:00038e18       ?state_case_normal@?$output_processor@_WV?$stream_output_adapter@_W@__crt_stdio_output@@V?$standard_base@_WV?$stream_output_adapter@_W@__crt_stdio_output@@@2@@__crt_stdio_output@@AEAA_NXZ 0000000180039e18 f i libucrt:output.obj
 0001:00038e8c       ?state_case_normal@?$output_processor@_WV?$string_output_adapter@_W@__crt_stdio_output@@V?$format_validation_base@_WV?$string_output_adapter@_W@__crt_stdio_output@@@2@@__crt_stdio_output@@AEAA_NXZ 0000000180039e8c f i libucrt:output.obj
 0001:00038ef8       ?state_case_normal@?$output_processor@_WV?$string_output_adapter@_W@__crt_stdio_output@@V?$positional_parameter_base@_WV?$string_output_adapter@_W@__crt_stdio_output@@@2@@__crt_stdio_output@@AEAA_NXZ 0000000180039ef8 f i libucrt:output.obj
 0001:00038f90       ?state_case_normal@?$output_processor@_WV?$string_output_adapter@_W@__crt_stdio_output@@V?$standard_base@_WV?$string_output_adapter@_W@__crt_stdio_output@@@2@@__crt_stdio_output@@AEAA_NXZ 0000000180039f90 f i libucrt:output.obj
 0001:00038ffc       ?state_case_normal_common@?$output_processor@DV?$stream_output_adapter@D@__crt_stdio_output@@V?$format_validation_base@DV?$stream_output_adapter@D@__crt_stdio_output@@@2@@__crt_stdio_output@@AEAA_NXZ 0000000180039ffc f i libucrt:output.obj
 0001:00039170       ?state_case_normal_common@?$output_processor@DV?$stream_output_adapter@D@__crt_stdio_output@@V?$positional_parameter_base@DV?$stream_output_adapter@D@__crt_stdio_output@@@2@@__crt_stdio_output@@AEAA_NXZ 000000018003a170 f i libucrt:output.obj
 0001:000392e4       ?state_case_normal_common@?$output_processor@DV?$stream_output_adapter@D@__crt_stdio_output@@V?$standard_base@DV?$stream_output_adapter@D@__crt_stdio_output@@@2@@__crt_stdio_output@@AEAA_NXZ 000000018003a2e4 f i libucrt:output.obj
 0001:00039458       ?state_case_normal_common@?$output_processor@DV?$string_output_adapter@D@__crt_stdio_output@@V?$format_validation_base@DV?$string_output_adapter@D@__crt_stdio_output@@@2@@__crt_stdio_output@@AEAA_NXZ 000000018003a458 f i libucrt:output.obj
 0001:000395c4       ?state_case_normal_common@?$output_processor@DV?$string_output_adapter@D@__crt_stdio_output@@V?$positional_parameter_base@DV?$string_output_adapter@D@__crt_stdio_output@@@2@@__crt_stdio_output@@AEAA_NXZ 000000018003a5c4 f i libucrt:output.obj
 0001:00039730       ?state_case_normal_common@?$output_processor@DV?$string_output_adapter@D@__crt_stdio_output@@V?$standard_base@DV?$string_output_adapter@D@__crt_stdio_output@@@2@@__crt_stdio_output@@AEAA_NXZ 000000018003a730 f i libucrt:output.obj
 0001:0003989c       ?state_case_normal_common@?$output_processor@_WV?$stream_output_adapter@_W@__crt_stdio_output@@V?$format_validation_base@_WV?$stream_output_adapter@_W@__crt_stdio_output@@@2@@__crt_stdio_output@@AEAA_NXZ 000000018003a89c f i libucrt:output.obj
 0001:00039910       ?state_case_normal_common@?$output_processor@_WV?$stream_output_adapter@_W@__crt_stdio_output@@V?$positional_parameter_base@_WV?$stream_output_adapter@_W@__crt_stdio_output@@@2@@__crt_stdio_output@@AEAA_NXZ 000000018003a910 f i libucrt:output.obj
 0001:00039984       ?state_case_normal_common@?$output_processor@_WV?$stream_output_adapter@_W@__crt_stdio_output@@V?$standard_base@_WV?$stream_output_adapter@_W@__crt_stdio_output@@@2@@__crt_stdio_output@@AEAA_NXZ 000000018003a984 f i libucrt:output.obj
 0001:000399f8       ?state_case_normal_common@?$output_processor@_WV?$string_output_adapter@_W@__crt_stdio_output@@V?$format_validation_base@_WV?$string_output_adapter@_W@__crt_stdio_output@@@2@@__crt_stdio_output@@AEAA_NXZ 000000018003a9f8 f i libucrt:output.obj
 0001:00039a64       ?state_case_normal_common@?$output_processor@_WV?$string_output_adapter@_W@__crt_stdio_output@@V?$positional_parameter_base@_WV?$string_output_adapter@_W@__crt_stdio_output@@@2@@__crt_stdio_output@@AEAA_NXZ 000000018003aa64 f i libucrt:output.obj
 0001:00039ad0       ?state_case_normal_common@?$output_processor@_WV?$string_output_adapter@_W@__crt_stdio_output@@V?$standard_base@_WV?$string_output_adapter@_W@__crt_stdio_output@@@2@@__crt_stdio_output@@AEAA_NXZ 000000018003aad0 f i libucrt:output.obj
 0001:00039b3c       ?state_case_normal_tchar@?$output_processor@DV?$stream_output_adapter@D@__crt_stdio_output@@V?$format_validation_base@DV?$stream_output_adapter@D@__crt_stdio_output@@@2@@__crt_stdio_output@@AEAA_ND@Z 000000018003ab3c f i libucrt:output.obj
 0001:00039c50       ?state_case_normal_tchar@?$output_processor@DV?$stream_output_adapter@D@__crt_stdio_output@@V?$positional_parameter_base@DV?$stream_output_adapter@D@__crt_stdio_output@@@2@@__crt_stdio_output@@AEAA_ND@Z 000000018003ac50 f i libucrt:output.obj
 0001:00039d64       ?state_case_normal_tchar@?$output_processor@DV?$stream_output_adapter@D@__crt_stdio_output@@V?$standard_base@DV?$stream_output_adapter@D@__crt_stdio_output@@@2@@__crt_stdio_output@@AEAA_ND@Z 000000018003ad64 f i libucrt:output.obj
 0001:00039e78       ?state_case_normal_tchar@?$output_processor@DV?$string_output_adapter@D@__crt_stdio_output@@V?$format_validation_base@DV?$string_output_adapter@D@__crt_stdio_output@@@2@@__crt_stdio_output@@AEAA_ND@Z 000000018003ae78 f i libucrt:output.obj
 0001:00039f8c       ?state_case_normal_tchar@?$output_processor@DV?$string_output_adapter@D@__crt_stdio_output@@V?$positional_parameter_base@DV?$string_output_adapter@D@__crt_stdio_output@@@2@@__crt_stdio_output@@AEAA_ND@Z 000000018003af8c f i libucrt:output.obj
 0001:0003a0a0       ?state_case_normal_tchar@?$output_processor@DV?$string_output_adapter@D@__crt_stdio_output@@V?$standard_base@DV?$string_output_adapter@D@__crt_stdio_output@@@2@@__crt_stdio_output@@AEAA_ND@Z 000000018003b0a0 f i libucrt:output.obj
 0001:0003a1b4       ?state_case_normal_tchar@?$output_processor@_WV?$stream_output_adapter@_W@__crt_stdio_output@@V?$format_validation_base@_WV?$stream_output_adapter@_W@__crt_stdio_output@@@2@@__crt_stdio_output@@AEAA_N_W@Z 000000018003b1b4 f i libucrt:output.obj
 0001:0003a1bc       ?state_case_normal_tchar@?$output_processor@_WV?$stream_output_adapter@_W@__crt_stdio_output@@V?$positional_parameter_base@_WV?$stream_output_adapter@_W@__crt_stdio_output@@@2@@__crt_stdio_output@@AEAA_N_W@Z 000000018003b1bc f i libucrt:output.obj
 0001:0003a1c4       ?state_case_normal_tchar@?$output_processor@_WV?$stream_output_adapter@_W@__crt_stdio_output@@V?$standard_base@_WV?$stream_output_adapter@_W@__crt_stdio_output@@@2@@__crt_stdio_output@@AEAA_N_W@Z 000000018003b1c4 f i libucrt:output.obj
 0001:0003a1cc       ?state_case_normal_tchar@?$output_processor@_WV?$string_output_adapter@_W@__crt_stdio_output@@V?$format_validation_base@_WV?$string_output_adapter@_W@__crt_stdio_output@@@2@@__crt_stdio_output@@AEAA_N_W@Z 000000018003b1cc f i libucrt:output.obj
 0001:0003a1d4       ?state_case_normal_tchar@?$output_processor@_WV?$string_output_adapter@_W@__crt_stdio_output@@V?$positional_parameter_base@_WV?$string_output_adapter@_W@__crt_stdio_output@@@2@@__crt_stdio_output@@AEAA_N_W@Z 000000018003b1d4 f i libucrt:output.obj
 0001:0003a1dc       ?state_case_normal_tchar@?$output_processor@_WV?$string_output_adapter@_W@__crt_stdio_output@@V?$standard_base@_WV?$string_output_adapter@_W@__crt_stdio_output@@@2@@__crt_stdio_output@@AEAA_N_W@Z 000000018003b1dc f i libucrt:output.obj
 0001:0003a1e4       ?state_case_percent@?$output_processor@DV?$stream_output_adapter@D@__crt_stdio_output@@V?$format_validation_base@DV?$stream_output_adapter@D@__crt_stdio_output@@@2@@__crt_stdio_output@@AEAA_NXZ 000000018003b1e4 f i libucrt:output.obj
 0001:0003a200       ?state_case_percent@?$output_processor@DV?$stream_output_adapter@D@__crt_stdio_output@@V?$positional_parameter_base@DV?$stream_output_adapter@D@__crt_stdio_output@@@2@@__crt_stdio_output@@AEAA_NXZ 000000018003b200 f i libucrt:output.obj
 0001:0003a21c       ?state_case_percent@?$output_processor@DV?$stream_output_adapter@D@__crt_stdio_output@@V?$standard_base@DV?$stream_output_adapter@D@__crt_stdio_output@@@2@@__crt_stdio_output@@AEAA_NXZ 000000018003b21c f i libucrt:output.obj
 0001:0003a238       ?state_case_percent@?$output_processor@DV?$string_output_adapter@D@__crt_stdio_output@@V?$format_validation_base@DV?$string_output_adapter@D@__crt_stdio_output@@@2@@__crt_stdio_output@@AEAA_NXZ 000000018003b238 f i libucrt:output.obj
 0001:0003a254       ?state_case_percent@?$output_processor@DV?$string_output_adapter@D@__crt_stdio_output@@V?$positional_parameter_base@DV?$string_output_adapter@D@__crt_stdio_output@@@2@@__crt_stdio_output@@AEAA_NXZ 000000018003b254 f i libucrt:output.obj
 0001:0003a270       ?state_case_percent@?$output_processor@DV?$string_output_adapter@D@__crt_stdio_output@@V?$standard_base@DV?$string_output_adapter@D@__crt_stdio_output@@@2@@__crt_stdio_output@@AEAA_NXZ 000000018003b270 f i libucrt:output.obj
 0001:0003a28c       ?state_case_percent@?$output_processor@_WV?$stream_output_adapter@_W@__crt_stdio_output@@V?$format_validation_base@_WV?$stream_output_adapter@_W@__crt_stdio_output@@@2@@__crt_stdio_output@@AEAA_NXZ 000000018003b28c f i libucrt:output.obj
 0001:0003a2a8       ?state_case_percent@?$output_processor@_WV?$stream_output_adapter@_W@__crt_stdio_output@@V?$positional_parameter_base@_WV?$stream_output_adapter@_W@__crt_stdio_output@@@2@@__crt_stdio_output@@AEAA_NXZ 000000018003b2a8 f i libucrt:output.obj
 0001:0003a2c4       ?state_case_percent@?$output_processor@_WV?$stream_output_adapter@_W@__crt_stdio_output@@V?$standard_base@_WV?$stream_output_adapter@_W@__crt_stdio_output@@@2@@__crt_stdio_output@@AEAA_NXZ 000000018003b2c4 f i libucrt:output.obj
 0001:0003a2e0       ?state_case_percent@?$output_processor@_WV?$string_output_adapter@_W@__crt_stdio_output@@V?$format_validation_base@_WV?$string_output_adapter@_W@__crt_stdio_output@@@2@@__crt_stdio_output@@AEAA_NXZ 000000018003b2e0 f i libucrt:output.obj
 0001:0003a2fc       ?state_case_percent@?$output_processor@_WV?$string_output_adapter@_W@__crt_stdio_output@@V?$positional_parameter_base@_WV?$string_output_adapter@_W@__crt_stdio_output@@@2@@__crt_stdio_output@@AEAA_NXZ 000000018003b2fc f i libucrt:output.obj
 0001:0003a318       ?state_case_percent@?$output_processor@_WV?$string_output_adapter@_W@__crt_stdio_output@@V?$standard_base@_WV?$string_output_adapter@_W@__crt_stdio_output@@@2@@__crt_stdio_output@@AEAA_NXZ 000000018003b318 f i libucrt:output.obj
 0001:0003a334       ?state_case_precision@?$output_processor@DV?$stream_output_adapter@D@__crt_stdio_output@@V?$format_validation_base@DV?$stream_output_adapter@D@__crt_stdio_output@@@2@@__crt_stdio_output@@AEAA_NXZ 000000018003b334 f i libucrt:output.obj
 0001:0003a370       ?state_case_precision@?$output_processor@DV?$stream_output_adapter@D@__crt_stdio_output@@V?$positional_parameter_base@DV?$stream_output_adapter@D@__crt_stdio_output@@@2@@__crt_stdio_output@@AEAA_NXZ 000000018003b370 f i libucrt:output.obj
 0001:0003a3cc       ?state_case_precision@?$output_processor@DV?$stream_output_adapter@D@__crt_stdio_output@@V?$standard_base@DV?$stream_output_adapter@D@__crt_stdio_output@@@2@@__crt_stdio_output@@AEAA_NXZ 000000018003b3cc f i libucrt:output.obj
 0001:0003a408       ?state_case_precision@?$output_processor@DV?$string_output_adapter@D@__crt_stdio_output@@V?$format_validation_base@DV?$string_output_adapter@D@__crt_stdio_output@@@2@@__crt_stdio_output@@AEAA_NXZ 000000018003b408 f i libucrt:output.obj
 0001:0003a444       ?state_case_precision@?$output_processor@DV?$string_output_adapter@D@__crt_stdio_output@@V?$positional_parameter_base@DV?$string_output_adapter@D@__crt_stdio_output@@@2@@__crt_stdio_output@@AEAA_NXZ 000000018003b444 f i libucrt:output.obj
 0001:0003a4a0       ?state_case_precision@?$output_processor@DV?$string_output_adapter@D@__crt_stdio_output@@V?$standard_base@DV?$string_output_adapter@D@__crt_stdio_output@@@2@@__crt_stdio_output@@AEAA_NXZ 000000018003b4a0 f i libucrt:output.obj
 0001:0003a4dc       ?state_case_precision@?$output_processor@_WV?$stream_output_adapter@_W@__crt_stdio_output@@V?$format_validation_base@_WV?$stream_output_adapter@_W@__crt_stdio_output@@@2@@__crt_stdio_output@@AEAA_NXZ 000000018003b4dc f i libucrt:output.obj
 0001:0003a51c       ?state_case_precision@?$output_processor@_WV?$stream_output_adapter@_W@__crt_stdio_output@@V?$positional_parameter_base@_WV?$stream_output_adapter@_W@__crt_stdio_output@@@2@@__crt_stdio_output@@AEAA_NXZ 000000018003b51c f i libucrt:output.obj
 0001:0003a57c       ?state_case_precision@?$output_processor@_WV?$stream_output_adapter@_W@__crt_stdio_output@@V?$standard_base@_WV?$stream_output_adapter@_W@__crt_stdio_output@@@2@@__crt_stdio_output@@AEAA_NXZ 000000018003b57c f i libucrt:output.obj
 0001:0003a5bc       ?state_case_precision@?$output_processor@_WV?$string_output_adapter@_W@__crt_stdio_output@@V?$format_validation_base@_WV?$string_output_adapter@_W@__crt_stdio_output@@@2@@__crt_stdio_output@@AEAA_NXZ 000000018003b5bc f i libucrt:output.obj
 0001:0003a5fc       ?state_case_precision@?$output_processor@_WV?$string_output_adapter@_W@__crt_stdio_output@@V?$positional_parameter_base@_WV?$string_output_adapter@_W@__crt_stdio_output@@@2@@__crt_stdio_output@@AEAA_NXZ 000000018003b5fc f i libucrt:output.obj
 0001:0003a65c       ?state_case_precision@?$output_processor@_WV?$string_output_adapter@_W@__crt_stdio_output@@V?$standard_base@_WV?$string_output_adapter@_W@__crt_stdio_output@@@2@@__crt_stdio_output@@AEAA_NXZ 000000018003b65c f i libucrt:output.obj
 0001:0003a69c       ?state_case_size@?$output_processor@DV?$stream_output_adapter@D@__crt_stdio_output@@V?$format_validation_base@DV?$stream_output_adapter@D@__crt_stdio_output@@@2@@__crt_stdio_output@@AEAA_NXZ 000000018003b69c f i libucrt:output.obj
 0001:0003a884       ?state_case_size@?$output_processor@DV?$stream_output_adapter@D@__crt_stdio_output@@V?$positional_parameter_base@DV?$stream_output_adapter@D@__crt_stdio_output@@@2@@__crt_stdio_output@@AEAA_NXZ 000000018003b884 f i libucrt:output.obj
 0001:0003aa6c       ?state_case_size@?$output_processor@DV?$stream_output_adapter@D@__crt_stdio_output@@V?$standard_base@DV?$stream_output_adapter@D@__crt_stdio_output@@@2@@__crt_stdio_output@@AEAA_NXZ 000000018003ba6c f i libucrt:output.obj
 0001:0003ac54       ?state_case_size@?$output_processor@DV?$string_output_adapter@D@__crt_stdio_output@@V?$format_validation_base@DV?$string_output_adapter@D@__crt_stdio_output@@@2@@__crt_stdio_output@@AEAA_NXZ 000000018003bc54 f i libucrt:output.obj
 0001:0003ae3c       ?state_case_size@?$output_processor@DV?$string_output_adapter@D@__crt_stdio_output@@V?$positional_parameter_base@DV?$string_output_adapter@D@__crt_stdio_output@@@2@@__crt_stdio_output@@AEAA_NXZ 000000018003be3c f i libucrt:output.obj
 0001:0003b024       ?state_case_size@?$output_processor@DV?$string_output_adapter@D@__crt_stdio_output@@V?$standard_base@DV?$string_output_adapter@D@__crt_stdio_output@@@2@@__crt_stdio_output@@AEAA_NXZ 000000018003c024 f i libucrt:output.obj
 0001:0003b20c       ?state_case_size@?$output_processor@_WV?$stream_output_adapter@_W@__crt_stdio_output@@V?$format_validation_base@_WV?$stream_output_adapter@_W@__crt_stdio_output@@@2@@__crt_stdio_output@@AEAA_NXZ 000000018003c20c f i libucrt:output.obj
 0001:0003b424       ?state_case_size@?$output_processor@_WV?$stream_output_adapter@_W@__crt_stdio_output@@V?$positional_parameter_base@_WV?$stream_output_adapter@_W@__crt_stdio_output@@@2@@__crt_stdio_output@@AEAA_NXZ 000000018003c424 f i libucrt:output.obj
 0001:0003b63c       ?state_case_size@?$output_processor@_WV?$stream_output_adapter@_W@__crt_stdio_output@@V?$standard_base@_WV?$stream_output_adapter@_W@__crt_stdio_output@@@2@@__crt_stdio_output@@AEAA_NXZ 000000018003c63c f i libucrt:output.obj
 0001:0003b854       ?state_case_size@?$output_processor@_WV?$string_output_adapter@_W@__crt_stdio_output@@V?$format_validation_base@_WV?$string_output_adapter@_W@__crt_stdio_output@@@2@@__crt_stdio_output@@AEAA_NXZ 000000018003c854 f i libucrt:output.obj
 0001:0003ba6c       ?state_case_size@?$output_processor@_WV?$string_output_adapter@_W@__crt_stdio_output@@V?$positional_parameter_base@_WV?$string_output_adapter@_W@__crt_stdio_output@@@2@@__crt_stdio_output@@AEAA_NXZ 000000018003ca6c f i libucrt:output.obj
 0001:0003bc84       ?state_case_size@?$output_processor@_WV?$string_output_adapter@_W@__crt_stdio_output@@V?$standard_base@_WV?$string_output_adapter@_W@__crt_stdio_output@@@2@@__crt_stdio_output@@AEAA_NXZ 000000018003cc84 f i libucrt:output.obj
 0001:0003be9c       ?state_case_type@?$output_processor@DV?$stream_output_adapter@D@__crt_stdio_output@@V?$format_validation_base@DV?$stream_output_adapter@D@__crt_stdio_output@@@2@@__crt_stdio_output@@AEAA_NXZ 000000018003ce9c f i libucrt:output.obj
 0001:0003c3e0       ?state_case_type@?$output_processor@DV?$stream_output_adapter@D@__crt_stdio_output@@V?$positional_parameter_base@DV?$stream_output_adapter@D@__crt_stdio_output@@@2@@__crt_stdio_output@@AEAA_NXZ 000000018003d3e0 f i libucrt:output.obj
 0001:0003c960       ?state_case_type@?$output_processor@DV?$stream_output_adapter@D@__crt_stdio_output@@V?$standard_base@DV?$stream_output_adapter@D@__crt_stdio_output@@@2@@__crt_stdio_output@@AEAA_NXZ 000000018003d960 f i libucrt:output.obj
 0001:0003cea4       ?state_case_type@?$output_processor@DV?$string_output_adapter@D@__crt_stdio_output@@V?$format_validation_base@DV?$string_output_adapter@D@__crt_stdio_output@@@2@@__crt_stdio_output@@AEAA_NXZ 000000018003dea4 f i libucrt:output.obj
 0001:0003d3a8       ?state_case_type@?$output_processor@DV?$string_output_adapter@D@__crt_stdio_output@@V?$positional_parameter_base@DV?$string_output_adapter@D@__crt_stdio_output@@@2@@__crt_stdio_output@@AEAA_NXZ 000000018003e3a8 f i libucrt:output.obj
 0001:0003d8c4       ?state_case_type@?$output_processor@DV?$string_output_adapter@D@__crt_stdio_output@@V?$standard_base@DV?$string_output_adapter@D@__crt_stdio_output@@@2@@__crt_stdio_output@@AEAA_NXZ 000000018003e8c4 f i libucrt:output.obj
 0001:0003ddc8       ?state_case_type@?$output_processor@_WV?$stream_output_adapter@_W@__crt_stdio_output@@V?$format_validation_base@_WV?$stream_output_adapter@_W@__crt_stdio_output@@@2@@__crt_stdio_output@@AEAA_NXZ 000000018003edc8 f i libucrt:output.obj
 0001:0003e3bc       ?state_case_type@?$output_processor@_WV?$stream_output_adapter@_W@__crt_stdio_output@@V?$positional_parameter_base@_WV?$stream_output_adapter@_W@__crt_stdio_output@@@2@@__crt_stdio_output@@AEAA_NXZ 000000018003f3bc f i libucrt:output.obj
 0001:0003e9cc       ?state_case_type@?$output_processor@_WV?$stream_output_adapter@_W@__crt_stdio_output@@V?$standard_base@_WV?$stream_output_adapter@_W@__crt_stdio_output@@@2@@__crt_stdio_output@@AEAA_NXZ 000000018003f9cc f i libucrt:output.obj
 0001:0003efc0       ?state_case_type@?$output_processor@_WV?$string_output_adapter@_W@__crt_stdio_output@@V?$format_validation_base@_WV?$string_output_adapter@_W@__crt_stdio_output@@@2@@__crt_stdio_output@@AEAA_NXZ 000000018003ffc0 f i libucrt:output.obj
 0001:0003f540       ?state_case_type@?$output_processor@_WV?$string_output_adapter@_W@__crt_stdio_output@@V?$positional_parameter_base@_WV?$string_output_adapter@_W@__crt_stdio_output@@@2@@__crt_stdio_output@@AEAA_NXZ 0000000180040540 f i libucrt:output.obj
 0001:0003faf4       ?state_case_type@?$output_processor@_WV?$string_output_adapter@_W@__crt_stdio_output@@V?$standard_base@_WV?$string_output_adapter@_W@__crt_stdio_output@@@2@@__crt_stdio_output@@AEAA_NXZ 0000000180040af4 f i libucrt:output.obj
 0001:00040074       ?state_case_width@?$output_processor@DV?$stream_output_adapter@D@__crt_stdio_output@@V?$format_validation_base@DV?$stream_output_adapter@D@__crt_stdio_output@@@2@@__crt_stdio_output@@AEAA_NXZ 0000000180041074 f i libucrt:output.obj
 0001:000400b4       ?state_case_width@?$output_processor@DV?$stream_output_adapter@D@__crt_stdio_output@@V?$positional_parameter_base@DV?$stream_output_adapter@D@__crt_stdio_output@@@2@@__crt_stdio_output@@AEAA_NXZ 00000001800410b4 f i libucrt:output.obj
 0001:00040118       ?state_case_width@?$output_processor@DV?$stream_output_adapter@D@__crt_stdio_output@@V?$standard_base@DV?$stream_output_adapter@D@__crt_stdio_output@@@2@@__crt_stdio_output@@AEAA_NXZ 0000000180041118 f i libucrt:output.obj
 0001:00040158       ?state_case_width@?$output_processor@DV?$string_output_adapter@D@__crt_stdio_output@@V?$format_validation_base@DV?$string_output_adapter@D@__crt_stdio_output@@@2@@__crt_stdio_output@@AEAA_NXZ 0000000180041158 f i libucrt:output.obj
 0001:00040198       ?state_case_width@?$output_processor@DV?$string_output_adapter@D@__crt_stdio_output@@V?$positional_parameter_base@DV?$string_output_adapter@D@__crt_stdio_output@@@2@@__crt_stdio_output@@AEAA_NXZ 0000000180041198 f i libucrt:output.obj
 0001:000401fc       ?state_case_width@?$output_processor@DV?$string_output_adapter@D@__crt_stdio_output@@V?$standard_base@DV?$string_output_adapter@D@__crt_stdio_output@@@2@@__crt_stdio_output@@AEAA_NXZ 00000001800411fc f i libucrt:output.obj
 0001:0004023c       ?state_case_width@?$output_processor@_WV?$stream_output_adapter@_W@__crt_stdio_output@@V?$format_validation_base@_WV?$stream_output_adapter@_W@__crt_stdio_output@@@2@@__crt_stdio_output@@AEAA_NXZ 000000018004123c f i libucrt:output.obj
 0001:0004027c       ?state_case_width@?$output_processor@_WV?$stream_output_adapter@_W@__crt_stdio_output@@V?$positional_parameter_base@_WV?$stream_output_adapter@_W@__crt_stdio_output@@@2@@__crt_stdio_output@@AEAA_NXZ 000000018004127c f i libucrt:output.obj
 0001:000402e4       ?state_case_width@?$output_processor@_WV?$stream_output_adapter@_W@__crt_stdio_output@@V?$standard_base@_WV?$stream_output_adapter@_W@__crt_stdio_output@@@2@@__crt_stdio_output@@AEAA_NXZ 00000001800412e4 f i libucrt:output.obj
 0001:00040324       ?state_case_width@?$output_processor@_WV?$string_output_adapter@_W@__crt_stdio_output@@V?$format_validation_base@_WV?$string_output_adapter@_W@__crt_stdio_output@@@2@@__crt_stdio_output@@AEAA_NXZ 0000000180041324 f i libucrt:output.obj
 0001:00040364       ?state_case_width@?$output_processor@_WV?$string_output_adapter@_W@__crt_stdio_output@@V?$positional_parameter_base@_WV?$string_output_adapter@_W@__crt_stdio_output@@@2@@__crt_stdio_output@@AEAA_NXZ 0000000180041364 f i libucrt:output.obj
 0001:000403cc       ?state_case_width@?$output_processor@_WV?$string_output_adapter@_W@__crt_stdio_output@@V?$standard_base@_WV?$string_output_adapter@_W@__crt_stdio_output@@@2@@__crt_stdio_output@@AEAA_NXZ 00000001800413cc f i libucrt:output.obj
 0001:0004040c       ?state_count@?$format_validation_base@DV?$stream_output_adapter@D@__crt_stdio_output@@@__crt_stdio_output@@KAIXZ 000000018004140c f i libucrt:output.obj
 0001:00040414       ?state_count@?$format_validation_base@DV?$string_output_adapter@D@__crt_stdio_output@@@__crt_stdio_output@@KAIXZ 0000000180041414 f i libucrt:output.obj
 0001:0004041c       ?state_count@?$format_validation_base@_WV?$stream_output_adapter@_W@__crt_stdio_output@@@__crt_stdio_output@@KAIXZ 000000018004141c f i libucrt:output.obj
 0001:00040424       ?state_count@?$format_validation_base@_WV?$string_output_adapter@_W@__crt_stdio_output@@@__crt_stdio_output@@KAIXZ 0000000180041424 f i libucrt:output.obj
 0001:0004042c       ?state_count@?$standard_base@DV?$stream_output_adapter@D@__crt_stdio_output@@@__crt_stdio_output@@KAIXZ 000000018004142c f i libucrt:output.obj
 0001:00040434       ?state_count@?$standard_base@DV?$string_output_adapter@D@__crt_stdio_output@@@__crt_stdio_output@@KAIXZ 0000000180041434 f i libucrt:output.obj
 0001:0004043c       ?state_count@?$standard_base@_WV?$stream_output_adapter@_W@__crt_stdio_output@@@__crt_stdio_output@@KAIXZ 000000018004143c f i libucrt:output.obj
 0001:00040444       ?state_count@?$standard_base@_WV?$string_output_adapter@_W@__crt_stdio_output@@@__crt_stdio_output@@KAIXZ 0000000180041444 f i libucrt:output.obj
 0001:0004044c       ?state_transition_table@?$format_validation_base@DV?$stream_output_adapter@D@__crt_stdio_output@@@__crt_stdio_output@@KAAEBV?$spectre_mitigated_lookup_table@Ustate_transition_pair@__crt_stdio_output@@$0IA@@2@XZ 000000018004144c f i libucrt:output.obj
 0001:00040458       ?state_transition_table@?$format_validation_base@DV?$string_output_adapter@D@__crt_stdio_output@@@__crt_stdio_output@@KAAEBV?$spectre_mitigated_lookup_table@Ustate_transition_pair@__crt_stdio_output@@$0IA@@2@XZ 0000000180041458 f i libucrt:output.obj
 0001:00040464       ?state_transition_table@?$format_validation_base@_WV?$stream_output_adapter@_W@__crt_stdio_output@@@__crt_stdio_output@@KAAEBV?$spectre_mitigated_lookup_table@Ustate_transition_pair@__crt_stdio_output@@$0IA@@2@XZ 0000000180041464 f i libucrt:output.obj
 0001:00040470       ?state_transition_table@?$format_validation_base@_WV?$string_output_adapter@_W@__crt_stdio_output@@@__crt_stdio_output@@KAAEBV?$spectre_mitigated_lookup_table@Ustate_transition_pair@__crt_stdio_output@@$0IA@@2@XZ 0000000180041470 f i libucrt:output.obj
 0001:0004047c       ?state_transition_table@?$standard_base@DV?$stream_output_adapter@D@__crt_stdio_output@@@__crt_stdio_output@@KAAEBV?$spectre_mitigated_lookup_table@Ustate_transition_pair@__crt_stdio_output@@$0IA@@2@XZ 000000018004147c f i libucrt:output.obj
 0001:00040488       ?state_transition_table@?$standard_base@DV?$string_output_adapter@D@__crt_stdio_output@@@__crt_stdio_output@@KAAEBV?$spectre_mitigated_lookup_table@Ustate_transition_pair@__crt_stdio_output@@$0IA@@2@XZ 0000000180041488 f i libucrt:output.obj
 0001:00040494       ?state_transition_table@?$standard_base@_WV?$stream_output_adapter@_W@__crt_stdio_output@@@__crt_stdio_output@@KAAEBV?$spectre_mitigated_lookup_table@Ustate_transition_pair@__crt_stdio_output@@$0IA@@2@XZ 0000000180041494 f i libucrt:output.obj
 0001:000404a0       ?state_transition_table@?$standard_base@_WV?$string_output_adapter@_W@__crt_stdio_output@@@__crt_stdio_output@@KAAEBV?$spectre_mitigated_lookup_table@Ustate_transition_pair@__crt_stdio_output@@$0IA@@2@XZ 00000001800414a0 f i libucrt:output.obj
 0001:000404ac       ?tchar_string@?$common_data@D@__crt_stdio_output@@IEAAAEAPEADD@Z 00000001800414ac f i libucrt:output.obj
 0001:000404b4       ?tchar_string@?$common_data@D@__crt_stdio_output@@IEAAAEAPEADXZ 00000001800414b4 f i libucrt:output.obj
 0001:000404bc       ?tchar_string@?$common_data@_W@__crt_stdio_output@@IEAAAEAPEA_WXZ 00000001800414bc f i libucrt:output.obj
 0001:000404c4       ?tchar_string@?$common_data@_W@__crt_stdio_output@@IEAAAEAPEA_W_W@Z 00000001800414c4 f i libucrt:output.obj
 0001:000404cc       ?to_integer_size@__crt_stdio_output@@YA_KW4length_modifier@1@@Z 00000001800414cc f i libucrt:output.obj
 0001:00040524       ?type_case_X@?$output_processor@DV?$stream_output_adapter@D@__crt_stdio_output@@V?$format_validation_base@DV?$stream_output_adapter@D@__crt_stdio_output@@@2@@__crt_stdio_output@@AEAA_NXZ 0000000180041524 f i libucrt:output.obj
 0001:0004052c       ?type_case_X@?$output_processor@DV?$stream_output_adapter@D@__crt_stdio_output@@V?$positional_parameter_base@DV?$stream_output_adapter@D@__crt_stdio_output@@@2@@__crt_stdio_output@@AEAA_NXZ 000000018004152c f i libucrt:output.obj
 0001:00040534       ?type_case_X@?$output_processor@DV?$stream_output_adapter@D@__crt_stdio_output@@V?$standard_base@DV?$stream_output_adapter@D@__crt_stdio_output@@@2@@__crt_stdio_output@@AEAA_NXZ 0000000180041534 f i libucrt:output.obj
 0001:0004053c       ?type_case_X@?$output_processor@DV?$string_output_adapter@D@__crt_stdio_output@@V?$format_validation_base@DV?$string_output_adapter@D@__crt_stdio_output@@@2@@__crt_stdio_output@@AEAA_NXZ 000000018004153c f i libucrt:output.obj
 0001:00040544       ?type_case_X@?$output_processor@DV?$string_output_adapter@D@__crt_stdio_output@@V?$positional_parameter_base@DV?$string_output_adapter@D@__crt_stdio_output@@@2@@__crt_stdio_output@@AEAA_NXZ 0000000180041544 f i libucrt:output.obj
 0001:0004054c       ?type_case_X@?$output_processor@DV?$string_output_adapter@D@__crt_stdio_output@@V?$standard_base@DV?$string_output_adapter@D@__crt_stdio_output@@@2@@__crt_stdio_output@@AEAA_NXZ 000000018004154c f i libucrt:output.obj
 0001:00040554       ?type_case_X@?$output_processor@_WV?$stream_output_adapter@_W@__crt_stdio_output@@V?$format_validation_base@_WV?$stream_output_adapter@_W@__crt_stdio_output@@@2@@__crt_stdio_output@@AEAA_NXZ 0000000180041554 f i libucrt:output.obj
 0001:0004055c       ?type_case_X@?$output_processor@_WV?$stream_output_adapter@_W@__crt_stdio_output@@V?$positional_parameter_base@_WV?$stream_output_adapter@_W@__crt_stdio_output@@@2@@__crt_stdio_output@@AEAA_NXZ 000000018004155c f i libucrt:output.obj
 0001:00040564       ?type_case_X@?$output_processor@_WV?$stream_output_adapter@_W@__crt_stdio_output@@V?$standard_base@_WV?$stream_output_adapter@_W@__crt_stdio_output@@@2@@__crt_stdio_output@@AEAA_NXZ 0000000180041564 f i libucrt:output.obj
 0001:0004056c       ?type_case_X@?$output_processor@_WV?$string_output_adapter@_W@__crt_stdio_output@@V?$format_validation_base@_WV?$string_output_adapter@_W@__crt_stdio_output@@@2@@__crt_stdio_output@@AEAA_NXZ 000000018004156c f i libucrt:output.obj
 0001:00040574       ?type_case_X@?$output_processor@_WV?$string_output_adapter@_W@__crt_stdio_output@@V?$positional_parameter_base@_WV?$string_output_adapter@_W@__crt_stdio_output@@@2@@__crt_stdio_output@@AEAA_NXZ 0000000180041574 f i libucrt:output.obj
 0001:0004057c       ?type_case_X@?$output_processor@_WV?$string_output_adapter@_W@__crt_stdio_output@@V?$standard_base@_WV?$string_output_adapter@_W@__crt_stdio_output@@@2@@__crt_stdio_output@@AEAA_NXZ 000000018004157c f i libucrt:output.obj
 0001:00040584       ?type_case_Z@?$output_processor@DV?$stream_output_adapter@D@__crt_stdio_output@@V?$format_validation_base@DV?$stream_output_adapter@D@__crt_stdio_output@@@2@@__crt_stdio_output@@AEAA_NXZ 0000000180041584 f i libucrt:output.obj
 0001:00040620       ?type_case_Z@?$output_processor@DV?$stream_output_adapter@D@__crt_stdio_output@@V?$positional_parameter_base@DV?$stream_output_adapter@D@__crt_stdio_output@@@2@@__crt_stdio_output@@AEAA_NXZ 0000000180041620 f i libucrt:output.obj
 0001:000406f0       ?type_case_Z@?$output_processor@DV?$stream_output_adapter@D@__crt_stdio_output@@V?$standard_base@DV?$stream_output_adapter@D@__crt_stdio_output@@@2@@__crt_stdio_output@@AEAA_NXZ 00000001800416f0 f i libucrt:output.obj
 0001:0004078c       ?type_case_Z@?$output_processor@DV?$string_output_adapter@D@__crt_stdio_output@@V?$format_validation_base@DV?$string_output_adapter@D@__crt_stdio_output@@@2@@__crt_stdio_output@@AEAA_NXZ 000000018004178c f i libucrt:output.obj
 0001:00040828       ?type_case_Z@?$output_processor@DV?$string_output_adapter@D@__crt_stdio_output@@V?$positional_parameter_base@DV?$string_output_adapter@D@__crt_stdio_output@@@2@@__crt_stdio_output@@AEAA_NXZ 0000000180041828 f i libucrt:output.obj
 0001:000408f8       ?type_case_Z@?$output_processor@DV?$string_output_adapter@D@__crt_stdio_output@@V?$standard_base@DV?$string_output_adapter@D@__crt_stdio_output@@@2@@__crt_stdio_output@@AEAA_NXZ 00000001800418f8 f i libucrt:output.obj
 0001:00040994       ?type_case_Z@?$output_processor@_WV?$stream_output_adapter@_W@__crt_stdio_output@@V?$format_validation_base@_WV?$stream_output_adapter@_W@__crt_stdio_output@@@2@@__crt_stdio_output@@AEAA_NXZ 0000000180041994 f i libucrt:output.obj
 0001:00040a30       ?type_case_Z@?$output_processor@_WV?$stream_output_adapter@_W@__crt_stdio_output@@V?$positional_parameter_base@_WV?$stream_output_adapter@_W@__crt_stdio_output@@@2@@__crt_stdio_output@@AEAA_NXZ 0000000180041a30 f i libucrt:output.obj
 0001:00040aec       ?type_case_Z@?$output_processor@_WV?$stream_output_adapter@_W@__crt_stdio_output@@V?$standard_base@_WV?$stream_output_adapter@_W@__crt_stdio_output@@@2@@__crt_stdio_output@@AEAA_NXZ 0000000180041aec f i libucrt:output.obj
 0001:00040b88       ?type_case_Z@?$output_processor@_WV?$string_output_adapter@_W@__crt_stdio_output@@V?$format_validation_base@_WV?$string_output_adapter@_W@__crt_stdio_output@@@2@@__crt_stdio_output@@AEAA_NXZ 0000000180041b88 f i libucrt:output.obj
 0001:00040c24       ?type_case_Z@?$output_processor@_WV?$string_output_adapter@_W@__crt_stdio_output@@V?$positional_parameter_base@_WV?$string_output_adapter@_W@__crt_stdio_output@@@2@@__crt_stdio_output@@AEAA_NXZ 0000000180041c24 f i libucrt:output.obj
 0001:00040ce0       ?type_case_Z@?$output_processor@_WV?$string_output_adapter@_W@__crt_stdio_output@@V?$standard_base@_WV?$string_output_adapter@_W@__crt_stdio_output@@@2@@__crt_stdio_output@@AEAA_NXZ 0000000180041ce0 f i libucrt:output.obj
 0001:00040d7c       ?type_case_a@?$output_processor@DV?$stream_output_adapter@D@__crt_stdio_output@@V?$format_validation_base@DV?$stream_output_adapter@D@__crt_stdio_output@@@2@@__crt_stdio_output@@AEAA_NXZ 0000000180041d7c f i libucrt:output.obj
 0001:00041064       ?type_case_a@?$output_processor@DV?$stream_output_adapter@D@__crt_stdio_output@@V?$positional_parameter_base@DV?$stream_output_adapter@D@__crt_stdio_output@@@2@@__crt_stdio_output@@AEAA_NXZ 0000000180042064 f i libucrt:output.obj
 0001:00041380       ?type_case_a@?$output_processor@DV?$stream_output_adapter@D@__crt_stdio_output@@V?$standard_base@DV?$stream_output_adapter@D@__crt_stdio_output@@@2@@__crt_stdio_output@@AEAA_NXZ 0000000180042380 f i libucrt:output.obj
 0001:00041668       ?type_case_a@?$output_processor@DV?$string_output_adapter@D@__crt_stdio_output@@V?$format_validation_base@DV?$string_output_adapter@D@__crt_stdio_output@@@2@@__crt_stdio_output@@AEAA_NXZ 0000000180042668 f i libucrt:output.obj
 0001:00041950       ?type_case_a@?$output_processor@DV?$string_output_adapter@D@__crt_stdio_output@@V?$positional_parameter_base@DV?$string_output_adapter@D@__crt_stdio_output@@@2@@__crt_stdio_output@@AEAA_NXZ 0000000180042950 f i libucrt:output.obj
 0001:00041c6c       ?type_case_a@?$output_processor@DV?$string_output_adapter@D@__crt_stdio_output@@V?$standard_base@DV?$string_output_adapter@D@__crt_stdio_output@@@2@@__crt_stdio_output@@AEAA_NXZ 0000000180042c6c f i libucrt:output.obj
 0001:00041f54       ?type_case_a@?$output_processor@_WV?$stream_output_adapter@_W@__crt_stdio_output@@V?$format_validation_base@_WV?$stream_output_adapter@_W@__crt_stdio_output@@@2@@__crt_stdio_output@@AEAA_NXZ 0000000180042f54 f i libucrt:output.obj
 0001:00042254       ?type_case_a@?$output_processor@_WV?$stream_output_adapter@_W@__crt_stdio_output@@V?$positional_parameter_base@_WV?$stream_output_adapter@_W@__crt_stdio_output@@@2@@__crt_stdio_output@@AEAA_NXZ 0000000180043254 f i libucrt:output.obj
 0001:0004258c       ?type_case_a@?$output_processor@_WV?$stream_output_adapter@_W@__crt_stdio_output@@V?$standard_base@_WV?$stream_output_adapter@_W@__crt_stdio_output@@@2@@__crt_stdio_output@@AEAA_NXZ 000000018004358c f i libucrt:output.obj
 0001:0004288c       ?type_case_a@?$output_processor@_WV?$string_output_adapter@_W@__crt_stdio_output@@V?$format_validation_base@_WV?$string_output_adapter@_W@__crt_stdio_output@@@2@@__crt_stdio_output@@AEAA_NXZ 000000018004388c f i libucrt:output.obj
 0001:00042b8c       ?type_case_a@?$output_processor@_WV?$string_output_adapter@_W@__crt_stdio_output@@V?$positional_parameter_base@_WV?$string_output_adapter@_W@__crt_stdio_output@@@2@@__crt_stdio_output@@AEAA_NXZ 0000000180043b8c f i libucrt:output.obj
 0001:00042ec4       ?type_case_a@?$output_processor@_WV?$string_output_adapter@_W@__crt_stdio_output@@V?$standard_base@_WV?$string_output_adapter@_W@__crt_stdio_output@@@2@@__crt_stdio_output@@AEAA_NXZ 0000000180043ec4 f i libucrt:output.obj
 0001:000431c4       ?type_case_c@?$output_processor@DV?$stream_output_adapter@D@__crt_stdio_output@@V?$format_validation_base@DV?$stream_output_adapter@D@__crt_stdio_output@@@2@@__crt_stdio_output@@AEAA_NXZ 00000001800441c4 f i libucrt:output.obj
 0001:000431cc       ?type_case_c@?$output_processor@DV?$stream_output_adapter@D@__crt_stdio_output@@V?$positional_parameter_base@DV?$stream_output_adapter@D@__crt_stdio_output@@@2@@__crt_stdio_output@@AEAA_NXZ 00000001800441cc f i libucrt:output.obj
 0001:000431d4       ?type_case_c@?$output_processor@DV?$stream_output_adapter@D@__crt_stdio_output@@V?$standard_base@DV?$stream_output_adapter@D@__crt_stdio_output@@@2@@__crt_stdio_output@@AEAA_NXZ 00000001800441d4 f i libucrt:output.obj
 0001:000431dc       ?type_case_c@?$output_processor@DV?$string_output_adapter@D@__crt_stdio_output@@V?$format_validation_base@DV?$string_output_adapter@D@__crt_stdio_output@@@2@@__crt_stdio_output@@AEAA_NXZ 00000001800441dc f i libucrt:output.obj
 0001:000431e4       ?type_case_c@?$output_processor@DV?$string_output_adapter@D@__crt_stdio_output@@V?$positional_parameter_base@DV?$string_output_adapter@D@__crt_stdio_output@@@2@@__crt_stdio_output@@AEAA_NXZ 00000001800441e4 f i libucrt:output.obj
 0001:000431ec       ?type_case_c@?$output_processor@DV?$string_output_adapter@D@__crt_stdio_output@@V?$standard_base@DV?$string_output_adapter@D@__crt_stdio_output@@@2@@__crt_stdio_output@@AEAA_NXZ 00000001800441ec f i libucrt:output.obj
 0001:000431f4       ?type_case_c@?$output_processor@_WV?$stream_output_adapter@_W@__crt_stdio_output@@V?$format_validation_base@_WV?$stream_output_adapter@_W@__crt_stdio_output@@@2@@__crt_stdio_output@@AEAA_NXZ 00000001800441f4 f i libucrt:output.obj
 0001:000431fc       ?type_case_c@?$output_processor@_WV?$stream_output_adapter@_W@__crt_stdio_output@@V?$positional_parameter_base@_WV?$stream_output_adapter@_W@__crt_stdio_output@@@2@@__crt_stdio_output@@AEAA_NXZ 00000001800441fc f i libucrt:output.obj
 0001:00043204       ?type_case_c@?$output_processor@_WV?$stream_output_adapter@_W@__crt_stdio_output@@V?$standard_base@_WV?$stream_output_adapter@_W@__crt_stdio_output@@@2@@__crt_stdio_output@@AEAA_NXZ 0000000180044204 f i libucrt:output.obj
 0001:0004320c       ?type_case_c@?$output_processor@_WV?$string_output_adapter@_W@__crt_stdio_output@@V?$format_validation_base@_WV?$string_output_adapter@_W@__crt_stdio_output@@@2@@__crt_stdio_output@@AEAA_NXZ 000000018004420c f i libucrt:output.obj
 0001:00043214       ?type_case_c@?$output_processor@_WV?$string_output_adapter@_W@__crt_stdio_output@@V?$positional_parameter_base@_WV?$string_output_adapter@_W@__crt_stdio_output@@@2@@__crt_stdio_output@@AEAA_NXZ 0000000180044214 f i libucrt:output.obj
 0001:0004321c       ?type_case_c@?$output_processor@_WV?$string_output_adapter@_W@__crt_stdio_output@@V?$standard_base@_WV?$string_output_adapter@_W@__crt_stdio_output@@@2@@__crt_stdio_output@@AEAA_NXZ 000000018004421c f i libucrt:output.obj
 0001:00043224       ?type_case_c_tchar@?$output_processor@DV?$stream_output_adapter@D@__crt_stdio_output@@V?$format_validation_base@DV?$stream_output_adapter@D@__crt_stdio_output@@@2@@__crt_stdio_output@@AEAA_ND@Z 0000000180044224 f i libucrt:output.obj
 0001:0004332c       ?type_case_c_tchar@?$output_processor@DV?$stream_output_adapter@D@__crt_stdio_output@@V?$positional_parameter_base@DV?$stream_output_adapter@D@__crt_stdio_output@@@2@@__crt_stdio_output@@AEAA_ND@Z 000000018004432c f i libucrt:output.obj
 0001:0004348c       ?type_case_c_tchar@?$output_processor@DV?$stream_output_adapter@D@__crt_stdio_output@@V?$standard_base@DV?$stream_output_adapter@D@__crt_stdio_output@@@2@@__crt_stdio_output@@AEAA_ND@Z 000000018004448c f i libucrt:output.obj
 0001:00043594       ?type_case_c_tchar@?$output_processor@DV?$string_output_adapter@D@__crt_stdio_output@@V?$format_validation_base@DV?$string_output_adapter@D@__crt_stdio_output@@@2@@__crt_stdio_output@@AEAA_ND@Z 0000000180044594 f i libucrt:output.obj
 0001:0004369c       ?type_case_c_tchar@?$output_processor@DV?$string_output_adapter@D@__crt_stdio_output@@V?$positional_parameter_base@DV?$string_output_adapter@D@__crt_stdio_output@@@2@@__crt_stdio_output@@AEAA_ND@Z 000000018004469c f i libucrt:output.obj
 0001:000437fc       ?type_case_c_tchar@?$output_processor@DV?$string_output_adapter@D@__crt_stdio_output@@V?$standard_base@DV?$string_output_adapter@D@__crt_stdio_output@@@2@@__crt_stdio_output@@AEAA_ND@Z 00000001800447fc f i libucrt:output.obj
 0001:00043904       ?type_case_c_tchar@?$output_processor@_WV?$stream_output_adapter@_W@__crt_stdio_output@@V?$format_validation_base@_WV?$stream_output_adapter@_W@__crt_stdio_output@@@2@@__crt_stdio_output@@AEAA_N_W@Z 0000000180044904 f i libucrt:output.obj
 0001:000439fc       ?type_case_c_tchar@?$output_processor@_WV?$stream_output_adapter@_W@__crt_stdio_output@@V?$positional_parameter_base@_WV?$stream_output_adapter@_W@__crt_stdio_output@@@2@@__crt_stdio_output@@AEAA_N_W@Z 00000001800449fc f i libucrt:output.obj
 0001:00043b30       ?type_case_c_tchar@?$output_processor@_WV?$stream_output_adapter@_W@__crt_stdio_output@@V?$standard_base@_WV?$stream_output_adapter@_W@__crt_stdio_output@@@2@@__crt_stdio_output@@AEAA_N_W@Z 0000000180044b30 f i libucrt:output.obj
 0001:00043c28       ?type_case_c_tchar@?$output_processor@_WV?$string_output_adapter@_W@__crt_stdio_output@@V?$format_validation_base@_WV?$string_output_adapter@_W@__crt_stdio_output@@@2@@__crt_stdio_output@@AEAA_N_W@Z 0000000180044c28 f i libucrt:output.obj
 0001:00043d20       ?type_case_c_tchar@?$output_processor@_WV?$string_output_adapter@_W@__crt_stdio_output@@V?$positional_parameter_base@_WV?$string_output_adapter@_W@__crt_stdio_output@@@2@@__crt_stdio_output@@AEAA_N_W@Z 0000000180044d20 f i libucrt:output.obj
 0001:00043e54       ?type_case_c_tchar@?$output_processor@_WV?$string_output_adapter@_W@__crt_stdio_output@@V?$standard_base@_WV?$string_output_adapter@_W@__crt_stdio_output@@@2@@__crt_stdio_output@@AEAA_N_W@Z 0000000180044e54 f i libucrt:output.obj
 0001:00043f4c       ?type_case_d@?$output_processor@DV?$stream_output_adapter@D@__crt_stdio_output@@V?$format_validation_base@DV?$stream_output_adapter@D@__crt_stdio_output@@@2@@__crt_stdio_output@@AEAA_NXZ 0000000180044f4c f i libucrt:output.obj
 0001:00043f5c       ?type_case_d@?$output_processor@DV?$stream_output_adapter@D@__crt_stdio_output@@V?$positional_parameter_base@DV?$stream_output_adapter@D@__crt_stdio_output@@@2@@__crt_stdio_output@@AEAA_NXZ 0000000180044f5c f i libucrt:output.obj
 0001:00043f6c       ?type_case_d@?$output_processor@DV?$stream_output_adapter@D@__crt_stdio_output@@V?$standard_base@DV?$stream_output_adapter@D@__crt_stdio_output@@@2@@__crt_stdio_output@@AEAA_NXZ 0000000180044f6c f i libucrt:output.obj
 0001:00043f7c       ?type_case_d@?$output_processor@DV?$string_output_adapter@D@__crt_stdio_output@@V?$format_validation_base@DV?$string_output_adapter@D@__crt_stdio_output@@@2@@__crt_stdio_output@@AEAA_NXZ 0000000180044f7c f i libucrt:output.obj
 0001:00043f8c       ?type_case_d@?$output_processor@DV?$string_output_adapter@D@__crt_stdio_output@@V?$positional_parameter_base@DV?$string_output_adapter@D@__crt_stdio_output@@@2@@__crt_stdio_output@@AEAA_NXZ 0000000180044f8c f i libucrt:output.obj
 0001:00043f9c       ?type_case_d@?$output_processor@DV?$string_output_adapter@D@__crt_stdio_output@@V?$standard_base@DV?$string_output_adapter@D@__crt_stdio_output@@@2@@__crt_stdio_output@@AEAA_NXZ 0000000180044f9c f i libucrt:output.obj
 0001:00043fac       ?type_case_d@?$output_processor@_WV?$stream_output_adapter@_W@__crt_stdio_output@@V?$format_validation_base@_WV?$stream_output_adapter@_W@__crt_stdio_output@@@2@@__crt_stdio_output@@AEAA_NXZ 0000000180044fac f i libucrt:output.obj
 0001:00043fbc       ?type_case_d@?$output_processor@_WV?$stream_output_adapter@_W@__crt_stdio_output@@V?$positional_parameter_base@_WV?$stream_output_adapter@_W@__crt_stdio_output@@@2@@__crt_stdio_output@@AEAA_NXZ 0000000180044fbc f i libucrt:output.obj
 0001:00043fcc       ?type_case_d@?$output_processor@_WV?$stream_output_adapter@_W@__crt_stdio_output@@V?$standard_base@_WV?$stream_output_adapter@_W@__crt_stdio_output@@@2@@__crt_stdio_output@@AEAA_NXZ 0000000180044fcc f i libucrt:output.obj
 0001:00043fdc       ?type_case_d@?$output_processor@_WV?$string_output_adapter@_W@__crt_stdio_output@@V?$format_validation_base@_WV?$string_output_adapter@_W@__crt_stdio_output@@@2@@__crt_stdio_output@@AEAA_NXZ 0000000180044fdc f i libucrt:output.obj
 0001:00043fec       ?type_case_d@?$output_processor@_WV?$string_output_adapter@_W@__crt_stdio_output@@V?$positional_parameter_base@_WV?$string_output_adapter@_W@__crt_stdio_output@@@2@@__crt_stdio_output@@AEAA_NXZ 0000000180044fec f i libucrt:output.obj
 0001:00043ffc       ?type_case_d@?$output_processor@_WV?$string_output_adapter@_W@__crt_stdio_output@@V?$standard_base@_WV?$string_output_adapter@_W@__crt_stdio_output@@@2@@__crt_stdio_output@@AEAA_NXZ 0000000180044ffc f i libucrt:output.obj
 0001:0004400c       ?type_case_n@?$output_processor@DV?$stream_output_adapter@D@__crt_stdio_output@@V?$format_validation_base@DV?$stream_output_adapter@D@__crt_stdio_output@@@2@@__crt_stdio_output@@AEAA_NXZ 000000018004500c f i libucrt:output.obj
 0001:000440f0       ?type_case_n@?$output_processor@DV?$stream_output_adapter@D@__crt_stdio_output@@V?$positional_parameter_base@DV?$stream_output_adapter@D@__crt_stdio_output@@@2@@__crt_stdio_output@@AEAA_NXZ 00000001800450f0 f i libucrt:output.obj
 0001:0004420c       ?type_case_n@?$output_processor@DV?$stream_output_adapter@D@__crt_stdio_output@@V?$standard_base@DV?$stream_output_adapter@D@__crt_stdio_output@@@2@@__crt_stdio_output@@AEAA_NXZ 000000018004520c f i libucrt:output.obj
 0001:000442f0       ?type_case_n@?$output_processor@DV?$string_output_adapter@D@__crt_stdio_output@@V?$format_validation_base@DV?$string_output_adapter@D@__crt_stdio_output@@@2@@__crt_stdio_output@@AEAA_NXZ 00000001800452f0 f i libucrt:output.obj
 0001:000443d4       ?type_case_n@?$output_processor@DV?$string_output_adapter@D@__crt_stdio_output@@V?$positional_parameter_base@DV?$string_output_adapter@D@__crt_stdio_output@@@2@@__crt_stdio_output@@AEAA_NXZ 00000001800453d4 f i libucrt:output.obj
 0001:000444f0       ?type_case_n@?$output_processor@DV?$string_output_adapter@D@__crt_stdio_output@@V?$standard_base@DV?$string_output_adapter@D@__crt_stdio_output@@@2@@__crt_stdio_output@@AEAA_NXZ 00000001800454f0 f i libucrt:output.obj
 0001:000445d4       ?type_case_n@?$output_processor@_WV?$stream_output_adapter@_W@__crt_stdio_output@@V?$format_validation_base@_WV?$stream_output_adapter@_W@__crt_stdio_output@@@2@@__crt_stdio_output@@AEAA_NXZ 00000001800455d4 f i libucrt:output.obj
 0001:000446b8       ?type_case_n@?$output_processor@_WV?$stream_output_adapter@_W@__crt_stdio_output@@V?$positional_parameter_base@_WV?$stream_output_adapter@_W@__crt_stdio_output@@@2@@__crt_stdio_output@@AEAA_NXZ 00000001800456b8 f i libucrt:output.obj
 0001:000447d4       ?type_case_n@?$output_processor@_WV?$stream_output_adapter@_W@__crt_stdio_output@@V?$standard_base@_WV?$stream_output_adapter@_W@__crt_stdio_output@@@2@@__crt_stdio_output@@AEAA_NXZ 00000001800457d4 f i libucrt:output.obj
 0001:000448b8       ?type_case_n@?$output_processor@_WV?$string_output_adapter@_W@__crt_stdio_output@@V?$format_validation_base@_WV?$string_output_adapter@_W@__crt_stdio_output@@@2@@__crt_stdio_output@@AEAA_NXZ 00000001800458b8 f i libucrt:output.obj
 0001:0004499c       ?type_case_n@?$output_processor@_WV?$string_output_adapter@_W@__crt_stdio_output@@V?$positional_parameter_base@_WV?$string_output_adapter@_W@__crt_stdio_output@@@2@@__crt_stdio_output@@AEAA_NXZ 000000018004599c f i libucrt:output.obj
 0001:00044ab8       ?type_case_n@?$output_processor@_WV?$string_output_adapter@_W@__crt_stdio_output@@V?$standard_base@_WV?$string_output_adapter@_W@__crt_stdio_output@@@2@@__crt_stdio_output@@AEAA_NXZ 0000000180045ab8 f i libucrt:output.obj
 0001:00044b9c       ?type_case_o@?$output_processor@DV?$stream_output_adapter@D@__crt_stdio_output@@V?$format_validation_base@DV?$stream_output_adapter@D@__crt_stdio_output@@@2@@__crt_stdio_output@@AEAA_NXZ 0000000180045b9c f i libucrt:output.obj
 0001:00044bbc       ?type_case_o@?$output_processor@DV?$stream_output_adapter@D@__crt_stdio_output@@V?$positional_parameter_base@DV?$stream_output_adapter@D@__crt_stdio_output@@@2@@__crt_stdio_output@@AEAA_NXZ 0000000180045bbc f i libucrt:output.obj
 0001:00044bdc       ?type_case_o@?$output_processor@DV?$stream_output_adapter@D@__crt_stdio_output@@V?$standard_base@DV?$stream_output_adapter@D@__crt_stdio_output@@@2@@__crt_stdio_output@@AEAA_NXZ 0000000180045bdc f i libucrt:output.obj
 0001:00044bfc       ?type_case_o@?$output_processor@DV?$string_output_adapter@D@__crt_stdio_output@@V?$format_validation_base@DV?$string_output_adapter@D@__crt_stdio_output@@@2@@__crt_stdio_output@@AEAA_NXZ 0000000180045bfc f i libucrt:output.obj
 0001:00044c1c       ?type_case_o@?$output_processor@DV?$string_output_adapter@D@__crt_stdio_output@@V?$positional_parameter_base@DV?$string_output_adapter@D@__crt_stdio_output@@@2@@__crt_stdio_output@@AEAA_NXZ 0000000180045c1c f i libucrt:output.obj
 0001:00044c3c       ?type_case_o@?$output_processor@DV?$string_output_adapter@D@__crt_stdio_output@@V?$standard_base@DV?$string_output_adapter@D@__crt_stdio_output@@@2@@__crt_stdio_output@@AEAA_NXZ 0000000180045c3c f i libucrt:output.obj
 0001:00044c5c       ?type_case_o@?$output_processor@_WV?$stream_output_adapter@_W@__crt_stdio_output@@V?$format_validation_base@_WV?$stream_output_adapter@_W@__crt_stdio_output@@@2@@__crt_stdio_output@@AEAA_NXZ 0000000180045c5c f i libucrt:output.obj
 0001:00044c7c       ?type_case_o@?$output_processor@_WV?$stream_output_adapter@_W@__crt_stdio_output@@V?$positional_parameter_base@_WV?$stream_output_adapter@_W@__crt_stdio_output@@@2@@__crt_stdio_output@@AEAA_NXZ 0000000180045c7c f i libucrt:output.obj
 0001:00044c9c       ?type_case_o@?$output_processor@_WV?$stream_output_adapter@_W@__crt_stdio_output@@V?$standard_base@_WV?$stream_output_adapter@_W@__crt_stdio_output@@@2@@__crt_stdio_output@@AEAA_NXZ 0000000180045c9c f i libucrt:output.obj
 0001:00044cbc       ?type_case_o@?$output_processor@_WV?$string_output_adapter@_W@__crt_stdio_output@@V?$format_validation_base@_WV?$string_output_adapter@_W@__crt_stdio_output@@@2@@__crt_stdio_output@@AEAA_NXZ 0000000180045cbc f i libucrt:output.obj
 0001:00044cdc       ?type_case_o@?$output_processor@_WV?$string_output_adapter@_W@__crt_stdio_output@@V?$positional_parameter_base@_WV?$string_output_adapter@_W@__crt_stdio_output@@@2@@__crt_stdio_output@@AEAA_NXZ 0000000180045cdc f i libucrt:output.obj
 0001:00044cfc       ?type_case_o@?$output_processor@_WV?$string_output_adapter@_W@__crt_stdio_output@@V?$standard_base@_WV?$string_output_adapter@_W@__crt_stdio_output@@@2@@__crt_stdio_output@@AEAA_NXZ 0000000180045cfc f i libucrt:output.obj
 0001:00044d1c       ?type_case_p@?$output_processor@DV?$stream_output_adapter@D@__crt_stdio_output@@V?$format_validation_base@DV?$stream_output_adapter@D@__crt_stdio_output@@@2@@__crt_stdio_output@@AEAA_NXZ 0000000180045d1c f i libucrt:output.obj
 0001:00044d38       ?type_case_p@?$output_processor@DV?$stream_output_adapter@D@__crt_stdio_output@@V?$positional_parameter_base@DV?$stream_output_adapter@D@__crt_stdio_output@@@2@@__crt_stdio_output@@AEAA_NXZ 0000000180045d38 f i libucrt:output.obj
 0001:00044d54       ?type_case_p@?$output_processor@DV?$stream_output_adapter@D@__crt_stdio_output@@V?$standard_base@DV?$stream_output_adapter@D@__crt_stdio_output@@@2@@__crt_stdio_output@@AEAA_NXZ 0000000180045d54 f i libucrt:output.obj
 0001:00044d70       ?type_case_p@?$output_processor@DV?$string_output_adapter@D@__crt_stdio_output@@V?$format_validation_base@DV?$string_output_adapter@D@__crt_stdio_output@@@2@@__crt_stdio_output@@AEAA_NXZ 0000000180045d70 f i libucrt:output.obj
 0001:00044d8c       ?type_case_p@?$output_processor@DV?$string_output_adapter@D@__crt_stdio_output@@V?$positional_parameter_base@DV?$string_output_adapter@D@__crt_stdio_output@@@2@@__crt_stdio_output@@AEAA_NXZ 0000000180045d8c f i libucrt:output.obj
 0001:00044da8       ?type_case_p@?$output_processor@DV?$string_output_adapter@D@__crt_stdio_output@@V?$standard_base@DV?$string_output_adapter@D@__crt_stdio_output@@@2@@__crt_stdio_output@@AEAA_NXZ 0000000180045da8 f i libucrt:output.obj
 0001:00044dc4       ?type_case_p@?$output_processor@_WV?$stream_output_adapter@_W@__crt_stdio_output@@V?$format_validation_base@_WV?$stream_output_adapter@_W@__crt_stdio_output@@@2@@__crt_stdio_output@@AEAA_NXZ 0000000180045dc4 f i libucrt:output.obj
 0001:00044de0       ?type_case_p@?$output_processor@_WV?$stream_output_adapter@_W@__crt_stdio_output@@V?$positional_parameter_base@_WV?$stream_output_adapter@_W@__crt_stdio_output@@@2@@__crt_stdio_output@@AEAA_NXZ 0000000180045de0 f i libucrt:output.obj
 0001:00044dfc       ?type_case_p@?$output_processor@_WV?$stream_output_adapter@_W@__crt_stdio_output@@V?$standard_base@_WV?$stream_output_adapter@_W@__crt_stdio_output@@@2@@__crt_stdio_output@@AEAA_NXZ 0000000180045dfc f i libucrt:output.obj
 0001:00044e18       ?type_case_p@?$output_processor@_WV?$string_output_adapter@_W@__crt_stdio_output@@V?$format_validation_base@_WV?$string_output_adapter@_W@__crt_stdio_output@@@2@@__crt_stdio_output@@AEAA_NXZ 0000000180045e18 f i libucrt:output.obj
 0001:00044e34       ?type_case_p@?$output_processor@_WV?$string_output_adapter@_W@__crt_stdio_output@@V?$positional_parameter_base@_WV?$string_output_adapter@_W@__crt_stdio_output@@@2@@__crt_stdio_output@@AEAA_NXZ 0000000180045e34 f i libucrt:output.obj
 0001:00044e50       ?type_case_p@?$output_processor@_WV?$string_output_adapter@_W@__crt_stdio_output@@V?$standard_base@_WV?$string_output_adapter@_W@__crt_stdio_output@@@2@@__crt_stdio_output@@AEAA_NXZ 0000000180045e50 f i libucrt:output.obj
 0001:00044e6c       ?type_case_s@?$output_processor@DV?$stream_output_adapter@D@__crt_stdio_output@@V?$format_validation_base@DV?$stream_output_adapter@D@__crt_stdio_output@@@2@@__crt_stdio_output@@AEAA_NXZ 0000000180045e6c f i libucrt:output.obj
 0001:00044f2c       ?type_case_s@?$output_processor@DV?$stream_output_adapter@D@__crt_stdio_output@@V?$positional_parameter_base@DV?$stream_output_adapter@D@__crt_stdio_output@@@2@@__crt_stdio_output@@AEAA_NXZ 0000000180045f2c f i libucrt:output.obj
 0001:00045018       ?type_case_s@?$output_processor@DV?$stream_output_adapter@D@__crt_stdio_output@@V?$standard_base@DV?$stream_output_adapter@D@__crt_stdio_output@@@2@@__crt_stdio_output@@AEAA_NXZ 0000000180046018 f i libucrt:output.obj
 0001:000450d8       ?type_case_s@?$output_processor@DV?$string_output_adapter@D@__crt_stdio_output@@V?$format_validation_base@DV?$string_output_adapter@D@__crt_stdio_output@@@2@@__crt_stdio_output@@AEAA_NXZ 00000001800460d8 f i libucrt:output.obj
 0001:00045198       ?type_case_s@?$output_processor@DV?$string_output_adapter@D@__crt_stdio_output@@V?$positional_parameter_base@DV?$string_output_adapter@D@__crt_stdio_output@@@2@@__crt_stdio_output@@AEAA_NXZ 0000000180046198 f i libucrt:output.obj
 0001:00045284       ?type_case_s@?$output_processor@DV?$string_output_adapter@D@__crt_stdio_output@@V?$standard_base@DV?$string_output_adapter@D@__crt_stdio_output@@@2@@__crt_stdio_output@@AEAA_NXZ 0000000180046284 f i libucrt:output.obj
 0001:00045344       ?type_case_s@?$output_processor@_WV?$stream_output_adapter@_W@__crt_stdio_output@@V?$format_validation_base@_WV?$stream_output_adapter@_W@__crt_stdio_output@@@2@@__crt_stdio_output@@AEAA_NXZ 0000000180046344 f i libucrt:output.obj
 0001:00045408       ?type_case_s@?$output_processor@_WV?$stream_output_adapter@_W@__crt_stdio_output@@V?$positional_parameter_base@_WV?$stream_output_adapter@_W@__crt_stdio_output@@@2@@__crt_stdio_output@@AEAA_NXZ 0000000180046408 f i libucrt:output.obj
 0001:000454ec       ?type_case_s@?$output_processor@_WV?$stream_output_adapter@_W@__crt_stdio_output@@V?$standard_base@_WV?$stream_output_adapter@_W@__crt_stdio_output@@@2@@__crt_stdio_output@@AEAA_NXZ 00000001800464ec f i libucrt:output.obj
 0001:000455b0       ?type_case_s@?$output_processor@_WV?$string_output_adapter@_W@__crt_stdio_output@@V?$format_validation_base@_WV?$string_output_adapter@_W@__crt_stdio_output@@@2@@__crt_stdio_output@@AEAA_NXZ 00000001800465b0 f i libucrt:output.obj
 0001:00045674       ?type_case_s@?$output_processor@_WV?$string_output_adapter@_W@__crt_stdio_output@@V?$positional_parameter_base@_WV?$string_output_adapter@_W@__crt_stdio_output@@@2@@__crt_stdio_output@@AEAA_NXZ 0000000180046674 f i libucrt:output.obj
 0001:00045758       ?type_case_s@?$output_processor@_WV?$string_output_adapter@_W@__crt_stdio_output@@V?$standard_base@_WV?$string_output_adapter@_W@__crt_stdio_output@@@2@@__crt_stdio_output@@AEAA_NXZ 0000000180046758 f i libucrt:output.obj
 0001:0004581c       ?type_case_s_compute_narrow_string_length@?$output_processor@DV?$stream_output_adapter@D@__crt_stdio_output@@V?$format_validation_base@DV?$stream_output_adapter@D@__crt_stdio_output@@@2@@__crt_stdio_output@@AEAAHHD@Z 000000018004681c f i libucrt:output.obj
 0001:0004582c       ?type_case_s_compute_narrow_string_length@?$output_processor@DV?$stream_output_adapter@D@__crt_stdio_output@@V?$positional_parameter_base@DV?$stream_output_adapter@D@__crt_stdio_output@@@2@@__crt_stdio_output@@AEAAHHD@Z 000000018004682c f i libucrt:output.obj
 0001:0004583c       ?type_case_s_compute_narrow_string_length@?$output_processor@DV?$stream_output_adapter@D@__crt_stdio_output@@V?$standard_base@DV?$stream_output_adapter@D@__crt_stdio_output@@@2@@__crt_stdio_output@@AEAAHHD@Z 000000018004683c f i libucrt:output.obj
 0001:0004584c       ?type_case_s_compute_narrow_string_length@?$output_processor@DV?$string_output_adapter@D@__crt_stdio_output@@V?$format_validation_base@DV?$string_output_adapter@D@__crt_stdio_output@@@2@@__crt_stdio_output@@AEAAHHD@Z 000000018004684c f i libucrt:output.obj
 0001:0004585c       ?type_case_s_compute_narrow_string_length@?$output_processor@DV?$string_output_adapter@D@__crt_stdio_output@@V?$positional_parameter_base@DV?$string_output_adapter@D@__crt_stdio_output@@@2@@__crt_stdio_output@@AEAAHHD@Z 000000018004685c f i libucrt:output.obj
 0001:0004586c       ?type_case_s_compute_narrow_string_length@?$output_processor@DV?$string_output_adapter@D@__crt_stdio_output@@V?$standard_base@DV?$string_output_adapter@D@__crt_stdio_output@@@2@@__crt_stdio_output@@AEAAHHD@Z 000000018004686c f i libucrt:output.obj
 0001:0004587c       ?type_case_s_compute_narrow_string_length@?$output_processor@_WV?$stream_output_adapter@_W@__crt_stdio_output@@V?$format_validation_base@_WV?$stream_output_adapter@_W@__crt_stdio_output@@@2@@__crt_stdio_output@@AEAAHH_W@Z 000000018004687c f i libucrt:output.obj
 0001:0004590c       ?type_case_s_compute_narrow_string_length@?$output_processor@_WV?$stream_output_adapter@_W@__crt_stdio_output@@V?$positional_parameter_base@_WV?$stream_output_adapter@_W@__crt_stdio_output@@@2@@__crt_stdio_output@@AEAAHH_W@Z 000000018004690c f i libucrt:output.obj
 0001:0004599c       ?type_case_s_compute_narrow_string_length@?$output_processor@_WV?$stream_output_adapter@_W@__crt_stdio_output@@V?$standard_base@_WV?$stream_output_adapter@_W@__crt_stdio_output@@@2@@__crt_stdio_output@@AEAAHH_W@Z 000000018004699c f i libucrt:output.obj
 0001:00045a2c       ?type_case_s_compute_narrow_string_length@?$output_processor@_WV?$string_output_adapter@_W@__crt_stdio_output@@V?$format_validation_base@_WV?$string_output_adapter@_W@__crt_stdio_output@@@2@@__crt_stdio_output@@AEAAHH_W@Z 0000000180046a2c f i libucrt:output.obj
 0001:00045abc       ?type_case_s_compute_narrow_string_length@?$output_processor@_WV?$string_output_adapter@_W@__crt_stdio_output@@V?$positional_parameter_base@_WV?$string_output_adapter@_W@__crt_stdio_output@@@2@@__crt_stdio_output@@AEAAHH_W@Z 0000000180046abc f i libucrt:output.obj
 0001:00045b4c       ?type_case_s_compute_narrow_string_length@?$output_processor@_WV?$string_output_adapter@_W@__crt_stdio_output@@V?$standard_base@_WV?$string_output_adapter@_W@__crt_stdio_output@@@2@@__crt_stdio_output@@AEAAHH_W@Z 0000000180046b4c f i libucrt:output.obj
 0001:00045bdc       ?type_case_u@?$output_processor@DV?$stream_output_adapter@D@__crt_stdio_output@@V?$format_validation_base@DV?$stream_output_adapter@D@__crt_stdio_output@@@2@@__crt_stdio_output@@AEAA_NXZ 0000000180046bdc f i libucrt:output.obj
 0001:00045be4       ?type_case_u@?$output_processor@DV?$stream_output_adapter@D@__crt_stdio_output@@V?$positional_parameter_base@DV?$stream_output_adapter@D@__crt_stdio_output@@@2@@__crt_stdio_output@@AEAA_NXZ 0000000180046be4 f i libucrt:output.obj
 0001:00045bec       ?type_case_u@?$output_processor@DV?$stream_output_adapter@D@__crt_stdio_output@@V?$standard_base@DV?$stream_output_adapter@D@__crt_stdio_output@@@2@@__crt_stdio_output@@AEAA_NXZ 0000000180046bec f i libucrt:output.obj
 0001:00045bf4       ?type_case_u@?$output_processor@DV?$string_output_adapter@D@__crt_stdio_output@@V?$format_validation_base@DV?$string_output_adapter@D@__crt_stdio_output@@@2@@__crt_stdio_output@@AEAA_NXZ 0000000180046bf4 f i libucrt:output.obj
 0001:00045bfc       ?type_case_u@?$output_processor@DV?$string_output_adapter@D@__crt_stdio_output@@V?$positional_parameter_base@DV?$string_output_adapter@D@__crt_stdio_output@@@2@@__crt_stdio_output@@AEAA_NXZ 0000000180046bfc f i libucrt:output.obj
 0001:00045c04       ?type_case_u@?$output_processor@DV?$string_output_adapter@D@__crt_stdio_output@@V?$standard_base@DV?$string_output_adapter@D@__crt_stdio_output@@@2@@__crt_stdio_output@@AEAA_NXZ 0000000180046c04 f i libucrt:output.obj
 0001:00045c0c       ?type_case_u@?$output_processor@_WV?$stream_output_adapter@_W@__crt_stdio_output@@V?$format_validation_base@_WV?$stream_output_adapter@_W@__crt_stdio_output@@@2@@__crt_stdio_output@@AEAA_NXZ 0000000180046c0c f i libucrt:output.obj
 0001:00045c14       ?type_case_u@?$output_processor@_WV?$stream_output_adapter@_W@__crt_stdio_output@@V?$positional_parameter_base@_WV?$stream_output_adapter@_W@__crt_stdio_output@@@2@@__crt_stdio_output@@AEAA_NXZ 0000000180046c14 f i libucrt:output.obj
 0001:00045c1c       ?type_case_u@?$output_processor@_WV?$stream_output_adapter@_W@__crt_stdio_output@@V?$standard_base@_WV?$stream_output_adapter@_W@__crt_stdio_output@@@2@@__crt_stdio_output@@AEAA_NXZ 0000000180046c1c f i libucrt:output.obj
 0001:00045c24       ?type_case_u@?$output_processor@_WV?$string_output_adapter@_W@__crt_stdio_output@@V?$format_validation_base@_WV?$string_output_adapter@_W@__crt_stdio_output@@@2@@__crt_stdio_output@@AEAA_NXZ 0000000180046c24 f i libucrt:output.obj
 0001:00045c2c       ?type_case_u@?$output_processor@_WV?$string_output_adapter@_W@__crt_stdio_output@@V?$positional_parameter_base@_WV?$string_output_adapter@_W@__crt_stdio_output@@@2@@__crt_stdio_output@@AEAA_NXZ 0000000180046c2c f i libucrt:output.obj
 0001:00045c34       ?type_case_u@?$output_processor@_WV?$string_output_adapter@_W@__crt_stdio_output@@V?$standard_base@_WV?$string_output_adapter@_W@__crt_stdio_output@@@2@@__crt_stdio_output@@AEAA_NXZ 0000000180046c34 f i libucrt:output.obj
 0001:00045c3c       ?type_case_x@?$output_processor@DV?$stream_output_adapter@D@__crt_stdio_output@@V?$format_validation_base@DV?$stream_output_adapter@D@__crt_stdio_output@@@2@@__crt_stdio_output@@AEAA_NXZ 0000000180046c3c f i libucrt:output.obj
 0001:00045c44       ?type_case_x@?$output_processor@DV?$stream_output_adapter@D@__crt_stdio_output@@V?$positional_parameter_base@DV?$stream_output_adapter@D@__crt_stdio_output@@@2@@__crt_stdio_output@@AEAA_NXZ 0000000180046c44 f i libucrt:output.obj
 0001:00045c4c       ?type_case_x@?$output_processor@DV?$stream_output_adapter@D@__crt_stdio_output@@V?$standard_base@DV?$stream_output_adapter@D@__crt_stdio_output@@@2@@__crt_stdio_output@@AEAA_NXZ 0000000180046c4c f i libucrt:output.obj
 0001:00045c54       ?type_case_x@?$output_processor@DV?$string_output_adapter@D@__crt_stdio_output@@V?$format_validation_base@DV?$string_output_adapter@D@__crt_stdio_output@@@2@@__crt_stdio_output@@AEAA_NXZ 0000000180046c54 f i libucrt:output.obj
 0001:00045c5c       ?type_case_x@?$output_processor@DV?$string_output_adapter@D@__crt_stdio_output@@V?$positional_parameter_base@DV?$string_output_adapter@D@__crt_stdio_output@@@2@@__crt_stdio_output@@AEAA_NXZ 0000000180046c5c f i libucrt:output.obj
 0001:00045c64       ?type_case_x@?$output_processor@DV?$string_output_adapter@D@__crt_stdio_output@@V?$standard_base@DV?$string_output_adapter@D@__crt_stdio_output@@@2@@__crt_stdio_output@@AEAA_NXZ 0000000180046c64 f i libucrt:output.obj
 0001:00045c6c       ?type_case_x@?$output_processor@_WV?$stream_output_adapter@_W@__crt_stdio_output@@V?$format_validation_base@_WV?$stream_output_adapter@_W@__crt_stdio_output@@@2@@__crt_stdio_output@@AEAA_NXZ 0000000180046c6c f i libucrt:output.obj
 0001:00045c74       ?type_case_x@?$output_processor@_WV?$stream_output_adapter@_W@__crt_stdio_output@@V?$positional_parameter_base@_WV?$stream_output_adapter@_W@__crt_stdio_output@@@2@@__crt_stdio_output@@AEAA_NXZ 0000000180046c74 f i libucrt:output.obj
 0001:00045c7c       ?type_case_x@?$output_processor@_WV?$stream_output_adapter@_W@__crt_stdio_output@@V?$standard_base@_WV?$stream_output_adapter@_W@__crt_stdio_output@@@2@@__crt_stdio_output@@AEAA_NXZ 0000000180046c7c f i libucrt:output.obj
 0001:00045c84       ?type_case_x@?$output_processor@_WV?$string_output_adapter@_W@__crt_stdio_output@@V?$format_validation_base@_WV?$string_output_adapter@_W@__crt_stdio_output@@@2@@__crt_stdio_output@@AEAA_NXZ 0000000180046c84 f i libucrt:output.obj
 0001:00045c8c       ?type_case_x@?$output_processor@_WV?$string_output_adapter@_W@__crt_stdio_output@@V?$positional_parameter_base@_WV?$string_output_adapter@_W@__crt_stdio_output@@@2@@__crt_stdio_output@@AEAA_NXZ 0000000180046c8c f i libucrt:output.obj
 0001:00045c94       ?type_case_x@?$output_processor@_WV?$string_output_adapter@_W@__crt_stdio_output@@V?$standard_base@_WV?$string_output_adapter@_W@__crt_stdio_output@@@2@@__crt_stdio_output@@AEAA_NXZ 0000000180046c94 f i libucrt:output.obj
 0001:00045c9c       ?unget@?$c_string_character_source@D@__crt_strtox@@QEAAXD@Z 0000000180046c9c f i libucrt:output.obj
 0001:00045cd0       ?unget@?$c_string_character_source@_W@__crt_strtox@@QEAAX_W@Z 0000000180046cd0 f i libucrt:output.obj
 0001:00045d08       ?unsafe_value@?$cached@H@__crt_cached_ptd_host@@QEAAHXZ 0000000180046d08 f i libucrt:output.obj
 0001:00045d0c       ?unsafe_value@?$cached@K@__crt_cached_ptd_host@@QEAAKXZ 0000000180046d0c f i libucrt:output.obj
 0001:00045d10       ?unset_flag@?$output_processor@DV?$stream_output_adapter@D@__crt_stdio_output@@V?$format_validation_base@DV?$stream_output_adapter@D@__crt_stdio_output@@@2@@__crt_stdio_output@@AEAAXI@Z 0000000180046d10 f i libucrt:output.obj
 0001:00045d18       ?unset_flag@?$output_processor@DV?$stream_output_adapter@D@__crt_stdio_output@@V?$positional_parameter_base@DV?$stream_output_adapter@D@__crt_stdio_output@@@2@@__crt_stdio_output@@AEAAXI@Z 0000000180046d18 f i libucrt:output.obj
 0001:00045d20       ?unset_flag@?$output_processor@DV?$stream_output_adapter@D@__crt_stdio_output@@V?$standard_base@DV?$stream_output_adapter@D@__crt_stdio_output@@@2@@__crt_stdio_output@@AEAAXI@Z 0000000180046d20 f i libucrt:output.obj
 0001:00045d28       ?unset_flag@?$output_processor@DV?$string_output_adapter@D@__crt_stdio_output@@V?$format_validation_base@DV?$string_output_adapter@D@__crt_stdio_output@@@2@@__crt_stdio_output@@AEAAXI@Z 0000000180046d28 f i libucrt:output.obj
 0001:00045d30       ?unset_flag@?$output_processor@DV?$string_output_adapter@D@__crt_stdio_output@@V?$positional_parameter_base@DV?$string_output_adapter@D@__crt_stdio_output@@@2@@__crt_stdio_output@@AEAAXI@Z 0000000180046d30 f i libucrt:output.obj
 0001:00045d38       ?unset_flag@?$output_processor@DV?$string_output_adapter@D@__crt_stdio_output@@V?$standard_base@DV?$string_output_adapter@D@__crt_stdio_output@@@2@@__crt_stdio_output@@AEAAXI@Z 0000000180046d38 f i libucrt:output.obj
 0001:00045d40       ?unset_flag@?$output_processor@_WV?$stream_output_adapter@_W@__crt_stdio_output@@V?$format_validation_base@_WV?$stream_output_adapter@_W@__crt_stdio_output@@@2@@__crt_stdio_output@@AEAAXI@Z 0000000180046d40 f i libucrt:output.obj
 0001:00045d48       ?unset_flag@?$output_processor@_WV?$stream_output_adapter@_W@__crt_stdio_output@@V?$positional_parameter_base@_WV?$stream_output_adapter@_W@__crt_stdio_output@@@2@@__crt_stdio_output@@AEAAXI@Z 0000000180046d48 f i libucrt:output.obj
 0001:00045d50       ?unset_flag@?$output_processor@_WV?$stream_output_adapter@_W@__crt_stdio_output@@V?$standard_base@_WV?$stream_output_adapter@_W@__crt_stdio_output@@@2@@__crt_stdio_output@@AEAAXI@Z 0000000180046d50 f i libucrt:output.obj
 0001:00045d58       ?unset_flag@?$output_processor@_WV?$string_output_adapter@_W@__crt_stdio_output@@V?$format_validation_base@_WV?$string_output_adapter@_W@__crt_stdio_output@@@2@@__crt_stdio_output@@AEAAXI@Z 0000000180046d58 f i libucrt:output.obj
 0001:00045d60       ?unset_flag@?$output_processor@_WV?$string_output_adapter@_W@__crt_stdio_output@@V?$positional_parameter_base@_WV?$string_output_adapter@_W@__crt_stdio_output@@@2@@__crt_stdio_output@@AEAAXI@Z 0000000180046d60 f i libucrt:output.obj
 0001:00045d68       ?unset_flag@?$output_processor@_WV?$string_output_adapter@_W@__crt_stdio_output@@V?$standard_base@_WV?$string_output_adapter@_W@__crt_stdio_output@@@2@@__crt_stdio_output@@AEAAXI@Z 0000000180046d68 f i libucrt:output.obj
 0001:00045d70       ?update_field_width@?$positional_parameter_base@DV?$stream_output_adapter@D@__crt_stdio_output@@@__crt_stdio_output@@IEAA_NXZ 0000000180046d70 f i libucrt:output.obj
 0001:00045f3c       ?update_field_width@?$positional_parameter_base@DV?$string_output_adapter@D@__crt_stdio_output@@@__crt_stdio_output@@IEAA_NXZ 0000000180046f3c f i libucrt:output.obj
 0001:00046108       ?update_field_width@?$positional_parameter_base@_WV?$stream_output_adapter@_W@__crt_stdio_output@@@__crt_stdio_output@@IEAA_NXZ 0000000180047108 f i libucrt:output.obj
 0001:000462d8       ?update_field_width@?$positional_parameter_base@_WV?$string_output_adapter@_W@__crt_stdio_output@@@__crt_stdio_output@@IEAA_NXZ 00000001800472d8 f i libucrt:output.obj
 0001:000464a8       ?update_field_width@?$standard_base@DV?$stream_output_adapter@D@__crt_stdio_output@@@__crt_stdio_output@@IEAA_NXZ 00000001800474a8 f i libucrt:output.obj
 0001:000464c4       ?update_field_width@?$standard_base@DV?$string_output_adapter@D@__crt_stdio_output@@@__crt_stdio_output@@IEAA_NXZ 00000001800474c4 f i libucrt:output.obj
 0001:000464e0       ?update_field_width@?$standard_base@_WV?$stream_output_adapter@_W@__crt_stdio_output@@@__crt_stdio_output@@IEAA_NXZ 00000001800474e0 f i libucrt:output.obj
 0001:000464fc       ?update_field_width@?$standard_base@_WV?$string_output_adapter@_W@__crt_stdio_output@@@__crt_stdio_output@@IEAA_NXZ 00000001800474fc f i libucrt:output.obj
 0001:00046520       ?update_locale@__crt_cached_ptd_host@@AEAAXXZ 0000000180047520 f i libucrt:output.obj
 0001:00046530       ?update_locale_slow@__crt_cached_ptd_host@@AEAAXXZ 0000000180047530 f i libucrt:output.obj
 0001:000465c4       ?update_precision@?$positional_parameter_base@DV?$stream_output_adapter@D@__crt_stdio_output@@@__crt_stdio_output@@IEAA_NXZ 00000001800475c4 f i libucrt:output.obj
 0001:00046790       ?update_precision@?$positional_parameter_base@DV?$string_output_adapter@D@__crt_stdio_output@@@__crt_stdio_output@@IEAA_NXZ 0000000180047790 f i libucrt:output.obj
 0001:0004695c       ?update_precision@?$positional_parameter_base@_WV?$stream_output_adapter@_W@__crt_stdio_output@@@__crt_stdio_output@@IEAA_NXZ 000000018004795c f i libucrt:output.obj
 0001:00046b2c       ?update_precision@?$positional_parameter_base@_WV?$string_output_adapter@_W@__crt_stdio_output@@@__crt_stdio_output@@IEAA_NXZ 0000000180047b2c f i libucrt:output.obj
 0001:00046cfc       ?update_precision@?$standard_base@DV?$stream_output_adapter@D@__crt_stdio_output@@@__crt_stdio_output@@IEAA_NXZ 0000000180047cfc f i libucrt:output.obj
 0001:00046d18       ?update_precision@?$standard_base@DV?$string_output_adapter@D@__crt_stdio_output@@@__crt_stdio_output@@IEAA_NXZ 0000000180047d18 f i libucrt:output.obj
 0001:00046d34       ?update_precision@?$standard_base@_WV?$stream_output_adapter@_W@__crt_stdio_output@@@__crt_stdio_output@@IEAA_NXZ 0000000180047d34 f i libucrt:output.obj
 0001:00046d50       ?update_precision@?$standard_base@_WV?$string_output_adapter@_W@__crt_stdio_output@@@__crt_stdio_output@@IEAA_NXZ 0000000180047d50 f i libucrt:output.obj
 0001:00046d6c       ?valid@?$cached@H@__crt_cached_ptd_host@@QEBA_NXZ 0000000180047d6c f i libucrt:output.obj
 0001:00046d70       ?valid@?$cached@K@__crt_cached_ptd_host@@QEBA_NXZ 0000000180047d70 f i libucrt:output.obj
 0001:00046d74       ?valid@__crt_stdio_stream@@QEBA_NXZ 0000000180047d74 f i libucrt:output.obj
 0001:00046d80       ?validate@?$c_string_character_source@D@__crt_strtox@@QEBA_NXZ 0000000180047d80 f i libucrt:output.obj
 0001:00046db0       ?validate@?$c_string_character_source@_W@__crt_strtox@@QEBA_NXZ 0000000180047db0 f i libucrt:output.obj
 0001:00046de0       ?validate@?$stream_output_adapter@D@__crt_stdio_output@@QEBA_NAEAV__crt_cached_ptd_host@@@Z 0000000180047de0 f i libucrt:output.obj
 0001:00046e30       ?validate@?$stream_output_adapter@_W@__crt_stdio_output@@QEBA_NAEAV__crt_cached_ptd_host@@@Z 0000000180047e30 f i libucrt:output.obj
 0001:00046e78       ?validate@?$string_output_adapter@D@__crt_stdio_output@@QEBA_NAEAV__crt_cached_ptd_host@@@Z 0000000180047e78 f i libucrt:output.obj
 0001:00046ec0       ?validate@?$string_output_adapter@_W@__crt_stdio_output@@QEBA_NAEAV__crt_cached_ptd_host@@@Z 0000000180047ec0 f i libucrt:output.obj
 0001:00046f08       ?validate_and_store_parameter_data@?$positional_parameter_base@DV?$stream_output_adapter@D@__crt_stdio_output@@@__crt_stdio_output@@AEAA_NAEAUparameter_data@12@W4parameter_type@12@DW4length_modifier@2@@Z 0000000180047f08 f i libucrt:output.obj
 0001:00046f84       ?validate_and_store_parameter_data@?$positional_parameter_base@DV?$string_output_adapter@D@__crt_stdio_output@@@__crt_stdio_output@@AEAA_NAEAUparameter_data@12@W4parameter_type@12@DW4length_modifier@2@@Z 0000000180047f84 f i libucrt:output.obj
 0001:00047000       ?validate_and_store_parameter_data@?$positional_parameter_base@_WV?$stream_output_adapter@_W@__crt_stdio_output@@@__crt_stdio_output@@AEAA_NAEAUparameter_data@12@W4parameter_type@12@_WW4length_modifier@2@@Z 0000000180048000 f i libucrt:output.obj
 0001:0004707c       ?validate_and_store_parameter_data@?$positional_parameter_base@_WV?$string_output_adapter@_W@__crt_stdio_output@@@__crt_stdio_output@@AEAA_NAEAUparameter_data@12@W4parameter_type@12@_WW4length_modifier@2@@Z 000000018004807c f i libucrt:output.obj
 0001:000470f8       ?validate_and_update_state_at_beginning_of_format_character@?$positional_parameter_base@DV?$stream_output_adapter@D@__crt_stdio_output@@@__crt_stdio_output@@IEAA_NXZ 00000001800480f8 f i libucrt:output.obj
 0001:0004728c       ?validate_and_update_state_at_beginning_of_format_character@?$positional_parameter_base@DV?$string_output_adapter@D@__crt_stdio_output@@@__crt_stdio_output@@IEAA_NXZ 000000018004828c f i libucrt:output.obj
 0001:00047420       ?validate_and_update_state_at_beginning_of_format_character@?$positional_parameter_base@_WV?$stream_output_adapter@_W@__crt_stdio_output@@@__crt_stdio_output@@IEAA_NXZ 0000000180048420 f i libucrt:output.obj
 0001:000475c4       ?validate_and_update_state_at_beginning_of_format_character@?$positional_parameter_base@_WV?$string_output_adapter@_W@__crt_stdio_output@@@__crt_stdio_output@@IEAA_NXZ 00000001800485c4 f i libucrt:output.obj
 0001:00047768       ?validate_and_update_state_at_beginning_of_format_character@?$standard_base@DV?$stream_output_adapter@D@__crt_stdio_output@@@__crt_stdio_output@@IEAA_NXZ 0000000180048768 f i libucrt:output.obj
 0001:0004776c       ?validate_and_update_state_at_beginning_of_format_character@?$standard_base@DV?$string_output_adapter@D@__crt_stdio_output@@@__crt_stdio_output@@IEAA_NXZ 000000018004876c f i libucrt:output.obj
 0001:00047770       ?validate_and_update_state_at_beginning_of_format_character@?$standard_base@_WV?$stream_output_adapter@_W@__crt_stdio_output@@@__crt_stdio_output@@IEAA_NXZ 0000000180048770 f i libucrt:output.obj
 0001:00047774       ?validate_and_update_state_at_beginning_of_format_character@?$standard_base@_WV?$string_output_adapter@_W@__crt_stdio_output@@@__crt_stdio_output@@IEAA_NXZ 0000000180048774 f i libucrt:output.obj
 0001:00047778       ?validate_and_update_state_at_end_of_format_string@?$format_validation_base@DV?$stream_output_adapter@D@__crt_stdio_output@@@__crt_stdio_output@@IEAA_NXZ 0000000180048778 f i libucrt:output.obj
 0001:000477d0       ?validate_and_update_state_at_end_of_format_string@?$format_validation_base@DV?$string_output_adapter@D@__crt_stdio_output@@@__crt_stdio_output@@IEAA_NXZ 00000001800487d0 f i libucrt:output.obj
 0001:00047828       ?validate_and_update_state_at_end_of_format_string@?$format_validation_base@_WV?$stream_output_adapter@_W@__crt_stdio_output@@@__crt_stdio_output@@IEAA_NXZ 0000000180048828 f i libucrt:output.obj
 0001:00047880       ?validate_and_update_state_at_end_of_format_string@?$format_validation_base@_WV?$string_output_adapter@_W@__crt_stdio_output@@@__crt_stdio_output@@IEAA_NXZ 0000000180048880 f i libucrt:output.obj
 0001:000478d8       ?validate_and_update_state_at_end_of_format_string@?$positional_parameter_base@DV?$stream_output_adapter@D@__crt_stdio_output@@@__crt_stdio_output@@IEAA_NXZ 00000001800488d8 f i libucrt:output.obj
 0001:000479bc       ?validate_and_update_state_at_end_of_format_string@?$positional_parameter_base@DV?$string_output_adapter@D@__crt_stdio_output@@@__crt_stdio_output@@IEAA_NXZ 00000001800489bc f i libucrt:output.obj
 0001:00047aa0       ?validate_and_update_state_at_end_of_format_string@?$positional_parameter_base@_WV?$stream_output_adapter@_W@__crt_stdio_output@@@__crt_stdio_output@@IEAA_NXZ 0000000180048aa0 f i libucrt:output.obj
 0001:00047b84       ?validate_and_update_state_at_end_of_format_string@?$positional_parameter_base@_WV?$string_output_adapter@_W@__crt_stdio_output@@@__crt_stdio_output@@IEAA_NXZ 0000000180048b84 f i libucrt:output.obj
 0001:00047c68       ?validate_and_update_state_at_end_of_format_string@?$standard_base@DV?$stream_output_adapter@D@__crt_stdio_output@@@__crt_stdio_output@@IEBA_NXZ 0000000180048c68 f i libucrt:output.obj
 0001:00047c6c       ?validate_and_update_state_at_end_of_format_string@?$standard_base@DV?$string_output_adapter@D@__crt_stdio_output@@@__crt_stdio_output@@IEBA_NXZ 0000000180048c6c f i libucrt:output.obj
 0001:00047c70       ?validate_and_update_state_at_end_of_format_string@?$standard_base@_WV?$stream_output_adapter@_W@__crt_stdio_output@@@__crt_stdio_output@@IEBA_NXZ 0000000180048c70 f i libucrt:output.obj
 0001:00047c74       ?validate_and_update_state_at_end_of_format_string@?$standard_base@_WV?$string_output_adapter@_W@__crt_stdio_output@@@__crt_stdio_output@@IEBA_NXZ 0000000180048c74 f i libucrt:output.obj
 0001:00047c78       ?validate_state_for_type_case_a@?$positional_parameter_base@DV?$stream_output_adapter@D@__crt_stdio_output@@@__crt_stdio_output@@IEAA_NXZ 0000000180048c78 f i libucrt:output.obj
 0001:00047d94       ?validate_state_for_type_case_a@?$positional_parameter_base@DV?$string_output_adapter@D@__crt_stdio_output@@@__crt_stdio_output@@IEAA_NXZ 0000000180048d94 f i libucrt:output.obj
 0001:00047eb0       ?validate_state_for_type_case_a@?$positional_parameter_base@_WV?$stream_output_adapter@_W@__crt_stdio_output@@@__crt_stdio_output@@IEAA_NXZ 0000000180048eb0 f i libucrt:output.obj
 0001:00047fd0       ?validate_state_for_type_case_a@?$positional_parameter_base@_WV?$string_output_adapter@_W@__crt_stdio_output@@@__crt_stdio_output@@IEAA_NXZ 0000000180048fd0 f i libucrt:output.obj
 0001:000480f0       ?validate_state_for_type_case_a@?$standard_base@DV?$stream_output_adapter@D@__crt_stdio_output@@@__crt_stdio_output@@IEBA_NXZ 00000001800490f0 f i libucrt:output.obj
 0001:000480f4       ?validate_state_for_type_case_a@?$standard_base@DV?$string_output_adapter@D@__crt_stdio_output@@@__crt_stdio_output@@IEBA_NXZ 00000001800490f4 f i libucrt:output.obj
 0001:000480f8       ?validate_state_for_type_case_a@?$standard_base@_WV?$stream_output_adapter@_W@__crt_stdio_output@@@__crt_stdio_output@@IEBA_NXZ 00000001800490f8 f i libucrt:output.obj
 0001:000480fc       ?validate_state_for_type_case_a@?$standard_base@_WV?$string_output_adapter@_W@__crt_stdio_output@@@__crt_stdio_output@@IEBA_NXZ 00000001800490fc f i libucrt:output.obj
 0001:00048100       ?validate_stream_is_ansi_if_required@?$__acrt_stdio_char_traits@D@@SA_NQEAU_iobuf@@@Z 0000000180049100 f i libucrt:output.obj
 0001:000481c4       ?validate_stream_is_ansi_if_required@?$__acrt_stdio_char_traits@_W@@SA_NQEAU_iobuf@@@Z 00000001800491c4 f i libucrt:output.obj
 0001:000481c8       ?wide_character_to_digit@__crt_strtox@@YAH_W@Z 00000001800491c8 f i libucrt:output.obj
 0001:000483d0       ?wide_null_string@?$output_processor@DV?$stream_output_adapter@D@__crt_stdio_output@@V?$format_validation_base@DV?$stream_output_adapter@D@__crt_stdio_output@@@2@@__crt_stdio_output@@CAPEA_WXZ 00000001800493d0 f i libucrt:output.obj
 0001:000483dc       ?wide_null_string@?$output_processor@DV?$stream_output_adapter@D@__crt_stdio_output@@V?$positional_parameter_base@DV?$stream_output_adapter@D@__crt_stdio_output@@@2@@__crt_stdio_output@@CAPEA_WXZ 00000001800493dc f i libucrt:output.obj
 0001:000483e8       ?wide_null_string@?$output_processor@DV?$stream_output_adapter@D@__crt_stdio_output@@V?$standard_base@DV?$stream_output_adapter@D@__crt_stdio_output@@@2@@__crt_stdio_output@@CAPEA_WXZ 00000001800493e8 f i libucrt:output.obj
 0001:000483f4       ?wide_null_string@?$output_processor@DV?$string_output_adapter@D@__crt_stdio_output@@V?$format_validation_base@DV?$string_output_adapter@D@__crt_stdio_output@@@2@@__crt_stdio_output@@CAPEA_WXZ 00000001800493f4 f i libucrt:output.obj
 0001:00048400       ?wide_null_string@?$output_processor@DV?$string_output_adapter@D@__crt_stdio_output@@V?$positional_parameter_base@DV?$string_output_adapter@D@__crt_stdio_output@@@2@@__crt_stdio_output@@CAPEA_WXZ 0000000180049400 f i libucrt:output.obj
 0001:0004840c       ?wide_null_string@?$output_processor@DV?$string_output_adapter@D@__crt_stdio_output@@V?$standard_base@DV?$string_output_adapter@D@__crt_stdio_output@@@2@@__crt_stdio_output@@CAPEA_WXZ 000000018004940c f i libucrt:output.obj
 0001:00048418       ?wide_null_string@?$output_processor@_WV?$stream_output_adapter@_W@__crt_stdio_output@@V?$format_validation_base@_WV?$stream_output_adapter@_W@__crt_stdio_output@@@2@@__crt_stdio_output@@CAPEA_WXZ 0000000180049418 f i libucrt:output.obj
 0001:00048424       ?wide_null_string@?$output_processor@_WV?$stream_output_adapter@_W@__crt_stdio_output@@V?$positional_parameter_base@_WV?$stream_output_adapter@_W@__crt_stdio_output@@@2@@__crt_stdio_output@@CAPEA_WXZ 0000000180049424 f i libucrt:output.obj
 0001:00048430       ?wide_null_string@?$output_processor@_WV?$stream_output_adapter@_W@__crt_stdio_output@@V?$standard_base@_WV?$stream_output_adapter@_W@__crt_stdio_output@@@2@@__crt_stdio_output@@CAPEA_WXZ 0000000180049430 f i libucrt:output.obj
 0001:0004843c       ?wide_null_string@?$output_processor@_WV?$string_output_adapter@_W@__crt_stdio_output@@V?$format_validation_base@_WV?$string_output_adapter@_W@__crt_stdio_output@@@2@@__crt_stdio_output@@CAPEA_WXZ 000000018004943c f i libucrt:output.obj
 0001:00048448       ?wide_null_string@?$output_processor@_WV?$string_output_adapter@_W@__crt_stdio_output@@V?$positional_parameter_base@_WV?$string_output_adapter@_W@__crt_stdio_output@@@2@@__crt_stdio_output@@CAPEA_WXZ 0000000180049448 f i libucrt:output.obj
 0001:00048454       ?wide_null_string@?$output_processor@_WV?$string_output_adapter@_W@__crt_stdio_output@@V?$standard_base@_WV?$string_output_adapter@_W@__crt_stdio_output@@@2@@__crt_stdio_output@@CAPEA_WXZ 0000000180049454 f i libucrt:output.obj
 0001:00048460       ?write_character@?$output_adapter_common@DV?$stream_output_adapter@D@__crt_stdio_output@@@__crt_stdio_output@@QEBAXDQEAHAEAV__crt_cached_ptd_host@@@Z 0000000180049460 f i libucrt:output.obj
 0001:000484c0       ?write_character@?$output_adapter_common@_WV?$stream_output_adapter@_W@__crt_stdio_output@@@__crt_stdio_output@@QEBAX_WQEAHAEAV__crt_cached_ptd_host@@@Z 00000001800494c0 f i libucrt:output.obj
 0001:00048524       ?write_character@?$string_output_adapter@D@__crt_stdio_output@@QEBA_NDQEAHAEAV__crt_cached_ptd_host@@@Z 0000000180049524 f i libucrt:output.obj
 0001:0004857c       ?write_character@?$string_output_adapter@_W@__crt_stdio_output@@QEBA_N_WQEAHAEAV__crt_cached_ptd_host@@@Z 000000018004957c f i libucrt:output.obj
 0001:000485d8       ?write_character_without_count_update@?$stream_output_adapter@D@__crt_stdio_output@@QEBA_NDAEAV__crt_cached_ptd_host@@@Z 00000001800495d8 f i libucrt:output.obj
 0001:00048628       ?write_character_without_count_update@?$stream_output_adapter@_W@__crt_stdio_output@@QEBA_N_WAEAV__crt_cached_ptd_host@@@Z 0000000180049628 f i libucrt:output.obj
 0001:0004867c       ?write_stored_string_tchar@?$output_processor@DV?$stream_output_adapter@D@__crt_stdio_output@@V?$format_validation_base@DV?$stream_output_adapter@D@__crt_stdio_output@@@2@@__crt_stdio_output@@AEAA_ND@Z 000000018004967c f i libucrt:output.obj
 0001:000487fc       ?write_stored_string_tchar@?$output_processor@DV?$stream_output_adapter@D@__crt_stdio_output@@V?$positional_parameter_base@DV?$stream_output_adapter@D@__crt_stdio_output@@@2@@__crt_stdio_output@@AEAA_ND@Z 00000001800497fc f i libucrt:output.obj
 0001:0004897c       ?write_stored_string_tchar@?$output_processor@DV?$stream_output_adapter@D@__crt_stdio_output@@V?$standard_base@DV?$stream_output_adapter@D@__crt_stdio_output@@@2@@__crt_stdio_output@@AEAA_ND@Z 000000018004997c f i libucrt:output.obj
 0001:00048afc       ?write_stored_string_tchar@?$output_processor@DV?$string_output_adapter@D@__crt_stdio_output@@V?$format_validation_base@DV?$string_output_adapter@D@__crt_stdio_output@@@2@@__crt_stdio_output@@AEAA_ND@Z 0000000180049afc f i libucrt:output.obj
 0001:00048c1c       ?write_stored_string_tchar@?$output_processor@DV?$string_output_adapter@D@__crt_stdio_output@@V?$positional_parameter_base@DV?$string_output_adapter@D@__crt_stdio_output@@@2@@__crt_stdio_output@@AEAA_ND@Z 0000000180049c1c f i libucrt:output.obj
 0001:00048d3c       ?write_stored_string_tchar@?$output_processor@DV?$string_output_adapter@D@__crt_stdio_output@@V?$standard_base@DV?$string_output_adapter@D@__crt_stdio_output@@@2@@__crt_stdio_output@@AEAA_ND@Z 0000000180049d3c f i libucrt:output.obj
 0001:00048e5c       ?write_stored_string_tchar@?$output_processor@_WV?$stream_output_adapter@_W@__crt_stdio_output@@V?$format_validation_base@_WV?$stream_output_adapter@_W@__crt_stdio_output@@@2@@__crt_stdio_output@@AEAA_N_W@Z 0000000180049e5c f i libucrt:output.obj
 0001:00048fe0       ?write_stored_string_tchar@?$output_processor@_WV?$stream_output_adapter@_W@__crt_stdio_output@@V?$positional_parameter_base@_WV?$stream_output_adapter@_W@__crt_stdio_output@@@2@@__crt_stdio_output@@AEAA_N_W@Z 0000000180049fe0 f i libucrt:output.obj
 0001:00049164       ?write_stored_string_tchar@?$output_processor@_WV?$stream_output_adapter@_W@__crt_stdio_output@@V?$standard_base@_WV?$stream_output_adapter@_W@__crt_stdio_output@@@2@@__crt_stdio_output@@AEAA_N_W@Z 000000018004a164 f i libucrt:output.obj
 0001:000492e8       ?write_stored_string_tchar@?$output_processor@_WV?$string_output_adapter@_W@__crt_stdio_output@@V?$format_validation_base@_WV?$string_output_adapter@_W@__crt_stdio_output@@@2@@__crt_stdio_output@@AEAA_N_W@Z 000000018004a2e8 f i libucrt:output.obj
 0001:00049440       ?write_stored_string_tchar@?$output_processor@_WV?$string_output_adapter@_W@__crt_stdio_output@@V?$positional_parameter_base@_WV?$string_output_adapter@_W@__crt_stdio_output@@@2@@__crt_stdio_output@@AEAA_N_W@Z 000000018004a440 f i libucrt:output.obj
 0001:00049598       ?write_stored_string_tchar@?$output_processor@_WV?$string_output_adapter@_W@__crt_stdio_output@@V?$standard_base@_WV?$string_output_adapter@_W@__crt_stdio_output@@@2@@__crt_stdio_output@@AEAA_N_W@Z 000000018004a598 f i libucrt:output.obj
 0001:000496f0       ?write_string@?$stream_output_adapter@D@__crt_stdio_output@@QEBAXQEBDHQEAHAEAV__crt_cached_ptd_host@@@Z 000000018004a6f0 f i libucrt:output.obj
 0001:00049720       ?write_string@?$stream_output_adapter@_W@__crt_stdio_output@@QEBAXQEB_WHQEAHAEAV__crt_cached_ptd_host@@@Z 000000018004a720 f i libucrt:output.obj
 0001:00049750       ?write_string@?$string_output_adapter@D@__crt_stdio_output@@QEBAXQEBDHQEAHAEAV__crt_cached_ptd_host@@@Z 000000018004a750 f i libucrt:output.obj
 0001:0004981c       ?write_string@?$string_output_adapter@_W@__crt_stdio_output@@QEBAXQEB_WHQEAHAEAV__crt_cached_ptd_host@@@Z 000000018004a81c f i libucrt:output.obj
 0001:000498ec       ?write_string_impl@?$output_adapter_common@DV?$stream_output_adapter@D@__crt_stdio_output@@@__crt_stdio_output@@IEBAXQEBDHQEAHAEAV__crt_cached_ptd_host@@@Z 000000018004a8ec f i libucrt:output.obj
 0001:000499ec       ?write_string_impl@?$output_adapter_common@_WV?$stream_output_adapter@_W@__crt_stdio_output@@@__crt_stdio_output@@IEBAXQEB_WHQEAHAEAV__crt_cached_ptd_host@@@Z 000000018004a9ec f i libucrt:output.obj
 0001:00049b00       __acrt_disable_global_locale_sync 000000018004ab00 f i libucrt:output.obj
 0001:00049b08       __acrt_enable_global_locale_sync 000000018004ab08 f i libucrt:output.obj
 0001:00049b14       __acrt_isleadbyte_l_noupdate 000000018004ab14 f i libucrt:output.obj
 0001:00049b40       __acrt_locale_changed      000000018004ab40 f i libucrt:output.obj
 0001:00049b50       __acrt_locale_get_ctype_array_value 000000018004ab50 f i libucrt:output.obj
 0001:00049b70       __ascii_iswalpha           000000018004ab70 f i libucrt:output.obj
 0001:00049b90       __ascii_toupper            000000018004ab90 f i libucrt:output.obj
 0001:00049ba4       __ascii_towupper           000000018004aba4 f i libucrt:output.obj
 0001:00049bb4       __stdio_common_vfprintf    000000018004abb4 f   libucrt:output.obj
 0001:00049d24       __stdio_common_vfprintf_p  000000018004ad24 f   libucrt:output.obj
 0001:00049e94       __stdio_common_vfprintf_s  000000018004ae94 f   libucrt:output.obj
 0001:0004a004       __stdio_common_vfwprintf   000000018004b004 f   libucrt:output.obj
 0001:0004a174       __stdio_common_vfwprintf_p 000000018004b174 f   libucrt:output.obj
 0001:0004a2e4       __stdio_common_vfwprintf_s 000000018004b2e4 f   libucrt:output.obj
 0001:0004a454       __stdio_common_vsnprintf_s 000000018004b454 f   libucrt:output.obj
 0001:0004a6a0       __stdio_common_vsnwprintf_s 000000018004b6a0 f   libucrt:output.obj
 0001:0004a8f0       __stdio_common_vsprintf    000000018004b8f0 f   libucrt:output.obj
 0001:0004abd8       __stdio_common_vsprintf_p  000000018004bbd8 f   libucrt:output.obj
 0001:0004acbc       __stdio_common_vsprintf_s  000000018004bcbc f   libucrt:output.obj
 0001:0004ae14       __stdio_common_vswprintf   000000018004be14 f   libucrt:output.obj
 0001:0004b104       __stdio_common_vswprintf_p 000000018004c104 f   libucrt:output.obj
 0001:0004b1e8       __stdio_common_vswprintf_s 000000018004c1e8 f   libucrt:output.obj
 0001:0004b340       _ctype_fast_check_internal 000000018004c340 f i libucrt:output.obj
 0001:0004b358       _isdigit_fast_internal     000000018004c358 f i libucrt:output.obj
 0001:0004b374       _tolower_fast_internal     000000018004c374 f i libucrt:output.obj
 0001:0004b38c       ??$is_overflow_condition@_K@__crt_strtox@@YA_NI_K@Z 000000018004c38c f i libucrt:atox.obj
 0001:0004b3d0       ??$make_c_string_character_source@D$$T@__crt_strtox@@YA?AV?$c_string_character_source@D@0@QEBD$$T@Z 000000018004c3d0 f i libucrt:atox.obj
 0001:0004b3e8       ??$make_c_string_character_source@_W$$T@__crt_strtox@@YA?AV?$c_string_character_source@_W@0@QEB_W$$T@Z 000000018004c3e8 f i libucrt:atox.obj
 0001:0004b400       ??$parse_integer@KV?$c_string_character_source@D@__crt_strtox@@$00@__crt_strtox@@YAKAEAV__crt_cached_ptd_host@@V?$c_string_character_source@D@0@H_N@Z 000000018004c400 f i libucrt:atox.obj
 0001:0004b7a8       ??$parse_integer@KV?$c_string_character_source@_W@__crt_strtox@@$00@__crt_strtox@@YAKAEAV__crt_cached_ptd_host@@V?$c_string_character_source@_W@0@H_N@Z 000000018004c7a8 f i libucrt:atox.obj
 0001:0004c128       ??$parse_integer@_KV?$c_string_character_source@D@__crt_strtox@@$00@__crt_strtox@@YA_KAEAV__crt_cached_ptd_host@@V?$c_string_character_source@D@0@H_N@Z 000000018004d128 f i libucrt:atox.obj
 0001:0004c4bc       ??$parse_integer@_KV?$c_string_character_source@_W@__crt_strtox@@$00@__crt_strtox@@YA_KAEAV__crt_cached_ptd_host@@V?$c_string_character_source@_W@0@H_N@Z 000000018004d4bc f i libucrt:atox.obj
 0001:0004ce20       ??$parse_integer_from_string@JD$$T@__crt_strtox@@YAJQEBD$$THQEAU__crt_locale_pointers@@@Z 000000018004de20 f i libucrt:atox.obj
 0001:0004cf0c       ??$parse_integer_from_string@J_W$$T@__crt_strtox@@YAJQEB_W$$THQEAU__crt_locale_pointers@@@Z 000000018004df0c f i libucrt:atox.obj
 0001:0004cff8       ??$parse_integer_from_string@_JD$$T@__crt_strtox@@YA_JQEBD$$THQEAU__crt_locale_pointers@@@Z 000000018004dff8 f i libucrt:atox.obj
 0001:0004d0e8       ??$parse_integer_from_string@_J_W$$T@__crt_strtox@@YA_JQEB_W$$THQEAU__crt_locale_pointers@@@Z 000000018004e0e8 f i libucrt:atox.obj
 0001:0004d1d8       ?is_space@__crt_strtox@@YA_NDQEAU__crt_locale_pointers@@@Z 000000018004e1d8 f i libucrt:atox.obj
 0001:0004d200       ?is_space@__crt_strtox@@YA_N_WPEAU__crt_locale_pointers@@@Z 000000018004e200 f i libucrt:atox.obj
 0001:0004d220       ?maximum_signed_value@__crt_strtox@@YA_J_K@Z 000000018004e220 f i libucrt:atox.obj
 0001:0004d230       ?minimum_signed_value@__crt_strtox@@YA_J_K@Z 000000018004e230 f i libucrt:atox.obj
 0001:0004d240       __acrt_get_locale_data_prefix 000000018004e240 f i libucrt:atox.obj
 0001:0004d244       _atoi64                    000000018004e244 f   libucrt:atox.obj
 0001:0004d324       _atoi64_l                  000000018004e324 f   libucrt:atox.obj
 0001:0004d410       _atoi_l                    000000018004e410 f   libucrt:atox.obj
 0001:0004d4f8       _atol_l                    000000018004e4f8 f   libucrt:atox.obj
 0001:0004d5e0       _atoll_l                   000000018004e5e0 f   libucrt:atox.obj
 0001:0004d6cc       _chvalidchk_l              000000018004e6cc f i libucrt:atox.obj
 0001:0004d748       _ischartype_l              000000018004e748 f i libucrt:atox.obj
 0001:0004d7dc       _wtoi                      000000018004e7dc f   libucrt:atox.obj
 0001:0004d8b8       _wtoi64                    000000018004e8b8 f   libucrt:atox.obj
 0001:0004d998       _wtoi64_l                  000000018004e998 f   libucrt:atox.obj
 0001:0004da84       _wtoi_l                    000000018004ea84 f   libucrt:atox.obj
 0001:0004db6c       _wtol                      000000018004eb6c f   libucrt:atox.obj
 0001:0004dc48       _wtol_l                    000000018004ec48 f   libucrt:atox.obj
 0001:0004dd30       _wtoll                     000000018004ed30 f   libucrt:atox.obj
 0001:0004de10       _wtoll_l                   000000018004ee10 f   libucrt:atox.obj
 0001:0004defc       atoi                       000000018004eefc f   libucrt:atox.obj
 0001:0004dfd8       atol                       000000018004efd8 f   libucrt:atox.obj
 0001:0004e0b4       atoll                      000000018004f0b4 f   libucrt:atox.obj
 0001:0004e1b0       strncmp                    000000018004f1b0 f   libucrt:strncmp.obj
 0001:0004e250       calloc                     000000018004f250 f   libucrt:calloc.obj
 0001:0004e258       wcsncmp                    000000018004f258 f   libucrt:wcsncmp.obj
 0001:0004e290       __acrt_initialize_fma3     000000018004f290 f   libucrt:fma3_available.obj
 0001:0004e31c       _get_FMA3_enable           000000018004f31c f   libucrt:fma3_available.obj
 0001:0004e324       _set_FMA3_enable           000000018004f324 f   libucrt:fma3_available.obj
 0001:0004e340       __remainder_piby2d2f_forC  000000018004f340 f   libucrt:remainder_piby2f_forc.obj
 0001:0004e530       _cos_special               000000018004f530 f   libucrt:sincos_special.obj
 0001:0004e548       _cosf_special              000000018004f548 f   libucrt:sincos_special.obj
 0001:0004e560       _sin_special               000000018004f560 f   libucrt:sincos_special.obj
 0001:0004e6f0       _sinf_special              000000018004f6f0 f   libucrt:sincos_special.obj
 0001:0004e708       _tan_special               000000018004f708 f   libucrt:sincos_special.obj
 0001:0004e720       _tanf_special              000000018004f720 f   libucrt:sincos_special.obj
 0001:0004e738       ??$?RU__acrt_ptd@@@__crt_internal_free_policy@@QEBAXQEBU__acrt_ptd@@@Z 000000018004f738 f i libucrt:per_thread_data.obj
 0001:0004e9f8       ??0?$__crt_unique_heap_ptr@U__acrt_ptd@@U__crt_internal_free_policy@@@@QEAA@QEAU__acrt_ptd@@@Z 000000018004f9f8 f i libucrt:per_thread_data.obj
 0001:0004ea00       ??1?$__crt_unique_heap_ptr@U__acrt_ptd@@U__crt_internal_free_policy@@@@QEAA@XZ 000000018004fa00 f i libucrt:per_thread_data.obj
 0001:0004ea24       ??B?$__crt_unique_heap_ptr@U__acrt_ptd@@U__crt_internal_free_policy@@@@QEBA_NXZ 000000018004fa24 f i libucrt:per_thread_data.obj
 0001:0004ecf4       ?dangerous_get_state_array@?$dual_state_global@PEAU__crt_locale_data@@@__crt_state_management@@QEAAPEAPEAU__crt_locale_data@@XZ 000000018004fcf4 f i libucrt:per_thread_data.obj
 0001:0004ef88       ?detach@?$__crt_unique_heap_ptr@U__acrt_ptd@@U__crt_internal_free_policy@@@@QEAAPEAU__acrt_ptd@@XZ 000000018004ff88 f i libucrt:per_thread_data.obj
 0001:0004ef94       ?get@?$__crt_unique_heap_ptr@U__acrt_ptd@@U__crt_internal_free_policy@@@@QEBAPEAU__acrt_ptd@@XZ 000000018004ff94 f i libucrt:per_thread_data.obj
 0001:0004f23c       ?is_valid@?$__crt_unique_heap_ptr@U__acrt_ptd@@U__crt_internal_free_policy@@@@QEBA_NXZ 000000018005023c f i libucrt:per_thread_data.obj
 0001:0004f248       ?release@?$__crt_unique_heap_ptr@U__acrt_ptd@@U__crt_internal_free_policy@@@@QEAAXXZ 0000000180050248 f i libucrt:per_thread_data.obj
 0001:0004f304       ?value@?$dual_state_global@PEAU__crt_locale_data@@@__crt_state_management@@QEAAAEAPEAU__crt_locale_data@@XZ 0000000180050304 f i libucrt:per_thread_data.obj
 0001:0004f308       __acrt_freeptd             0000000180050308 f   libucrt:per_thread_data.obj
 0001:0004f35c       __acrt_getptd              000000018005035c f   libucrt:per_thread_data.obj
 0001:0004f464       __acrt_getptd_head         0000000180050464 f   libucrt:per_thread_data.obj
 0001:0004f530       __acrt_getptd_noexit       0000000180050530 f   libucrt:per_thread_data.obj
 0001:0004f62c       __acrt_getptd_noexit_explicit 000000018005062c f   libucrt:per_thread_data.obj
 0001:0004f71c       __acrt_initialize_ptd      000000018005071c f   libucrt:per_thread_data.obj
 0001:0004f764       __acrt_uninitialize_ptd    0000000180050764 f   libucrt:per_thread_data.obj
 0001:0004f790       __threadhandle             0000000180050790 f   libucrt:per_thread_data.obj
 0001:0004f798       __threadid                 0000000180050798 f   libucrt:per_thread_data.obj
 0001:0004f7a0       __acrt_initialize_locks    00000001800507a0 f   libucrt:locks.obj
 0001:0004f7fc       __acrt_lock                00000001800507fc f   libucrt:locks.obj
 0001:0004f81c       __acrt_uninitialize_locks  000000018005081c f   libucrt:locks.obj
 0001:0004f860       __acrt_unlock              0000000180050860 f   libucrt:locks.obj
 0001:0004f880       _lock_locales              0000000180050880 f   libucrt:locks.obj
 0001:0004f8a4       _unlock_locales            00000001800508a4 f   libucrt:locks.obj
 0001:0004f8b8       __acrt_app_verifier_enabled 00000001800508b8 f   libucrt:peb_access.obj
 0001:0004f8d8       __acrt_is_secure_process   00000001800508d8 f   libucrt:peb_access.obj
 0001:0004fae0       __acrt_get_begin_thread_init_policy 0000000180050ae0 f   libucrt:win_policies.obj
 0001:0004fb30       __acrt_get_developer_information_policy 0000000180050b30 f   libucrt:win_policies.obj
 0001:0004fb84       __acrt_get_process_end_policy 0000000180050b84 f   libucrt:win_policies.obj
 0001:0004fbc0       __acrt_get_windowing_model_policy 0000000180050bc0 f   libucrt:win_policies.obj
 0001:0004fc40       ??$__crt_fast_decode_pointer@P6AXPEB_W00I_K@Z@@YAP6AXPEB_W00I_K@ZQ6AX000I1@Z@Z 0000000180050c40 f i libucrt:invalid_parameter.obj
 0001:0004fc5c       ??$__crt_fast_encode_pointer@P6AXPEB_W00I_K@Z@@YAP6AXPEB_W00I_K@ZQ6AX000I1@Z@Z 0000000180050c5c f i libucrt:invalid_parameter.obj
 0001:0004fc84       ??$initialize_from_array@$$BY00Q6AXPEB_W00I_K@Z@?$dual_state_global@P6AXPEB_W00I_K@Z@__crt_state_management@@QEAAXAEAY00Q6AXPEB_W00I_K@Z@Z 0000000180050c84 f i libucrt:invalid_parameter.obj
 0001:0004fd14       ?check_synchronize_global_state_index@__crt_cached_ptd_host@@AEAA_KXZ 0000000180050d14 f i libucrt:invalid_parameter.obj
 0001:0004fd58       ?dangerous_get_state_array@?$dual_state_global@P6AXPEB_W00I_K@Z@__crt_state_management@@QEAAPEAP6AXPEB_W00I_K@ZXZ 0000000180050d58 f i libucrt:invalid_parameter.obj
 0001:0004fd5c       ?get_current_global_state_index@__crt_cached_ptd_host@@QEAA_KXZ 0000000180050d5c f i libucrt:invalid_parameter.obj
 0001:0004fdac       ?get_raw_ptd_noexit@__crt_cached_ptd_host@@QEAAPEAU__acrt_ptd@@XZ 0000000180050dac f i libucrt:invalid_parameter.obj
 0001:0004fe30       ?try_synchronize_per_thread_data@__crt_cached_ptd_host@@AEAAPEAU__acrt_ptd@@XZ 0000000180050e30 f i libucrt:invalid_parameter.obj
 0001:0004feac       ?value@?$dual_state_global@P6AXPEB_W00I_K@Z@__crt_state_management@@QEAAAEAP6AXPEB_W00I_K@ZAEAV__crt_cached_ptd_host@@@Z 0000000180050eac f i libucrt:invalid_parameter.obj
 0001:0004ff0c       ?value@?$dual_state_global@P6AXPEB_W00I_K@Z@__crt_state_management@@QEAAAEAP6AXPEB_W00I_K@ZXZ 0000000180050f0c f i libucrt:invalid_parameter.obj
 0001:0004ff10       __acrt_call_reportfault    0000000180050f10 f   libucrt:invalid_parameter.obj
 0001:000500c4       __acrt_initialize_invalid_parameter_handler 00000001800510c4 f   libucrt:invalid_parameter.obj
 0001:000500d0       _get_invalid_parameter_handler 00000001800510d0 f   libucrt:invalid_parameter.obj
 0001:000500f0       _get_thread_local_invalid_parameter_handler 00000001800510f0 f   libucrt:invalid_parameter.obj
 0001:00050110       _invalid_parameter         0000000180051110 f   libucrt:invalid_parameter.obj
 0001:000501d4       _invalid_parameter_internal 00000001800511d4 f   libucrt:invalid_parameter.obj
 0001:000502d4       _invalid_parameter_noinfo  00000001800512d4 f   libucrt:invalid_parameter.obj
 0001:000502fc       _invalid_parameter_noinfo_noreturn 00000001800512fc f   libucrt:invalid_parameter.obj
 0001:00050338       _invoke_watson             0000000180051338 f   libucrt:invalid_parameter.obj
 0001:00050390       _set_invalid_parameter_handler 0000000180051390 f   libucrt:invalid_parameter.obj
 0001:000503d4       _set_thread_local_invalid_parameter_handler 00000001800513d4 f   libucrt:invalid_parameter.obj
 0001:00050404       ?get_doserrno@__crt_cached_ptd_host@@QEAA@XZ 0000000180051404 f i libucrt:errno.obj
 0001:0005040c       ?set@?$cached@K@__crt_cached_ptd_host@@QEAAKK@Z 000000018005140c f i libucrt:errno.obj
 0001:00050418       __acrt_errno_from_os_error 0000000180051418 f   libucrt:errno.obj
 0001:00050470       __acrt_errno_map_os_error  0000000180051470 f   libucrt:errno.obj
 0001:000504c8       __acrt_errno_map_os_error_ptd 00000001800514c8 f   libucrt:errno.obj
 0001:000504f4       __doserrno                 00000001800514f4 f   libucrt:errno.obj
 0001:0005051c       _errno                     000000018005151c f   libucrt:errno.obj
 0001:00050544       _get_doserrno              0000000180051544 f   libucrt:errno.obj
 0001:00050590       _get_errno                 0000000180051590 f   libucrt:errno.obj
 0001:000505dc       _set_doserrno              00000001800515dc f   libucrt:errno.obj
 0001:00050624       _set_errno                 0000000180051624 f   libucrt:errno.obj
 0001:0005066c       _calloc_base               000000018005166c f   libucrt:calloc_base.obj
 0001:0005070c       _free_base                 000000018005170c f   libucrt:free_base.obj
 0001:00050788       ??$__acrt_convert_wcs_mbs_cp@D_WV<lambda_7c9dea7b4ca7285d2cdb541a38da6275>@@U__crt_win32_buffer_internal_dynamic_resizing@@@@YAHQEBDAEAV?$__crt_win32_buffer@_WU__crt_win32_buffer_internal_dynamic_resizing@@@@AEBV<lambda_7c9dea7b4ca7285d2cdb541a38da6275>@@I@Z 0000000180051788 f i libucrt:argv_wildcards.obj
 0001:00050960       ??$__acrt_convert_wcs_mbs_cp@_WDV<lambda_d8593a27d1aa8c02be35c86a17d324c4>@@U__crt_win32_buffer_internal_dynamic_resizing@@@@YAHQEB_WAEAV?$__crt_win32_buffer@DU__crt_win32_buffer_internal_dynamic_resizing@@@@AEBV<lambda_d8593a27d1aa8c02be35c86a17d324c4>@@I@Z 0000000180051960 f i libucrt:argv_wildcards.obj
 0001:00050b50       ??$__acrt_mbs_to_wcs_cp@U__crt_win32_buffer_internal_dynamic_resizing@@@@YAHQEBDAEAV?$__crt_win32_buffer@_WU__crt_win32_buffer_internal_dynamic_resizing@@@@I@Z 0000000180051b50 f i libucrt:argv_wildcards.obj
 0001:00050b60       ??$__acrt_wcs_to_mbs_cp@U__crt_win32_buffer_internal_dynamic_resizing@@@@YAHQEB_WAEAV?$__crt_win32_buffer@DU__crt_win32_buffer_internal_dynamic_resizing@@@@I@Z 0000000180051b60 f i libucrt:argv_wildcards.obj
 0001:00051d10       ??$tcslen@AEBQEBD@?$__crt_char_traits@D@@SA_KAEBQEBD@Z 0000000180052d10 f i libucrt:argv_wildcards.obj
 0001:00051d28       ??$tcslen@AEBQEB_W@?$__crt_char_traits@_W@@SA_KAEBQEB_W@Z 0000000180052d28 f i libucrt:argv_wildcards.obj
 0001:00051d40       ??$tcsncpy_s@AEAPEAD_KAEAPEADAEB_K@?$__crt_char_traits@D@@SAHAEAPEAD$$QEA_K0AEB_K@Z 0000000180052d40 f i libucrt:argv_wildcards.obj
 0001:00051d58       ??$tcsncpy_s@AEAPEA_W_KAEAPEA_WAEB_K@?$__crt_char_traits@_W@@SAHAEAPEA_W$$QEA_K0AEB_K@Z 0000000180052d58 f i libucrt:argv_wildcards.obj
 0001:00051d70       ??$tcsncpy_s@PEADAEB_KAEBQEBDAEB_K@?$__crt_char_traits@D@@SAH$$QEAPEADAEB_KAEBQEBD1@Z 0000000180052d70 f i libucrt:argv_wildcards.obj
 0001:00051d88       ??$tcsncpy_s@PEAD_KAEBQEBDAEB_K@?$__crt_char_traits@D@@SAH$$QEAPEAD$$QEA_KAEBQEBDAEB_K@Z 0000000180052d88 f i libucrt:argv_wildcards.obj
 0001:00051da0       ??$tcsncpy_s@PEA_WAEB_KAEBQEB_WAEB_K@?$__crt_char_traits@_W@@SAH$$QEAPEA_WAEB_KAEBQEB_W1@Z 0000000180052da0 f i libucrt:argv_wildcards.obj
 0001:00051db8       ??$tcsncpy_s@PEA_W_KAEBQEB_WAEB_K@?$__crt_char_traits@_W@@SAH$$QEAPEA_W$$QEA_KAEBQEB_WAEB_K@Z 0000000180052db8 f i libucrt:argv_wildcards.obj
 0001:00051dd0       ??$tcspbrk@AEAPEADAEAY02$$CBD@?$__crt_char_traits@D@@SAPEADAEAPEADAEAY02$$CBD@Z 0000000180052dd0 f i libucrt:argv_wildcards.obj
 0001:00051ddc       ??$tcspbrk@AEAPEA_WAEAY02$$CB_W@?$__crt_char_traits@_W@@SAPEA_WAEAPEA_WAEAY02$$CB_W@Z 0000000180052ddc f i libucrt:argv_wildcards.obj
 0001:00051de8       ??0?$__crt_unique_handle_t@U__crt_findfile_traits@@@@QEAA@QEAX@Z 0000000180052de8 f i libucrt:argv_wildcards.obj
 0001:00051df0       ??0?$__crt_win32_buffer@DU__crt_win32_buffer_internal_dynamic_resizing@@@@QEAA@XZ 0000000180052df0 f i libucrt:argv_wildcards.obj
 0001:00051e14       ??0?$__crt_win32_buffer@_WU__crt_win32_buffer_internal_dynamic_resizing@@@@QEAA@XZ 0000000180052e14 f i libucrt:argv_wildcards.obj
 0001:00051e68       ??0_LocaleUpdate@@QEAA@QEAU__crt_locale_pointers@@@Z 0000000180052e68 f i libucrt:argv_wildcards.obj
 0001:00051f2c       ??1?$__crt_unique_handle_t@U__crt_findfile_traits@@@@QEAA@XZ 0000000180052f2c f i libucrt:argv_wildcards.obj
 0001:00051f58       ??1?$__crt_win32_buffer@DU__crt_win32_buffer_internal_dynamic_resizing@@@@QEAA@XZ 0000000180052f58 f i libucrt:argv_wildcards.obj
 0001:00051f84       ??1?$__crt_win32_buffer@_WU__crt_win32_buffer_internal_dynamic_resizing@@@@QEAA@XZ 0000000180052f84 f i libucrt:argv_wildcards.obj
 0001:00052040       ??1_LocaleUpdate@@QEAA@XZ  0000000180053040 f i libucrt:argv_wildcards.obj
 0001:00052070       ??R<lambda_7c9dea7b4ca7285d2cdb541a38da6275>@@QEBA@IQEBDQEA_W_K@Z 0000000180053070 f i libucrt:argv_wildcards.obj
 0001:00052120       ??R<lambda_d8593a27d1aa8c02be35c86a17d324c4>@@QEBA@IQEB_WQEAD_K@Z 0000000180053120 f i libucrt:argv_wildcards.obj
 0001:0005215c       ?GetLocaleT@_LocaleUpdate@@QEAAPEAU__crt_locale_pointers@@XZ 000000018005315c f i libucrt:argv_wildcards.obj
 0001:00052164       ?__acrt_get_utf8_acp_compatibility_codepage@@YAIXZ 0000000180053164 f i libucrt:argv_wildcards.obj
 0001:000521c0       ?_deallocate@?$__crt_win32_buffer@DU__crt_win32_buffer_internal_dynamic_resizing@@@@AEAAXXZ 00000001800531c0 f i libucrt:argv_wildcards.obj
 0001:000521ec       ?_deallocate@?$__crt_win32_buffer@_WU__crt_win32_buffer_internal_dynamic_resizing@@@@AEAAXXZ 00000001800531ec f i libucrt:argv_wildcards.obj
 0001:00052218       ?allocate@?$__crt_win32_buffer@DU__crt_win32_buffer_internal_dynamic_resizing@@@@QEAAH_K@Z 0000000180053218 f i libucrt:argv_wildcards.obj
 0001:00052294       ?allocate@?$__crt_win32_buffer@_WU__crt_win32_buffer_internal_dynamic_resizing@@@@QEAAH_K@Z 0000000180053294 f i libucrt:argv_wildcards.obj
 0001:00052310       ?allocate@__crt_win32_buffer_internal_dynamic_resizing@@SAHQEAPEAX_KAEBV__crt_win32_buffer_empty_debug_info@@@Z 0000000180053310 f i libucrt:argv_wildcards.obj
 0001:00052570       ?capacity@?$__crt_win32_buffer@DU__crt_win32_buffer_internal_dynamic_resizing@@@@QEBA_KXZ 0000000180053570 f i libucrt:argv_wildcards.obj
 0001:00052578       ?capacity@?$__crt_win32_buffer@_WU__crt_win32_buffer_internal_dynamic_resizing@@@@QEBA_KXZ 0000000180053578 f i libucrt:argv_wildcards.obj
 0001:00052580       ?close@?$__crt_unique_handle_t@U__crt_findfile_traits@@@@QEAAXXZ 0000000180053580 f i libucrt:argv_wildcards.obj
 0001:000525ac       ?close@__crt_findfile_traits@@SA_NPEAX@Z 00000001800535ac f i libucrt:argv_wildcards.obj
 0001:000525c8       ?data@?$__crt_win32_buffer@DU__crt_win32_buffer_internal_dynamic_resizing@@@@QEAAPEADXZ 00000001800535c8 f i libucrt:argv_wildcards.obj
 0001:000525d0       ?data@?$__crt_win32_buffer@_WU__crt_win32_buffer_internal_dynamic_resizing@@@@QEAAPEA_WXZ 00000001800535d0 f i libucrt:argv_wildcards.obj
 0001:000525d8       ?deallocate@__crt_win32_buffer_internal_dynamic_resizing@@SAXQEAXAEBV__crt_win32_buffer_empty_debug_info@@@Z 00000001800535d8 f i libucrt:argv_wildcards.obj
 0001:000525e0       ?debug_info@?$__crt_win32_buffer@DU__crt_win32_buffer_internal_dynamic_resizing@@@@QEBAAEBV__crt_win32_buffer_empty_debug_info@@XZ 00000001800535e0 f i libucrt:argv_wildcards.obj
 0001:000525e4       ?debug_info@?$__crt_win32_buffer@_WU__crt_win32_buffer_internal_dynamic_resizing@@@@QEBAAEBV__crt_win32_buffer_empty_debug_info@@XZ 00000001800535e4 f i libucrt:argv_wildcards.obj
 0001:000527e8       ?get@?$__crt_unique_handle_t@U__crt_findfile_traits@@@@QEBAPEAXXZ 00000001800537e8 f i libucrt:argv_wildcards.obj
 0001:000528bc       ?get_invalid_value@__crt_findfile_traits@@SAPEAXXZ 00000001800538bc f i libucrt:argv_wildcards.obj
 0001:000529a4       ?set_to_nullptr@?$__crt_win32_buffer@DU__crt_win32_buffer_internal_dynamic_resizing@@@@QEAAXXZ 00000001800539a4 f i libucrt:argv_wildcards.obj
 0001:000529ec       ?set_to_nullptr@?$__crt_win32_buffer@_WU__crt_win32_buffer_internal_dynamic_resizing@@@@QEAAXXZ 00000001800539ec f i libucrt:argv_wildcards.obj
 0001:00052a34       ?size@?$__crt_win32_buffer@DU__crt_win32_buffer_internal_dynamic_resizing@@@@QEAAX_K@Z 0000000180053a34 f i libucrt:argv_wildcards.obj
 0001:00052a3c       ?size@?$__crt_win32_buffer@_WU__crt_win32_buffer_internal_dynamic_resizing@@@@QEAAX_K@Z 0000000180053a3c f i libucrt:argv_wildcards.obj
 0001:00052a64       ?strpbrk@@YAPEADQEADQEBD@Z 0000000180053a64 f i libucrt:argv_wildcards.obj
 0001:00052a6c       ?wcspbrk@@YAPEA_WPEA_WPEB_W@Z 0000000180053a6c f i libucrt:argv_wildcards.obj
 0001:00052a74       __acrt_expand_narrow_argv_wildcards 0000000180053a74 f   libucrt:argv_wildcards.obj
 0001:00052a7c       __acrt_expand_wide_argv_wildcards 0000000180053a7c f   libucrt:argv_wildcards.obj
 0001:00052a84       ??$__acrt_convert_wcs_mbs_cp@_WDV<lambda_f788ae46380686e8b737efdd8c720d07>@@U__crt_win32_buffer_no_resizing@@@@YAHQEB_WAEAV?$__crt_win32_buffer@DU__crt_win32_buffer_no_resizing@@@@AEBV<lambda_f788ae46380686e8b737efdd8c720d07>@@I@Z 0000000180053a84 f i libucrt:getmodulefilenamea.obj
 0001:00052be4       ??$__acrt_wcs_to_mbs_cp@U__crt_win32_buffer_no_resizing@@@@YAHQEB_WAEAV?$__crt_win32_buffer@DU__crt_win32_buffer_no_resizing@@@@I@Z 0000000180053be4 f i libucrt:getmodulefilenamea.obj
 0001:00052bf4       ??0?$__crt_win32_buffer@DU__crt_win32_buffer_no_resizing@@@@QEAA@QEAD_K@Z 0000000180053bf4 f i libucrt:getmodulefilenamea.obj
 0001:00052c18       ??1?$__crt_win32_buffer@DU__crt_win32_buffer_no_resizing@@@@QEAA@XZ 0000000180053c18 f i libucrt:getmodulefilenamea.obj
 0001:00052c28       ??R<lambda_f788ae46380686e8b737efdd8c720d07>@@QEBA@IQEB_WQEAD_K@Z 0000000180053c28 f i libucrt:getmodulefilenamea.obj
 0001:00052c64       ?_deallocate@?$__crt_win32_buffer@DU__crt_win32_buffer_no_resizing@@@@AEAAXXZ 0000000180053c64 f i libucrt:getmodulefilenamea.obj
 0001:00052c74       ?allocate@?$__crt_win32_buffer@DU__crt_win32_buffer_no_resizing@@@@QEAAH_K@Z 0000000180053c74 f i libucrt:getmodulefilenamea.obj
 0001:00052cb0       ?allocate@__crt_win32_buffer_no_resizing@@SAHQEAPEAX_KAEBV__crt_win32_buffer_empty_debug_info@@@Z 0000000180053cb0 f i libucrt:getmodulefilenamea.obj
 0001:00052ccc       ?capacity@?$__crt_win32_buffer@DU__crt_win32_buffer_no_resizing@@@@QEBA_KXZ 0000000180053ccc f i libucrt:getmodulefilenamea.obj
 0001:00052cd4       ?data@?$__crt_win32_buffer@DU__crt_win32_buffer_no_resizing@@@@QEAAPEADXZ 0000000180053cd4 f i libucrt:getmodulefilenamea.obj
 0001:00052cdc       ?deallocate@__crt_win32_buffer_no_resizing@@SAXQEAXAEBV__crt_win32_buffer_empty_debug_info@@@Z 0000000180053cdc f i libucrt:getmodulefilenamea.obj
 0001:00052ce0       ?debug_info@?$__crt_win32_buffer@DU__crt_win32_buffer_no_resizing@@@@QEBAAEBV__crt_win32_buffer_empty_debug_info@@XZ 0000000180053ce0 f i libucrt:getmodulefilenamea.obj
 0001:00052ce4       ?set_to_nullptr@?$__crt_win32_buffer@DU__crt_win32_buffer_no_resizing@@@@QEAAXXZ 0000000180053ce4 f i libucrt:getmodulefilenamea.obj
 0001:00052d00       ?size@?$__crt_win32_buffer@DU__crt_win32_buffer_no_resizing@@@@QEAAX_K@Z 0000000180053d00 f i libucrt:getmodulefilenamea.obj
 0001:00052d08       ?size@?$__crt_win32_buffer@DU__crt_win32_buffer_no_resizing@@@@QEBA_KXZ 0000000180053d08 f i libucrt:getmodulefilenamea.obj
 0001:00052d10       __acrt_GetModuleFileNameA  0000000180053d10 f   libucrt:getmodulefilenamea.obj
 0001:00052e7c       ??$?RU__crt_multibyte_data@@@__crt_internal_free_policy@@QEBAXQEBU__crt_multibyte_data@@@Z 0000000180053e7c f i libucrt:mbctype.obj
 0001:000530fc       ??$initialize_from_array@$$BY10BAA@E@?$dual_state_global@PEAE@__crt_state_management@@QEAAXAEAY10BAA@E@Z 00000001800540fc f i libucrt:mbctype.obj
 0001:00053100       ??$initialize_from_array@$$BY10BAB@E@?$dual_state_global@PEAE@__crt_state_management@@QEAAXAEAY10BAB@E@Z 0000000180054100 f i libucrt:mbctype.obj
 0001:0005312c       ??0?$__crt_unique_heap_ptr@U__crt_multibyte_data@@U__crt_internal_free_policy@@@@QEAA@QEAU__crt_multibyte_data@@@Z 000000018005412c f i libucrt:mbctype.obj
 0001:00053134       ??1?$__crt_unique_heap_ptr@U__crt_multibyte_data@@U__crt_internal_free_policy@@@@QEAA@XZ 0000000180054134 f i libucrt:mbctype.obj
 0001:00053158       ??B?$__crt_unique_heap_ptr@U__crt_multibyte_data@@U__crt_internal_free_policy@@@@QEBA_NXZ 0000000180054158 f i libucrt:mbctype.obj
 0001:000533c4       ?dangerous_get_state_array@?$dual_state_global@PEAE@__crt_state_management@@QEAAPEAPEAEXZ 00000001800543c4 f i libucrt:mbctype.obj
 0001:000533c8       ?dangerous_get_state_array@?$dual_state_global@PEAU__crt_multibyte_data@@@__crt_state_management@@QEAAPEAPEAU__crt_multibyte_data@@XZ 00000001800543c8 f i libucrt:mbctype.obj
 0001:000533cc       ?detach@?$__crt_unique_heap_ptr@U__crt_multibyte_data@@U__crt_internal_free_policy@@@@QEAAPEAU__crt_multibyte_data@@XZ 00000001800543cc f i libucrt:mbctype.obj
 0001:000533d8       ?get@?$__crt_unique_heap_ptr@U__crt_multibyte_data@@U__crt_internal_free_policy@@@@QEBAPEAU__crt_multibyte_data@@XZ 00000001800543d8 f i libucrt:mbctype.obj
 0001:00053478       ?initialize@?$dual_state_global@PEAU__crt_multibyte_data@@@__crt_state_management@@QEAAXQEAU__crt_multibyte_data@@@Z 0000000180054478 f i libucrt:mbctype.obj
 0001:00053488       ?is_valid@?$__crt_unique_heap_ptr@U__crt_multibyte_data@@U__crt_internal_free_policy@@@@QEBA_NXZ 0000000180054488 f i libucrt:mbctype.obj
 0001:00053494       ?release@?$__crt_unique_heap_ptr@U__crt_multibyte_data@@U__crt_internal_free_policy@@@@QEAAXXZ 0000000180054494 f i libucrt:mbctype.obj
 0001:00053bcc       ?value@?$dual_state_global@PEAE@__crt_state_management@@QEAAAEAPEAEXZ 0000000180054bcc f i libucrt:mbctype.obj
 0001:00053bd0       ?value@?$dual_state_global@PEAU__crt_multibyte_data@@@__crt_state_management@@QEAAAEAPEAU__crt_multibyte_data@@XZ 0000000180054bd0 f i libucrt:mbctype.obj
 0001:00053bd4       __acrt_initialize_multibyte 0000000180054bd4 f   libucrt:mbctype.obj
 0001:00053c4c       __acrt_should_sync_with_global_locale 0000000180054c4c f i libucrt:mbctype.obj
 0001:00053c60       __acrt_update_thread_multibyte_data 0000000180054c60 f   libucrt:mbctype.obj
 0001:00053c84       __p__mbcasemap             0000000180054c84 f   libucrt:mbctype.obj
 0001:00053c90       __p__mbctype               0000000180054c90 f   libucrt:mbctype.obj
 0001:00053c9c       _getmbcp                   0000000180054c9c f   libucrt:mbctype.obj
 0001:00053ce4       _setmbcp                   0000000180054ce4 f   libucrt:mbctype.obj
 0001:00053d14       _setmbcp_nolock            0000000180054d14 f   libucrt:mbctype.obj
 0001:000541b8       _ismbbalnum                00000001800551b8 f   libucrt:ismbbyte.obj
 0001:000541d4       _ismbbalnum_l              00000001800551d4 f   libucrt:ismbbyte.obj
 0001:000541f4       _ismbbalpha                00000001800551f4 f   libucrt:ismbbyte.obj
 0001:00054210       _ismbbalpha_l              0000000180055210 f   libucrt:ismbbyte.obj
 0001:00054230       _ismbbblank                0000000180055230 f   libucrt:ismbbyte.obj
 0001:00054254       _ismbbblank_l              0000000180055254 f   libucrt:ismbbyte.obj
 0001:0005427c       _ismbbgraph                000000018005527c f   libucrt:ismbbyte.obj
 0001:00054298       _ismbbgraph_l              0000000180055298 f   libucrt:ismbbyte.obj
 0001:000542b8       _ismbbkalnum               00000001800552b8 f   libucrt:ismbbyte.obj
 0001:000542d0       _ismbbkalnum_l             00000001800552d0 f   libucrt:ismbbyte.obj
 0001:000542ec       _ismbbkana                 00000001800552ec f   libucrt:ismbbyte.obj
 0001:000542f4       _ismbbkana_l               00000001800552f4 f   libucrt:ismbbyte.obj
 0001:00054374       _ismbbkprint               0000000180055374 f   libucrt:ismbbyte.obj
 0001:0005438c       _ismbbkprint_l             000000018005538c f   libucrt:ismbbyte.obj
 0001:000543a8       _ismbbkpunct               00000001800553a8 f   libucrt:ismbbyte.obj
 0001:000543c0       _ismbbkpunct_l             00000001800553c0 f   libucrt:ismbbyte.obj
 0001:000543dc       _ismbblead                 00000001800553dc f   libucrt:ismbbyte.obj
 0001:000543f4       _ismbblead_l               00000001800553f4 f   libucrt:ismbbyte.obj
 0001:00054410       _ismbbprint                0000000180055410 f   libucrt:ismbbyte.obj
 0001:0005442c       _ismbbprint_l              000000018005542c f   libucrt:ismbbyte.obj
 0001:0005444c       _ismbbpunct                000000018005544c f   libucrt:ismbbyte.obj
 0001:00054464       _ismbbpunct_l              0000000180055464 f   libucrt:ismbbyte.obj
 0001:00054480       _ismbbtrail                0000000180055480 f   libucrt:ismbbyte.obj
 0001:00054498       _ismbbtrail_l              0000000180055498 f   libucrt:ismbbyte.obj
 0001:000544b4       __acrt_initialize_command_line 00000001800554b4 f   libucrt:argv_data.obj
 0001:000544e4       __acrt_uninitialize_command_line 00000001800554e4 f   libucrt:argv_data.obj
 0001:000544e8       __p___argc                 00000001800554e8 f   libucrt:argv_data.obj
 0001:000544f4       __p___argv                 00000001800554f4 f   libucrt:argv_data.obj
 0001:00054500       __p___wargv                0000000180055500 f   libucrt:argv_data.obj
 0001:0005450c       __p__acmdln                000000018005550c f   libucrt:argv_data.obj
 0001:00054518       __p__pgmptr                0000000180055518 f   libucrt:argv_data.obj
 0001:00054524       __p__wcmdln                0000000180055524 f   libucrt:argv_data.obj
 0001:00054530       __p__wpgmptr               0000000180055530 f   libucrt:argv_data.obj
 0001:0005453c       _get_pgmptr                000000018005553c f   libucrt:argv_data.obj
 0001:00054580       _get_wpgmptr               0000000180055580 f   libucrt:argv_data.obj
 0001:0005464c       wcscpy_s                   000000018005564c f   libucrt:wcscpy_s.obj
 0001:0005477c       __acrt_MultiByteToWideChar 000000018005577c f   libucrt:multibytetowidechar.obj
 0001:000548d8       __acrt_WideCharToMultiByte 00000001800558d8 f   libucrt:widechartomultibyte.obj
 0001:00054ab4       __dcrt_get_narrow_environment_from_os 0000000180055ab4 f   libucrt:get_environment_from_os.obj
 0001:00054c08       __dcrt_get_wide_environment_from_os 0000000180055c08 f   libucrt:get_environment_from_os.obj
 0001:00055944       ??$get_or_create_environment_nolock@$$V@?$__crt_char_traits@D@@SAPEAPEADXZ 0000000180056944 f i libucrt:setenv.obj
 0001:0005594c       ??$get_or_create_environment_nolock@$$V@?$__crt_char_traits@_W@@SAPEAPEA_WXZ 000000018005694c f i libucrt:setenv.obj
 0001:00055954       ??$set_environment_variable@AEBQEADQEAD@?$__crt_char_traits@D@@SAHAEBQEAD$$QEBQEAD@Z 0000000180056954 f i libucrt:setenv.obj
 0001:00055964       ??$set_environment_variable@AEBQEA_WQEA_W@?$__crt_char_traits@_W@@SAHAEBQEA_W$$QEBQEA_W@Z 0000000180056964 f i libucrt:setenv.obj
 0001:00055974       ??$tcschr@AEBQEADD@?$__crt_char_traits@D@@SAPEADAEBQEAD$$QEAD@Z 0000000180056974 f i libucrt:setenv.obj
 0001:00055984       ??$tcschr@AEBQEA_WD@?$__crt_char_traits@_W@@SAPEA_WAEBQEA_W$$QEAD@Z 0000000180056984 f i libucrt:setenv.obj
 0001:00055994       ??$tcscpy_s@AEAPEADAEB_KAEAPEAD@?$__crt_char_traits@D@@SAHAEAPEADAEB_K0@Z 0000000180056994 f i libucrt:setenv.obj
 0001:000559a8       ??$tcscpy_s@AEAPEA_WAEB_KAEAPEA_W@?$__crt_char_traits@_W@@SAHAEAPEA_WAEB_K0@Z 00000001800569a8 f i libucrt:setenv.obj
 0001:000559bc       ??$tcscpy_s@AEBQEADAEB_KAEBQEAD@?$__crt_char_traits@D@@SAHAEBQEADAEB_K0@Z 00000001800569bc f i libucrt:setenv.obj
 0001:000559d0       ??$tcscpy_s@AEBQEA_WAEB_KAEBQEA_W@?$__crt_char_traits@_W@@SAHAEBQEA_WAEB_K0@Z 00000001800569d0 f i libucrt:setenv.obj
 0001:000559e4       ??$tcslen@AEBQEAD@?$__crt_char_traits@D@@SA_KAEBQEAD@Z 00000001800569e4 f i libucrt:setenv.obj
 0001:000559fc       ??$tcslen@AEBQEA_W@?$__crt_char_traits@_W@@SA_KAEBQEA_W@Z 00000001800569fc f i libucrt:setenv.obj
 0001:00055a14       ??$tcsnicoll@AEBQEBDAEAPEADAEB_K@?$__crt_char_traits@D@@SAHAEBQEBDAEAPEADAEB_K@Z 0000000180056a14 f i libucrt:setenv.obj
 0001:00055a28       ??$tcsnicoll@AEBQEB_WAEAPEA_WAEB_K@?$__crt_char_traits@_W@@SAHAEBQEB_WAEAPEA_WAEB_K@Z 0000000180056a28 f i libucrt:setenv.obj
 0001:00055a84       ?strchr@@YAPEADQEADH@Z     0000000180056a84 f i libucrt:setenv.obj
 0001:00055a8c       ?wcschr@@YAPEA_WPEA_W_W@Z  0000000180056a8c f i libucrt:setenv.obj
 0001:00055a94       __dcrt_set_variable_in_narrow_environment_nolock 0000000180056a94 f   libucrt:setenv.obj
 0001:00055a9c       __dcrt_set_variable_in_wide_environment_nolock 0000000180056a9c f   libucrt:setenv.obj
 0001:00055aa4       _recalloc                  0000000180056aa4 f   libucrt:recalloc.obj
 0001:00055aac       _recalloc_base             0000000180056aac f   libucrt:recalloc.obj
 0001:00055bac       ??$?B$$A6AHPEA_WK_J@Z@__crt_fast_encoded_nullptr_t@@QEBAP6AHPEA_WK_J@ZXZ 0000000180056bac f i libucrt:winapi_thunks.obj
 0001:00055c80       ??$__crt_fast_decode_pointer@P6AHPEA_WK_J@Z@@YAP6AHPEA_WK_J@ZQ6AH0K1@Z@Z 0000000180056c80 f i libucrt:winapi_thunks.obj
 0001:00055c9c       ??$__crt_fast_decode_pointer@PEAX@@YAPEAXQEAX@Z 0000000180056c9c f i libucrt:winapi_thunks.obj
 0001:00055cb8       ??$__crt_fast_encode_pointer@P6AHPEA_WK_J@Z@@YAP6AHPEA_WK_J@ZQ6AH0K1@Z@Z 0000000180056cb8 f i libucrt:winapi_thunks.obj
 0001:000569c4       GetCurrentThreadEffectiveToken 00000001800579c4 f i libucrt:winapi_thunks.obj
 0001:000569d0       __acrt_AppPolicyGetProcessTerminationMethodInternal 00000001800579d0 f   libucrt:winapi_thunks.obj
 0001:00056a40       __acrt_AppPolicyGetShowDeveloperDiagnosticInternal 0000000180057a40 f   libucrt:winapi_thunks.obj
 0001:00056ab0       __acrt_AppPolicyGetThreadInitializationTypeInternal 0000000180057ab0 f   libucrt:winapi_thunks.obj
 0001:00056b20       __acrt_AppPolicyGetWindowingModelInternal 0000000180057b20 f   libucrt:winapi_thunks.obj
 0001:00056b90       __acrt_AreFileApisANSI     0000000180057b90 f   libucrt:winapi_thunks.obj
 0001:00056be8       __acrt_CompareStringEx     0000000180057be8 f   libucrt:winapi_thunks.obj
 0001:00056d10       __acrt_EnumSystemLocalesEx 0000000180057d10 f   libucrt:winapi_thunks.obj
 0001:00056dd8       __acrt_FlsAlloc            0000000180057dd8 f   libucrt:winapi_thunks.obj
 0001:00056de0       __acrt_FlsFree             0000000180057de0 f   libucrt:winapi_thunks.obj
 0001:00056de8       __acrt_FlsGetValue         0000000180057de8 f   libucrt:winapi_thunks.obj
 0001:00056df0       __acrt_FlsSetValue         0000000180057df0 f   libucrt:winapi_thunks.obj
 0001:00056df8       __acrt_GetDateFormatEx     0000000180057df8 f   libucrt:winapi_thunks.obj
 0001:00056ee8       __acrt_GetEnabledXStateFeatures 0000000180057ee8 f   libucrt:winapi_thunks.obj
 0001:00056f3c       __acrt_GetLocaleInfoEx     0000000180057f3c f   libucrt:winapi_thunks.obj
 0001:00056ff0       __acrt_GetSystemTimePreciseAsFileTime 0000000180057ff0 f   libucrt:winapi_thunks.obj
 0001:0005705c       __acrt_GetTempPath2W       000000018005805c f   libucrt:winapi_thunks.obj
 0001:000570d4       __acrt_GetTimeFormatEx     00000001800580d4 f   libucrt:winapi_thunks.obj
 0001:000571b4       __acrt_GetUserDefaultLocaleName 00000001800581b4 f   libucrt:winapi_thunks.obj
 0001:0005723c       __acrt_GetXStateFeaturesMask 000000018005823c f   libucrt:winapi_thunks.obj
 0001:000572b0       __acrt_InitializeCriticalSectionEx 00000001800582b0 f   libucrt:winapi_thunks.obj
 0001:0005733c       __acrt_IsValidLocaleName   000000018005833c f   libucrt:winapi_thunks.obj
 0001:000573b8       __acrt_LCIDToLocaleName    00000001800583b8 f   libucrt:winapi_thunks.obj
 0001:0005745c       __acrt_LCMapStringEx       000000018005845c f   libucrt:winapi_thunks.obj
 0001:00057584       __acrt_LocaleNameToLCID    0000000180058584 f   libucrt:winapi_thunks.obj
 0001:000575f8       __acrt_LocateXStateFeature 00000001800585f8 f   libucrt:winapi_thunks.obj
 0001:0005767c       __acrt_MessageBoxA         000000018005867c f   libucrt:winapi_thunks.obj
 0001:00057718       __acrt_MessageBoxW         0000000180058718 f   libucrt:winapi_thunks.obj
 0001:000577b4       __acrt_RoInitialize        00000001800587b4 f   libucrt:winapi_thunks.obj
 0001:00057810       __acrt_RoUninitialize      0000000180058810 f   libucrt:winapi_thunks.obj
 0001:0005785c       __acrt_RtlGenRandom        000000018005885c f   libucrt:winapi_thunks.obj
 0001:000578cc       __acrt_SetThreadStackGuarantee 00000001800588cc f   libucrt:winapi_thunks.obj
 0001:0005792c       __acrt_can_show_message_box 000000018005892c f   libucrt:winapi_thunks.obj
 0001:000579b4       __acrt_can_use_vista_locale_apis 00000001800589b4 f   libucrt:winapi_thunks.obj
 0001:000579f0       __acrt_can_use_xstate_apis 00000001800589f0 f   libucrt:winapi_thunks.obj
 0001:00057a2c       __acrt_eagerly_load_locale_apis 0000000180058a2c f   libucrt:winapi_thunks.obj
 0001:00057bdc       __acrt_get_parent_window   0000000180058bdc f   libucrt:winapi_thunks.obj
 0001:00057c8c       __acrt_initialize_winapi_thunks 0000000180058c8c f   libucrt:winapi_thunks.obj
 0001:00057cb8       __acrt_is_interactive      0000000180058cb8 f   libucrt:winapi_thunks.obj
 0001:00057dd0       __acrt_uninitialize_winapi_thunks 0000000180058dd0 f   libucrt:winapi_thunks.obj
 0001:00057e24       __acrt_getheap             0000000180058e24 f   libucrt:heap_handle.obj
 0001:00057e30       __acrt_initialize_heap     0000000180058e30 f   libucrt:heap_handle.obj
 0001:00057e54       __acrt_uninitialize_heap   0000000180058e54 f   libucrt:heap_handle.obj
 0001:00057e64       _get_heap_handle           0000000180058e64 f   libucrt:heap_handle.obj
 0001:00058108       __acrt_initialize_lowio    0000000180059108 f   libucrt:ioinit.obj
 0001:00058154       __acrt_uninitialize_lowio  0000000180059154 f   libucrt:ioinit.obj
 0001:000581a4       __acrt_execute_initializers 00000001800591a4 f   libucrt:shared_initialization.obj
 0001:00058260       __acrt_execute_uninitializers 0000000180059260 f   libucrt:shared_initialization.obj
 0001:000582b8       ??$?B$$A6AH_K@Z@__crt_fast_encoded_nullptr_t@@QEBAP6AH_K@ZXZ 00000001800592b8 f i libucrt:new_handler.obj
 0001:000582c4       ??$__crt_fast_decode_pointer@P6AH_K@Z@@YAP6AH_K@ZQ6AH0@Z@Z 00000001800592c4 f i libucrt:new_handler.obj
 0001:000582e0       ??$__crt_fast_encode_pointer@P6AH_K@Z@@YAP6AH_K@ZQ6AH0@Z@Z 00000001800592e0 f i libucrt:new_handler.obj
 0001:00058308       ?_set_new_handler@@YAP6AH_K@ZH@Z 0000000180059308 f   libucrt:new_handler.obj
 0001:00058318       ?initialize@?$dual_state_global@P6AH_K@Z@__crt_state_management@@QEAAXQ6AH_K@Z@Z 0000000180059318 f i libucrt:new_handler.obj
 0001:00058328       ?value@?$dual_state_global@P6AH_K@Z@__crt_state_management@@QEAAAEAP6AH_K@ZXZ 0000000180059328 f i libucrt:new_handler.obj
 0001:0005832c       __acrt_initialize_new_handler 000000018005932c f   libucrt:new_handler.obj
 0001:00058338       _callnewh                  0000000180059338 f   libucrt:new_handler.obj
 0001:00058388       _query_new_handler         0000000180059388 f   libucrt:new_handler.obj
 0001:000583cc       _set_new_handler           00000001800593cc f   libucrt:new_handler.obj
 0001:0005843c       ??$?B$$A6AXH@Z@__crt_fast_encoded_nullptr_t@@QEBAP6AXH@ZXZ 000000018005943c f i libucrt:signal.obj
 0001:000584d4       ??$__crt_fast_decode_pointer@P6AXH@Z@@YAP6AXH@ZQ6AXH@Z@Z 00000001800594d4 f i libucrt:signal.obj
 0001:000584f0       ??$__crt_fast_encode_pointer@P6AXH@Z@@YAP6AXH@ZQ6AXH@Z@Z 00000001800594f0 f i libucrt:signal.obj
 0001:00058670       ?initialize@?$dual_state_global@P6AXH@Z@__crt_state_management@@QEAAXQ6AXH@Z@Z 0000000180059670 f i libucrt:signal.obj
 0001:0005871c       ?value@?$dual_state_global@P6AXH@Z@__crt_state_management@@QEAAAEAP6AXH@ZXZ 000000018005971c f i libucrt:signal.obj
 0001:00058720       __acrt_get_sigabrt_handler 0000000180059720 f   libucrt:signal.obj
 0001:0005875c       __acrt_initialize_signal_handlers 000000018005975c f   libucrt:signal.obj
 0001:00058780       __fpecode                  0000000180059780 f   libucrt:signal.obj
 0001:00058798       __pxcptinfoptrs            0000000180059798 f   libucrt:signal.obj
 0001:000587b0       raise                      00000001800597b0 f   libucrt:signal.obj
 0001:00058ac8       signal                     0000000180059ac8 f   libucrt:signal.obj
 0001:00058cfc       ??$__crt_fast_decode_pointer@P6AHPEAU_exception@@@Z@@YAP6AHPEAU_exception@@@ZQ6AH0@Z@Z 0000000180059cfc f i libucrt:matherr.obj
 0001:00058d18       ??$__crt_fast_encode_pointer@P6AHPEAU_exception@@@Z@@YAP6AHPEAU_exception@@@ZQ6AH0@Z@Z 0000000180059d18 f i libucrt:matherr.obj
 0001:00058d40       ?initialize@?$dual_state_global@P6AHPEAU_exception@@@Z@__crt_state_management@@QEAAXQ6AHPEAU_exception@@@Z@Z 0000000180059d40 f i libucrt:matherr.obj
 0001:00058d50       ?value@?$dual_state_global@P6AHPEAU_exception@@@Z@__crt_state_management@@QEAAAEAP6AHPEAU_exception@@@ZXZ 0000000180059d50 f i libucrt:matherr.obj
 0001:00058d54       __acrt_has_user_matherr    0000000180059d54 f   libucrt:matherr.obj
 0001:00058d7c       __acrt_initialize_user_matherr 0000000180059d7c f   libucrt:matherr.obj
 0001:00058d88       __acrt_invoke_user_matherr 0000000180059d88 f   libucrt:matherr.obj
 0001:00058dd4       __setusermatherr           0000000180059dd4 f   libucrt:matherr.obj
 0001:00059150       ??0__crt_stdio_stream@@QEAA@QEAU__crt_stdio_stream_data@@@Z 000000018005a150 f i libucrt:fflush.obj
 0001:0005931c       ?__acrt_stdio_reset_buffer@@YAXV__crt_stdio_stream@@@Z 000000018005a31c f i libucrt:fflush.obj
 0001:00059444       ?has_all_of@__crt_stdio_stream@@QEBA_NJ@Z 000000018005a444 f i libucrt:fflush.obj
 0001:0005949c       ?set_flags@__crt_stdio_stream@@QEBA_NJ@Z 000000018005a49c f i libucrt:fflush.obj
 0001:000594c4       ?unset_flags@__crt_stdio_stream@@QEBA_NJ@Z 000000018005a4c4 f i libucrt:fflush.obj
 0001:000594f4       __acrt_stdio_flush_nolock  000000018005a4f4 f   libucrt:fflush.obj
 0001:000595a4       _fflush_nolock             000000018005a5a4 f   libucrt:fflush.obj
 0001:000596ac       _flushall                  000000018005a6ac f   libucrt:fflush.obj
 0001:000596b4       fflush                     000000018005a6b4 f   libucrt:fflush.obj
 0001:00059734       __p___mb_cur_max           000000018005a734 f   libucrt:nlsdata.obj
 0001:00059770       ??$?RPEAU__crt_stdio_stream_data@@@__crt_internal_free_policy@@QEBAXQEBQEAU__crt_stdio_stream_data@@@Z 000000018005a770 f i libucrt:_file.obj
 0001:0005977c       ??0?$__crt_unique_heap_ptr@PEAU__crt_stdio_stream_data@@U__crt_internal_free_policy@@@@QEAA@QEAPEAU__crt_stdio_stream_data@@@Z 000000018005a77c f i libucrt:_file.obj
 0001:00059784       ??1?$__crt_unique_heap_ptr@PEAU__crt_stdio_stream_data@@U__crt_internal_free_policy@@@@QEAA@XZ 000000018005a784 f i libucrt:_file.obj
 0001:000597a8       ?detach@?$__crt_unique_heap_ptr@PEAU__crt_stdio_stream_data@@U__crt_internal_free_policy@@@@QEAAPEAPEAU__crt_stdio_stream_data@@XZ 000000018005a7a8 f i libucrt:_file.obj
 0001:000597b4       ?release@?$__crt_unique_heap_ptr@PEAU__crt_stdio_stream_data@@U__crt_internal_free_policy@@@@QEAAXXZ 000000018005a7b4 f i libucrt:_file.obj
 0001:000597d8       __acrt_initialize_stdio    000000018005a7d8 f   libucrt:_file.obj
 0001:00059940       __acrt_iob_func            000000018005a940 f   libucrt:_file.obj
 0001:00059958       __acrt_uninitialize_stdio  000000018005a958 f   libucrt:_file.obj
 0001:000599cc       _get_stream_buffer_pointers 000000018005a9cc f   libucrt:_file.obj
 0001:00059a24       _lock_file                 000000018005aa24 f   libucrt:_file.obj
 0001:00059a34       _unlock_file               000000018005aa34 f   libucrt:_file.obj
 0001:00059a44       ?has_any_buffer@__crt_stdio_stream@@QEBA_NXZ 000000018005aa44 f i libucrt:_sftbuf.obj
 0001:00059a5c       ?has_any_of@__crt_stdio_stream@@QEBA_NJ@Z 000000018005aa5c f i libucrt:_sftbuf.obj
 0001:00059a6c       ?has_temporary_buffer@__crt_stdio_stream@@QEBA_NXZ 000000018005aa6c f i libucrt:_sftbuf.obj
 0001:00059a7c       __acrt_should_use_temporary_buffer 000000018005aa7c f   libucrt:_sftbuf.obj
 0001:00059ad8       __acrt_stdio_begin_temporary_buffering_nolock 000000018005aad8 f   libucrt:_sftbuf.obj
 0001:00059bd0       __acrt_stdio_end_temporary_buffering_nolock 000000018005abd0 f   libucrt:_sftbuf.obj
 0001:00059c1c       _malloc_base               000000018005ac1c f   libucrt:malloc_base.obj
 0001:0005a760       ??1?$__crt_simd_cleanup_guard@$00@@QEAA@XZ 000000018005b760 f i libucrt:strnlen.obj
 0001:0005a764       ??1?$__crt_simd_cleanup_guard@$0A@@@QEAA@XZ 000000018005b764 f i libucrt:strnlen.obj
 0001:0005a768       ?compare_equals@?$__crt_simd_traits@$00E@@SA?AT__m256i@@T2@0@Z 000000018005b768 f i libucrt:strnlen.obj
 0001:0005a774       ?compare_equals@?$__crt_simd_traits@$00G@@SA?AT__m256i@@T2@0@Z 000000018005b774 f i libucrt:strnlen.obj
 0001:0005a780       ?compare_equals@?$__crt_simd_traits@$0A@E@@SA?AT__m128i@@T2@0@Z 000000018005b780 f i libucrt:strnlen.obj
 0001:0005a78c       ?compare_equals@?$__crt_simd_traits@$0A@G@@SA?AT__m128i@@T2@0@Z 000000018005b78c f i libucrt:strnlen.obj
 0001:0005a798       ?compute_byte_mask@?$__crt_simd_pack_traits@$00@@SAHT__m256i@@@Z 000000018005b798 f i libucrt:strnlen.obj
 0001:0005a7a8       ?compute_byte_mask@?$__crt_simd_pack_traits@$0A@@@SAHT__m128i@@@Z 000000018005b7a8 f i libucrt:strnlen.obj
 0001:0005a7b4       ?get_zero_pack@?$__crt_simd_pack_traits@$00@@SA?AT__m256i@@XZ 000000018005b7b4 f i libucrt:strnlen.obj
 0001:0005a7bc       ?get_zero_pack@?$__crt_simd_pack_traits@$0A@@@SA?AT__m128i@@XZ 000000018005b7bc f i libucrt:strnlen.obj
 0001:0005a7c0       strnlen                    000000018005b7c0 f   libucrt:strnlen.obj
 0001:0005a964       wcslen                     000000018005b964 f   libucrt:strnlen.obj
 0001:0005aad8       wcsnlen                    000000018005bad8 f   libucrt:strnlen.obj
 0001:0005ad24       ?value_explicit@?$dual_state_global@PEAU__crt_locale_data@@@__crt_state_management@@QEAAAEAPEAU__crt_locale_data@@_K@Z 000000018005bd24 f i libucrt:locale_update.obj
 0001:0005ad2c       ?value_explicit@?$dual_state_global@PEAU__crt_multibyte_data@@@__crt_state_management@@QEAAAEAPEAU__crt_multibyte_data@@_K@Z 000000018005bd2c f i libucrt:locale_update.obj
 0001:0005ad34       __acrt_update_locale_info  000000018005bd34 f   libucrt:locale_update.obj
 0001:0005ad74       __acrt_update_locale_info_explicit 000000018005bd74 f   libucrt:locale_update.obj
 0001:0005adb8       __acrt_update_multibyte_info 000000018005bdb8 f   libucrt:locale_update.obj
 0001:0005adf8       __acrt_update_multibyte_info_explicit 000000018005bdf8 f   libucrt:locale_update.obj
 0001:0005ae3c       ?__acrt_fp_classify@@YA?AW4__acrt_fp_class@@AEBN@Z 000000018005be3c f i libucrt:cvt.obj
 0001:0005aeb0       ?__acrt_fp_is_negative@@YA_NAEBN@Z 000000018005beb0 f i libucrt:cvt.obj
 0001:0005be2c       ?strrchr@@YAPEADQEADH@Z    000000018005ce2c f i libucrt:cvt.obj
 0001:0005be34       __acrt_fp_format           000000018005ce34 f   libucrt:cvt.obj
 0001:0005c1d4       ?value_or@?$cached@H@__crt_cached_ptd_host@@QEBAHH@Z 000000018005d1d4 f i libucrt:wctomb.obj
 0001:0005c1e4       _wctomb_internal           000000018005d1e4 f   libucrt:wctomb.obj
 0001:0005c400       _wctomb_l                  000000018005d400 f   libucrt:wctomb.obj
 0001:0005c528       _wctomb_s_l                000000018005d528 f   libucrt:wctomb.obj
 0001:0005c600       wctomb                     000000018005d600 f   libucrt:wctomb.obj
 0001:0005c6f8       wctomb_s                   000000018005d6f8 f   libucrt:wctomb.obj
 0001:0005c7c0       _isleadbyte_fast_internal  000000018005d7c0 f i libucrt:mbtowc.obj
 0001:0005c7e0       _mbtowc_internal           000000018005d7e0 f   libucrt:mbtowc.obj
 0001:0005c9b8       _mbtowc_l                  000000018005d9b8 f   libucrt:mbtowc.obj
 0001:0005ca84       mbtowc                     000000018005da84 f   libucrt:mbtowc.obj
 0001:0005cb44       ?lowio_handle@__crt_stdio_stream@@QEBAHXZ 000000018005db44 f i libucrt:fileno.obj
 0001:0005cb50       _fileno                    000000018005db50 f   libucrt:fileno.obj
 0001:0005cb80       _get_printf_count_output   000000018005db80 f   libucrt:printf_count_output.obj
 0001:0005cba0       _set_printf_count_output   000000018005dba0 f   libucrt:printf_count_output.obj
 0001:0005cc94       _fputwc_nolock             000000018005dc94 f   libucrt:fputwc.obj
 0001:0005cd54       _fputwc_nolock_internal    000000018005dd54 f   libucrt:fputwc.obj
 0001:0005cf40       _fputwchar                 000000018005df40 f   libucrt:fputwc.obj
 0001:0005cf6c       _putwc_nolock              000000018005df6c f   libucrt:fputwc.obj
 0001:0005cf74       fputwc                     000000018005df74 f   libucrt:fputwc.obj
 0001:0005d034       putwc                      000000018005e034 f   libucrt:fputwc.obj
 0001:0005d03c       putwchar                   000000018005e03c f   libucrt:fputwc.obj
 0001:0005d204       _fputc_nolock              000000018005e204 f   libucrt:fputc.obj
 0001:0005d2dc       _fputc_nolock_internal     000000018005e2dc f   libucrt:fputc.obj
 0001:0005d2f8       _fputchar                  000000018005e2f8 f   libucrt:fputc.obj
 0001:0005d324       _putc_nolock               000000018005e324 f   libucrt:fputc.obj
 0001:0005d32c       fputc                      000000018005e32c f   libucrt:fputc.obj
 0001:0005d3ec       putc                       000000018005e3ec f   libucrt:fputc.obj
 0001:0005d3f4       putchar                    000000018005e3f4 f   libucrt:fputc.obj
 0001:0005d400       ??$?RU__crt_locale_data@@@__crt_internal_free_policy@@QEBAXQEBU__crt_locale_data@@@Z 000000018005e400 f i libucrt:wsetlocale.obj
 0001:0005d40c       ??$?RU__crt_locale_pointers@@@__crt_internal_free_policy@@QEBAXQEBU__crt_locale_pointers@@@Z 000000018005e40c f i libucrt:wsetlocale.obj
 0001:0005d90c       ??0?$__crt_unique_heap_ptr@U__crt_locale_data@@U__crt_internal_free_policy@@@@QEAA@QEAU__crt_locale_data@@@Z 000000018005e90c f i libucrt:wsetlocale.obj
 0001:0005d914       ??0?$__crt_unique_heap_ptr@U__crt_locale_pointers@@U__crt_internal_free_policy@@@@QEAA@QEAU__crt_locale_pointers@@@Z 000000018005e914 f i libucrt:wsetlocale.obj
 0001:0005d91c       ??0_expandlocale_locale_name_cache@@QEAA@QEA_W_KQEAU__crt_qualified_locale_data@@@Z 000000018005e91c f i libucrt:wsetlocale.obj
 0001:0005d98c       ??1?$__crt_unique_heap_ptr@U__crt_locale_data@@U__crt_internal_free_policy@@@@QEAA@XZ 000000018005e98c f i libucrt:wsetlocale.obj
 0001:0005d9b0       ??1?$__crt_unique_heap_ptr@U__crt_locale_pointers@@U__crt_internal_free_policy@@@@QEAA@XZ 000000018005e9b0 f i libucrt:wsetlocale.obj
 0001:0005d9d4       ??1_expandlocale_locale_name_cache@@QEAA@XZ 000000018005e9d4 f i libucrt:wsetlocale.obj
 0001:0005da30       ??B?$__crt_unique_heap_ptr@U__crt_locale_data@@U__crt_internal_free_policy@@@@QEBA_NXZ 000000018005ea30 f i libucrt:wsetlocale.obj
 0001:0005da3c       ??B?$__crt_unique_heap_ptr@U__crt_locale_pointers@@U__crt_internal_free_policy@@@@QEBA_NXZ 000000018005ea3c f i libucrt:wsetlocale.obj
 0001:0005dd48       ?commit_locale_name@_expandlocale_locale_name_cache@@QEAAXQEB_W_K@Z 000000018005ed48 f i libucrt:wsetlocale.obj
 0001:0005dddc       ?commit_locale_name_cache_already_updated@_expandlocale_locale_name_cache@@QEAAXQEB_W_K@Z 000000018005eddc f i libucrt:wsetlocale.obj
 0001:0005de2c       ?detach@?$__crt_unique_heap_ptr@U__crt_locale_data@@U__crt_internal_free_policy@@@@QEAAPEAU__crt_locale_data@@XZ 000000018005ee2c f i libucrt:wsetlocale.obj
 0001:0005de38       ?detach@?$__crt_unique_heap_ptr@U__crt_locale_pointers@@U__crt_internal_free_policy@@@@QEAAPEAU__crt_locale_pointers@@XZ 000000018005ee38 f i libucrt:wsetlocale.obj
 0001:0005de44       ?get@?$__crt_unique_heap_ptr@U__crt_locale_data@@U__crt_internal_free_policy@@@@QEBAPEAU__crt_locale_data@@XZ 000000018005ee44 f i libucrt:wsetlocale.obj
 0001:0005de48       ?get@?$__crt_unique_heap_ptr@U__crt_locale_pointers@@U__crt_internal_free_policy@@@@QEBAPEAU__crt_locale_pointers@@XZ 000000018005ee48 f i libucrt:wsetlocale.obj
 0001:0005de4c       ?is_valid@?$__crt_unique_heap_ptr@U__crt_locale_data@@U__crt_internal_free_policy@@@@QEBA_NXZ 000000018005ee4c f i libucrt:wsetlocale.obj
 0001:0005de58       ?is_valid@?$__crt_unique_heap_ptr@U__crt_locale_pointers@@U__crt_internal_free_policy@@@@QEBA_NXZ 000000018005ee58 f i libucrt:wsetlocale.obj
 0001:0005de64       ?release@?$__crt_unique_heap_ptr@U__crt_locale_data@@U__crt_internal_free_policy@@@@QEAAXXZ 000000018005ee64 f i libucrt:wsetlocale.obj
 0001:0005de88       ?release@?$__crt_unique_heap_ptr@U__crt_locale_pointers@@U__crt_internal_free_policy@@@@QEAAXXZ 000000018005ee88 f i libucrt:wsetlocale.obj
 0001:0005deac       __acrt_copy_locale_name    000000018005eeac f   libucrt:wsetlocale.obj
 0001:0005df50       __acrt_set_locale_changed  000000018005ef50 f   libucrt:wsetlocale.obj
 0001:0005df60       __acrt_uninitialize_locale 000000018005ef60 f   libucrt:wsetlocale.obj
 0001:0005df9c       __ascii_tolower            000000018005ef9c f i libucrt:wsetlocale.obj
 0001:0005dfb0       __ascii_towlower           000000018005efb0 f i libucrt:wsetlocale.obj
 0001:0005dfc0       __lc_lctowcs               000000018005efc0 f   libucrt:wsetlocale.obj
 0001:0005e08c       __lc_wcstolc               000000018005f08c f   libucrt:wsetlocale.obj
 0001:0005e24c       _configthreadlocale        000000018005f24c f   libucrt:wsetlocale.obj
 0001:0005e3c0       _create_locale             000000018005f3c0 f   libucrt:wsetlocale.obj
 0001:0005e9f0       _free_locale               000000018005f9f0 f   libucrt:wsetlocale.obj
 0001:0005eabc       _get_current_locale        000000018005fabc f   libucrt:wsetlocale.obj
 0001:0005eba8       _wcreate_locale            000000018005fba8 f   libucrt:wsetlocale.obj
 0001:0005ed44       _wcscats                   000000018005fd44 f   libucrt:wsetlocale.obj
 0001:0005edc4       _wsetlocale                000000018005fdc4 f   libucrt:wsetlocale.obj
 0001:0005ff5c       __pctype_func              0000000180060f5c f   libucrt:ctype.obj
 0001:0005ff98       __pwctype_func             0000000180060f98 f   libucrt:ctype.obj
 0001:0005ffa4       _iswctype_l                0000000180060fa4 f   libucrt:iswctype.obj
 0001:0005ffac       iswctype                   0000000180060fac f   libucrt:iswctype.obj
 0001:00060034       _isctype                   0000000180061034 f   libucrt:isctype.obj
 0001:00060070       _isctype_l                 0000000180061070 f   libucrt:isctype.obj
 0001:00060324       _handle_error              0000000180061324 f   libucrt:libm_error.obj
 0001:00060494       _handle_errorf             0000000180061494 f   libucrt:libm_error.obj
 0001:00060614       _handle_nan                0000000180061614 f   libucrt:libm_error.obj
 0001:00060634       _handle_nanf               0000000180061634 f   libucrt:libm_error.obj
 0001:00060648       __acrt_add_locale_ref      0000000180061648 f   libucrt:locale_refcounting.obj
 0001:000606f8       __acrt_free_locale         00000001800616f8 f   libucrt:locale_refcounting.obj
 0001:000608cc       __acrt_locale_add_lc_time_reference 00000001800618cc f   libucrt:locale_refcounting.obj
 0001:000608fc       __acrt_locale_free_lc_time_if_unreferenced 00000001800618fc f   libucrt:locale_refcounting.obj
 0001:00060940       __acrt_locale_release_lc_time_reference 0000000180061940 f   libucrt:locale_refcounting.obj
 0001:00060970       __acrt_release_locale_ref  0000000180061970 f   libucrt:locale_refcounting.obj
 0001:00060a44       __acrt_update_thread_locale_data 0000000180061a44 f   libucrt:locale_refcounting.obj
 0001:00060ad0       _updatetlocinfoEx_nolock   0000000180061ad0 f   libucrt:locale_refcounting.obj
 0001:00060b50       ?value@?$dual_state_global@J@__crt_state_management@@QEAAAEAJXZ 0000000180061b50 f i libucrt:new_mode.obj
 0001:00060b54       _query_new_mode            0000000180061b54 f   libucrt:new_mode.obj
 0001:00060b60       _set_new_mode              0000000180061b60 f   libucrt:new_mode.obj
 0001:00060ce0       qsort                      0000000180061ce0 f   libucrt:qsort.obj
 0001:00061324       wcsncpy_s                  0000000180062324 f   libucrt:wcsncpy_s.obj
 0001:00061460       wcspbrk                    0000000180062460 f   libucrt:wcspbrk.obj
 0001:000615b8       strncpy_s                  00000001800625b8 f   libucrt:strncpy_s.obj
 0001:000617b0       strpbrk                    00000001800627b0 f   libucrt:strpbrk.obj
 0001:00061c6c       _mbsdec                    0000000180062c6c f   libucrt:mbsdec.obj
 0001:00061c78       _mbsdec_l                  0000000180062c78 f   libucrt:mbsdec.obj
 0001:00061d34       ??0?$__crt_scoped_stack_ptr@_W@@QEAA@U?$__crt_scoped_stack_ptr_tag@_W@@@Z 0000000180062d34 f i libucrt:getstringtypea.obj
 0001:00061d3c       ??0?$__crt_scoped_stack_ptr_tag@_W@@QEAA@QEA_W@Z 0000000180062d3c f i libucrt:getstringtypea.obj
 0001:00061d44       ??1?$__crt_scoped_stack_ptr@_W@@QEAA@XZ 0000000180062d44 f i libucrt:getstringtypea.obj
 0001:00061d70       ?get@?$__crt_scoped_stack_ptr@_W@@QEBAPEA_WXZ 0000000180062d70 f i libucrt:getstringtypea.obj
 0001:00061d74       _MallocaComputeSize        0000000180062d74 f i libucrt:getstringtypea.obj
 0001:00061d88       _MarkAllocaS               0000000180062d88 f i libucrt:getstringtypea.obj
 0001:00061d9c       __acrt_GetStringTypeA      0000000180062d9c f   libucrt:getstringtypea.obj
 0001:00061f90       _freea_crt                 0000000180062f90 f i libucrt:getstringtypea.obj
 0001:00061fb8       ??B?$__crt_scoped_stack_ptr@_W@@QEBA_NXZ 0000000180062fb8 f i libucrt:lcmapstringa.obj
 0001:000623c4       __acrt_LCMapStringA        00000001800633c4 f   libucrt:lcmapstringa.obj
 0001:0006249c       _wcsnicoll                 000000018006349c f   libucrt:wcsnicol.obj
 0001:00062500       _wcsnicoll_l               0000000180063500 f   libucrt:wcsnicol.obj
 0001:0006262c       _strnicoll                 000000018006362c f   libucrt:strnicol.obj
 0001:00062648       _strnicoll_l               0000000180063648 f   libucrt:strnicol.obj
 0001:00062788       __acrt_SetEnvironmentVariableA 0000000180063788 f   libucrt:setenvironmentvariablea.obj
 0001:00062990       _msize                     0000000180063990 f   libucrt:msize.obj
 0001:00062998       _msize_base                0000000180063998 f   libucrt:msize.obj
 0001:000629e0       _realloc_base              00000001800639e0 f   libucrt:realloc_base.obj
 0001:00062b7c       __acrt_DownlevelLCIDToLocaleName 0000000180063b7c f   libucrt:lcidtoname_downlevel.obj
 0001:00062c9c       __acrt_DownlevelLocaleNameToLCID 0000000180063c9c f   libucrt:lcidtoname_downlevel.obj
 0001:00062d68       ??$?RU__crt_lowio_handle_data@@@__crt_internal_free_policy@@QEBAXQEBU__crt_lowio_handle_data@@@Z 0000000180063d68 f i libucrt:osfinfo.obj
 0001:00062d74       ??0?$__crt_unique_heap_ptr@U__crt_lowio_handle_data@@U__crt_internal_free_policy@@@@QEAA@QEAU__crt_lowio_handle_data@@@Z 0000000180063d74 f i libucrt:osfinfo.obj
 0001:00062d7c       ??1?$__crt_unique_heap_ptr@U__crt_lowio_handle_data@@U__crt_internal_free_policy@@@@QEAA@XZ 0000000180063d7c f i libucrt:osfinfo.obj
 0001:00062da0       ??B?$__crt_unique_heap_ptr@U__crt_lowio_handle_data@@U__crt_internal_free_policy@@@@QEBA_NXZ 0000000180063da0 f i libucrt:osfinfo.obj
 0001:00062dac       ?detach@?$__crt_unique_heap_ptr@U__crt_lowio_handle_data@@U__crt_internal_free_policy@@@@QEAAPEAU__crt_lowio_handle_data@@XZ 0000000180063dac f i libucrt:osfinfo.obj
 0001:00062db8       ?get@?$__crt_unique_heap_ptr@U__crt_lowio_handle_data@@U__crt_internal_free_policy@@@@QEBAPEAU__crt_lowio_handle_data@@XZ 0000000180063db8 f i libucrt:osfinfo.obj
 0001:00062dbc       ?is_valid@?$__crt_unique_heap_ptr@U__crt_lowio_handle_data@@U__crt_internal_free_policy@@@@QEBA_NXZ 0000000180063dbc f i libucrt:osfinfo.obj
 0001:00062dc8       ?release@?$__crt_unique_heap_ptr@U__crt_lowio_handle_data@@U__crt_internal_free_policy@@@@QEAAXXZ 0000000180063dc8 f i libucrt:osfinfo.obj
 0001:00062dec       __acrt_lowio_create_handle_array 0000000180063dec f   libucrt:osfinfo.obj
 0001:00062ebc       __acrt_lowio_destroy_handle_array 0000000180063ebc f   libucrt:osfinfo.obj
 0001:00062f20       __acrt_lowio_ensure_fh_exists 0000000180063f20 f   libucrt:osfinfo.obj
 0001:00062ff4       __acrt_lowio_lock_fh       0000000180063ff4 f   libucrt:osfinfo.obj
 0001:00063024       __acrt_lowio_set_os_handle 0000000180064024 f   libucrt:osfinfo.obj
 0001:00063114       __acrt_lowio_unlock_fh     0000000180064114 f   libucrt:osfinfo.obj
 0001:00063144       _alloc_osfhnd              0000000180064144 f   libucrt:osfinfo.obj
 0001:000632d4       _free_osfhnd               00000001800642d4 f   libucrt:osfinfo.obj
 0001:000633bc       _get_osfhandle             00000001800643bc f   libucrt:osfinfo.obj
 0001:00063450       _open_osfhandle            0000000180064450 f   libucrt:osfinfo.obj
 0001:00063724       _commit                    0000000180064724 f   libucrt:commit.obj
 0001:000643ec       _utf8_no_of_trailbytes     00000001800653ec f i libucrt:write.obj
 0001:00064400       _write                     0000000180065400 f   libucrt:write.obj
 0001:000644c0       _write_internal            00000001800654c0 f   libucrt:write.obj
 0001:00064624       _write_nolock              0000000180065624 f   libucrt:write.obj
 0001:000649ec       localeconv                 00000001800659ec f   libucrt:localeconv.obj
 0001:00064a2c       ?is_in_use@__crt_stdio_stream@@QEBA_NXZ 0000000180065a2c f i libucrt:closeall.obj
 0001:00064a3c       _fcloseall                 0000000180065a3c f   libucrt:closeall.obj
 0001:00064b1c       ?has_crt_buffer@__crt_stdio_stream@@QEBA_NXZ 0000000180065b1c f i libucrt:_freebuf.obj
 0001:00064b2c       __acrt_stdio_free_buffer_nolock 0000000180065b2c f   libucrt:_freebuf.obj
 0001:00064b80       _isatty                    0000000180065b80 f   libucrt:isatty.obj
 0001:00064d18       __acrt_fp_strflt_to_string 0000000180065d18 f   libucrt:_fptostr.obj
 0001:00066400       ??0big_integer@__crt_strtox@@QEAA@AEBU01@@Z 0000000180067400 f i libucrt:cfout.obj
 0001:00066440       ??0big_integer@__crt_strtox@@QEAA@XZ 0000000180067440 f i libucrt:cfout.obj
 0001:00066520       ??4big_integer@__crt_strtox@@QEAAAEAU01@AEBU01@@Z 0000000180067520 f i libucrt:cfout.obj
 0001:00066560       ??8__crt_strtox@@YA_NAEBUbig_integer@0@0@Z 0000000180067560 f i libucrt:cfout.obj
 0001:000665a0       ??9__crt_strtox@@YA_NAEBUbig_integer@0@0@Z 00000001800675a0 f i libucrt:cfout.obj
 0001:000665f0       ?add_carry@__crt_strtox@@YAIAEAIII@Z 00000001800675f0 f i libucrt:cfout.obj
 0001:00066610       ?add_multiply_carry@__crt_strtox@@YAIAEAIIII@Z 0000000180067610 f i libucrt:cfout.obj
 0001:00066640       ?bit_scan_reverse@__crt_strtox@@YAII@Z 0000000180067640 f i libucrt:cfout.obj
 0001:00066660       ?count_sequential_high_zeroes@__crt_strtox@@YAII@Z 0000000180067660 f i libucrt:cfout.obj
 0001:00066680       ?divide@__crt_strtox@@YA_KAEAUbig_integer@1@AEBU21@@Z 0000000180067680 f i libucrt:cfout.obj
 0001:00066c50       ?is_zero@__crt_strtox@@YA_NAEBUbig_integer@1@@Z 0000000180067c50 f i libucrt:cfout.obj
 0001:00066c60       ?make_big_integer@__crt_strtox@@YA?AUbig_integer@1@_K@Z 0000000180067c60 f i libucrt:cfout.obj
 0001:00066c80       ?make_big_integer_power_of_two@__crt_strtox@@YA?AUbig_integer@1@I@Z 0000000180067c80 f i libucrt:cfout.obj
 0001:00066d00       ?multiply@__crt_strtox@@YA_NAEAUbig_integer@1@AEBU21@@Z 0000000180067d00 f i libucrt:cfout.obj
 0001:00067180       ?multiply@__crt_strtox@@YA_NAEAUbig_integer@1@I@Z 0000000180068180 f i libucrt:cfout.obj
 0001:000672b0       ?multiply_64_32@__crt_strtox@@YA_K_KI@Z 00000001800682b0 f i libucrt:cfout.obj
 0001:000672c0       ?multiply_by_power_of_ten@__crt_strtox@@YA_NAEAUbig_integer@1@I@Z 00000001800682c0 f i libucrt:cfout.obj
 0001:00067990       ?multiply_core@__crt_strtox@@YAIQEAIII@Z 0000000180068990 f i libucrt:cfout.obj
 0001:000679f0       ?shift_left@__crt_strtox@@YA_NAEAUbig_integer@1@I@Z 00000001800689f0 f i libucrt:cfout.obj
 0001:00067bcc       __acrt_fltout              0000000180068bcc f   libucrt:cfout.obj
 0001:000693a8       __fpe_flt_rounds           000000018006a3a8 f   libucrt:fegetround.obj
 0001:00069400       fegetround                 000000018006a400 f   libucrt:fegetround.obj
 0001:0006941c       ??$?RG@__crt_internal_free_policy@@QEBAXQEBG@Z 000000018006a41c f i libucrt:initctype.obj
 0001:00069428       ??$?RJ@__crt_internal_free_policy@@QEBAXQEBJ@Z 000000018006a428 f i libucrt:initctype.obj
 0001:00069434       ??0?$__crt_unique_heap_ptr@GU__crt_internal_free_policy@@@@QEAA@QEAG@Z 000000018006a434 f i libucrt:initctype.obj
 0001:0006943c       ??0?$__crt_unique_heap_ptr@JU__crt_internal_free_policy@@@@QEAA@QEAJ@Z 000000018006a43c f i libucrt:initctype.obj
 0001:00069444       ??1?$__crt_unique_heap_ptr@GU__crt_internal_free_policy@@@@QEAA@XZ 000000018006a444 f i libucrt:initctype.obj
 0001:00069468       ??1?$__crt_unique_heap_ptr@JU__crt_internal_free_policy@@@@QEAA@XZ 000000018006a468 f i libucrt:initctype.obj
 0001:0006948c       ?detach@?$__crt_unique_heap_ptr@GU__crt_internal_free_policy@@@@QEAAPEAGXZ 000000018006a48c f i libucrt:initctype.obj
 0001:00069498       ?detach@?$__crt_unique_heap_ptr@JU__crt_internal_free_policy@@@@QEAAPEAJXZ 000000018006a498 f i libucrt:initctype.obj
 0001:000694a4       ?release@?$__crt_unique_heap_ptr@GU__crt_internal_free_policy@@@@QEAAXXZ 000000018006a4a4 f i libucrt:initctype.obj
 0001:000694c8       ?release@?$__crt_unique_heap_ptr@JU__crt_internal_free_policy@@@@QEAAXXZ 000000018006a4c8 f i libucrt:initctype.obj
 0001:000694ec       ___lc_codepage_func        000000018006a4ec f   libucrt:initctype.obj
 0001:00069528       ___lc_collate_cp_func      000000018006a528 f   libucrt:initctype.obj
 0001:00069564       ___lc_locale_name_func     000000018006a564 f   libucrt:initctype.obj
 0001:000695a4       ___mb_cur_max_func         000000018006a5a4 f   libucrt:initctype.obj
 0001:000695e0       ___mb_cur_max_l_func       000000018006a5e0 f   libucrt:initctype.obj
 0001:000695f4       __acrt_locale_initialize_ctype 000000018006a5f4 f   libucrt:initctype.obj
 0001:00069df0       ?__c32rtomb_utf8@__crt_mbstring@@YA_KPEAD_UPEAU_Mbstatet@@AEAV__crt_cached_ptd_host@@@Z 000000018006adf0 f   libucrt:c32rtomb.obj
 0001:00069ebc       c32rtomb                   000000018006aebc f   libucrt:c32rtomb.obj
 0001:00069fac       ?__mbrtowc_utf8@__crt_mbstring@@YA_KPEA_WPEBD_KPEAU_Mbstatet@@AEAV__crt_cached_ptd_host@@@Z 000000018006afac f   libucrt:mbrtowc.obj
 0001:0006a000       ?__mbsrtowcs_utf8@__crt_mbstring@@YA_KPEA_WPEAPEBD_KPEAU_Mbstatet@@AEAV__crt_cached_ptd_host@@@Z 000000018006b000 f   libucrt:mbrtowc.obj
 0001:0006a7b4       btowc                      000000018006b7b4 f   libucrt:mbrtowc.obj
 0001:0006a8c4       mbrlen                     000000018006b8c4 f   libucrt:mbrtowc.obj
 0001:0006a9bc       mbrtowc                    000000018006b9bc f   libucrt:mbrtowc.obj
 0001:0006aadc       mbsrtowcs                  000000018006badc f   libucrt:mbrtowc.obj
 0001:0006aba8       mbsrtowcs_s                000000018006bba8 f   libucrt:mbrtowc.obj
 0001:0006b1d0       ?has_big_buffer@__crt_stdio_stream@@QEBA_NXZ 000000018006c1d0 f i libucrt:_flsbuf.obj
 0001:0006b280       __acrt_stdio_flush_and_write_narrow_nolock 000000018006c280 f   libucrt:_flsbuf.obj
 0001:0006b380       __acrt_stdio_flush_and_write_wide_nolock 000000018006c380 f   libucrt:_flsbuf.obj
 0001:0006b480       ??$?RUlconv@@@__crt_internal_free_policy@@QEBAXQEBUlconv@@@Z 000000018006c480 f i libucrt:initmon.obj
 0001:0006b48c       ??0?$__crt_unique_heap_ptr@Ulconv@@U__crt_internal_free_policy@@@@QEAA@QEAUlconv@@@Z 000000018006c48c f i libucrt:initmon.obj
 0001:0006b494       ??1?$__crt_unique_heap_ptr@Ulconv@@U__crt_internal_free_policy@@@@QEAA@XZ 000000018006c494 f i libucrt:initmon.obj
 0001:0006b4b8       ?detach@?$__crt_unique_heap_ptr@Ulconv@@U__crt_internal_free_policy@@@@QEAAPEAUlconv@@XZ 000000018006c4b8 f i libucrt:initmon.obj
 0001:0006b4c4       ?release@?$__crt_unique_heap_ptr@Ulconv@@U__crt_internal_free_policy@@@@QEAAXXZ 000000018006c4c4 f i libucrt:initmon.obj
 0001:0006b4e8       __acrt_locale_free_monetary 000000018006c4e8 f   libucrt:initmon.obj
 0001:0006b634       __acrt_locale_initialize_monetary 000000018006c634 f   libucrt:initmon.obj
 0001:0006bcd8       __acrt_locale_free_numeric 000000018006ccd8 f   libucrt:initnum.obj
 0001:0006bd60       __acrt_locale_initialize_numeric 000000018006cd60 f   libucrt:initnum.obj
 0001:0006c140       ??$?RU__crt_lc_time_data@@@__crt_internal_free_policy@@QEBAXQEBU__crt_lc_time_data@@@Z 000000018006d140 f i libucrt:inittime.obj
 0001:0006c194       ??0?$__crt_unique_heap_ptr@U__crt_lc_time_data@@U__crt_internal_free_policy@@@@QEAA@QEAU__crt_lc_time_data@@@Z 000000018006d194 f i libucrt:inittime.obj
 0001:0006c19c       ??1?$__crt_unique_heap_ptr@U__crt_lc_time_data@@U__crt_internal_free_policy@@@@QEAA@XZ 000000018006d19c f i libucrt:inittime.obj
 0001:0006c1c0       ??B?$__crt_unique_heap_ptr@U__crt_lc_time_data@@U__crt_internal_free_policy@@@@QEBA_NXZ 000000018006d1c0 f i libucrt:inittime.obj
 0001:0006c1cc       ?detach@?$__crt_unique_heap_ptr@U__crt_lc_time_data@@U__crt_internal_free_policy@@@@QEAAPEAU__crt_lc_time_data@@XZ 000000018006d1cc f i libucrt:inittime.obj
 0001:0006c218       ?get@?$__crt_unique_heap_ptr@U__crt_lc_time_data@@U__crt_internal_free_policy@@@@QEBAPEAU__crt_lc_time_data@@XZ 000000018006d218 f i libucrt:inittime.obj
 0001:0006c6c8       ?is_valid@?$__crt_unique_heap_ptr@U__crt_lc_time_data@@U__crt_internal_free_policy@@@@QEBA_NXZ 000000018006d6c8 f i libucrt:inittime.obj
 0001:0006c6d4       ?release@?$__crt_unique_heap_ptr@U__crt_lc_time_data@@U__crt_internal_free_policy@@@@QEAAXXZ 000000018006d6d4 f i libucrt:inittime.obj
 0001:0006c6f8       __acrt_locale_free_time    000000018006d6f8 f   libucrt:inittime.obj
 0001:0006c844       __acrt_locale_initialize_time 000000018006d844 f   libucrt:inittime.obj
 0001:0006c9a4       wcscat_s                   000000018006d9a4 f   libucrt:wcscat_s.obj
 0001:0006cb6c       wcsncat_s                  000000018006db6c f   libucrt:wcsncat_s.obj
 0001:0006cca4       wcscspn                    000000018006dca4 f   libucrt:wcscspn.obj
 0001:0006d74c       __acrt_get_qualified_locale 000000018006e74c f   libucrt:get_qualified_locale.obj
 0001:0006e524       __acrt_get_qualified_locale_downlevel 000000018006f524 f   libucrt:getqloc_downlevel.obj
 0001:0006e844       __acrt_GetStringTypeW      000000018006f844 f   libucrt:getstringtypew.obj
 0001:0006e84c       ?should_round_up@__crt_strtox@@YA_N_N000@Z 000000018006f84c f i libucrt:fpexcept.obj
 0001:0006e8f4       _errcode                   000000018006f8f4 f   libucrt:fpexcept.obj
 0001:0006e948       _except1                   000000018006f948 f   libucrt:fpexcept.obj
 0001:0006ea78       _except2                   000000018006fa78 f   libucrt:fpexcept.obj
 0001:0006ec00       _handle_exc                000000018006fc00 f   libucrt:fpexcept.obj
 0001:0006efb4       _handle_qnan2              000000018006ffb4 f   libucrt:fpexcept.obj
 0001:0006efbc       _raise_exc                 000000018006ffbc f   libucrt:fpexcept.obj
 0001:0006efec       _raise_exc_ex              000000018006ffec f   libucrt:fpexcept.obj
 0001:0006f3b8       _raise_excf                00000001800703b8 f   libucrt:fpexcept.obj
 0001:0006f3ec       _set_errno_from_matherr    00000001800703ec f   libucrt:fpexcept.obj
 0001:0006f428       _umatherr                  0000000180070428 f   libucrt:fpexcept.obj
 0001:0006f528       _clrfp                     0000000180070528 f   libucrt:fpctrl.obj
 0001:0006f54c       _ctrlfp                    000000018007054c f   libucrt:fpctrl.obj
 0001:0006f5e8       _set_statfp                00000001800705e8 f   libucrt:fpctrl.obj
 0001:0006f610       _statfp                    0000000180070610 f   libucrt:fpctrl.obj
 0001:0006f628       __strncnt                  0000000180070628 f   libucrt:strncnt.obj
 0001:0006f644       __acrt_CompareStringW      0000000180070644 f   libucrt:comparestringw.obj
 0001:0006f730       __ascii_wcsnicmp           0000000180070730 f   libucrt:wcsnicmp.obj
 0001:0006f790       _towlower_fast_internal    0000000180070790 f i libucrt:wcsnicmp.obj
 0001:0006f7c0       _towlower_internal         00000001800707c0 f i libucrt:wcsnicmp.obj
 0001:0006f804       _wcsnicmp                  0000000180070804 f   libucrt:wcsnicmp.obj
 0001:0006f85c       _wcsnicmp_l                000000018007085c f   libucrt:wcsnicmp.obj
 0001:0006fa04       __ascii_strnicmp           0000000180070a04 f   libucrt:strnicmp.obj
 0001:0006fa60       _strnicmp                  0000000180070a60 f   libucrt:strnicmp.obj
 0001:0006fac4       _strnicmp_l                0000000180070ac4 f   libucrt:strnicmp.obj
 0001:00070000       __acrt_CompareStringA      0000000180071000 f   libucrt:comparestringa.obj
 0001:000701bc       __acrt_report_runtime_error 00000001800711bc f   libucrt:report_runtime_error.obj
 0001:00070370       _query_app_type            0000000180071370 f   libucrt:report_runtime_error.obj
 0001:00070378       _set_app_type              0000000180071378 f   libucrt:report_runtime_error.obj
 0001:00070980       _lseek                     0000000180071980 f   libucrt:lseek.obj
 0001:00070a40       _lseek_internal            0000000180071a40 f   libucrt:lseek.obj
 0001:00070a48       _lseek_nolock              0000000180071a48 f   libucrt:lseek.obj
 0001:00070b08       _lseek_nolock_internal     0000000180071b08 f   libucrt:lseek.obj
 0001:00070b10       _lseeki64                  0000000180071b10 f   libucrt:lseek.obj
 0001:00070bd0       _lseeki64_internal         0000000180071bd0 f   libucrt:lseek.obj
 0001:00070bd8       _lseeki64_nolock           0000000180071bd8 f   libucrt:lseek.obj
 0001:00070c98       _lseeki64_nolock_internal  0000000180071c98 f   libucrt:lseek.obj
 0001:00070d60       _putwch                    0000000180071d60 f   libucrt:putwch.obj
 0001:00070dac       _putwch_nolock             0000000180071dac f   libucrt:putwch.obj
 0001:00070df8       _putwch_nolock_internal    0000000180071df8 f   libucrt:putwch.obj
 0001:000716c8       _read                      00000001800726c8 f   libucrt:read.obj
 0001:00071830       _read_nolock               0000000180072830 f   libucrt:read.obj
 0001:00071ef8       _fclose_nolock             0000000180072ef8 f   libucrt:fclose.obj
 0001:00071fb8       fclose                     0000000180072fb8 f   libucrt:fclose.obj
 0001:00072078       _controlfp_s               0000000180073078 f   libucrt:contrlfp.obj
 0001:000720f4       fegetenv                   00000001800730f4 f   libucrt:fegetenv.obj
 0001:0007211c       fesetenv                   000000018007311c f   libucrt:fesetenv.obj
 0001:0007218c       feholdexcept               000000018007318c f   libucrt:feholdexcept.obj
 0001:000721f0       ceil                       00000001800731f0 f   libucrt:ceil.obj
 0001:000722f0       log10                      00000001800732f0 f   libucrt:log10.obj
 0001:00072a08       ??$__acrt_fenv_shift_bits@W4__acrt_fenv_abstract_control@@@@YA?AW4__acrt_fenv_abstract_control@@W40@0I@Z 0000000180073a08 f i libucrt:_fenvutils.obj
 0001:00072a14       ??$__acrt_fenv_shift_bits@W4__acrt_fenv_abstract_status@@@@YA?AW4__acrt_fenv_abstract_status@@W40@0I@Z 0000000180073a14 f i libucrt:_fenvutils.obj
 0001:00072a20       ??$__acrt_fenv_translate_bit@W4__acrt_fenv_abstract_control@@W4__acrt_fenv_machine_sse_control@@@@YA?AW4__acrt_fenv_abstract_control@@W4__acrt_fenv_machine_sse_control@@0W40@1@Z 0000000180073a20 f i libucrt:_fenvutils.obj
 0001:00072a30       ??$__acrt_fenv_translate_bit@W4__acrt_fenv_abstract_status@@W4__acrt_fenv_machine_sse_status@@@@YA?AW4__acrt_fenv_abstract_status@@W4__acrt_fenv_machine_sse_status@@0W40@1@Z 0000000180073a30 f i libucrt:_fenvutils.obj
 0001:00072a3c       ??$__acrt_fenv_translate_bit@W4__acrt_fenv_machine_sse_control@@W4__acrt_fenv_abstract_control@@@@YA?AW4__acrt_fenv_machine_sse_control@@W4__acrt_fenv_abstract_control@@0W40@1@Z 0000000180073a3c f i libucrt:_fenvutils.obj
 0001:00072a4c       ??$__acrt_fenv_translate_bit@W4__acrt_fenv_machine_sse_status@@W4__acrt_fenv_abstract_status@@@@YA?AW4__acrt_fenv_machine_sse_status@@W4__acrt_fenv_abstract_status@@0W40@1@Z 0000000180073a4c f i libucrt:_fenvutils.obj
 0001:00072a58       ??$__acrt_fenv_unshift_bits@W4__acrt_fenv_abstract_control@@@@YA?AW4__acrt_fenv_abstract_control@@W40@0I@Z 0000000180073a58 f i libucrt:_fenvutils.obj
 0001:00072a64       ??$__acrt_fenv_unshift_bits@W4__acrt_fenv_abstract_status@@@@YA?AW4__acrt_fenv_abstract_status@@W40@0I@Z 0000000180073a64 f i libucrt:_fenvutils.obj
 0001:00072c8c       ??I@YA?AW4__acrt_fenv_abstract_control@@W40@0@Z 0000000180073c8c f i libucrt:_fenvutils.obj
 0001:00072c94       ??I@YA?AW4__acrt_fenv_abstract_status@@W40@0@Z 0000000180073c94 f i libucrt:_fenvutils.obj
 0001:00072c9c       ??I@YA?AW4__acrt_fenv_machine_sse_control@@W40@0@Z 0000000180073c9c f i libucrt:_fenvutils.obj
 0001:00072ca4       ??I@YA?AW4__acrt_fenv_machine_sse_status@@W40@0@Z 0000000180073ca4 f i libucrt:_fenvutils.obj
 0001:00072cac       ??U@YA?AW4__acrt_fenv_abstract_control@@W40@0@Z 0000000180073cac f i libucrt:_fenvutils.obj
 0001:00072cb4       ??U@YA?AW4__acrt_fenv_abstract_status@@W40@0@Z 0000000180073cb4 f i libucrt:_fenvutils.obj
 0001:00072cbc       ??U@YA?AW4__acrt_fenv_machine_sse_control@@W40@0@Z 0000000180073cbc f i libucrt:_fenvutils.obj
 0001:00072cc4       ??_5@YAAEAW4__acrt_fenv_abstract_control@@AEAW40@W40@@Z 0000000180073cc4 f i libucrt:_fenvutils.obj
 0001:00072ccc       ??_5@YAAEAW4__acrt_fenv_abstract_status@@AEAW40@W40@@Z 0000000180073ccc f i libucrt:_fenvutils.obj
 0001:00072cd4       ??_5@YAAEAW4__acrt_fenv_machine_sse_control@@AEAW40@W40@@Z 0000000180073cd4 f i libucrt:_fenvutils.obj
 0001:00072cdc       ??_5@YAAEAW4__acrt_fenv_machine_sse_status@@AEAW40@W40@@Z 0000000180073cdc f i libucrt:_fenvutils.obj
 0001:00072ce4       ?__acrt_fenv_shift_abstract_sse_control@@YA?AW4__acrt_fenv_abstract_control@@W41@@Z 0000000180073ce4 f i libucrt:_fenvutils.obj
 0001:00072d00       ?__acrt_fenv_shift_abstract_sse_status@@YA?AW4__acrt_fenv_abstract_status@@W41@@Z 0000000180073d00 f i libucrt:_fenvutils.obj
 0001:00072d0c       ?__acrt_fenv_unshift_abstract_sse_control@@YA?AW4__acrt_fenv_abstract_control@@W41@@Z 0000000180073d0c f i libucrt:_fenvutils.obj
 0001:00072d28       ?__acrt_fenv_unshift_abstract_sse_status@@YA?AW4__acrt_fenv_abstract_status@@W41@@Z 0000000180073d28 f i libucrt:_fenvutils.obj
 0001:00073090       __acrt_fenv_expand_round_control 0000000180074090 f   libucrt:_fenvutils.obj
 0001:000730b0       __acrt_fenv_get_common_round_control 00000001800740b0 f   libucrt:_fenvutils.obj
 0001:000730bc       __acrt_fenv_get_control    00000001800740bc f   libucrt:_fenvutils.obj
 0001:000731d8       __acrt_fenv_get_fp_status_word_from_exception_mask 00000001800741d8 f   libucrt:_fenvutils.obj
 0001:000731e8       __acrt_fenv_get_status     00000001800741e8 f   libucrt:_fenvutils.obj
 0001:00073254       __acrt_fenv_set_control    0000000180074254 f   libucrt:_fenvutils.obj
 0001:000733d8       __acrt_fenv_set_status     00000001800743d8 f   libucrt:_fenvutils.obj
 0001:00073644       __acrt_GetLocaleInfoA      0000000180074644 f   libucrt:getlocaleinfoa.obj
 0001:00073880       ?reset_and_return@__crt_mbstring@@YA_K_KPEAU_Mbstatet@@@Z 0000000180074880 f   libucrt:common_utf8.obj
 0001:0007388c       ?return_illegal_sequence@__crt_mbstring@@YA_KPEAU_Mbstatet@@AEAV__crt_cached_ptd_host@@@Z 000000018007488c f   libucrt:common_utf8.obj
 0001:000738a8       ?__mbrtoc32_utf8@__crt_mbstring@@YA_KPEA_UPEBD_KPEAU_Mbstatet@@AEAV__crt_cached_ptd_host@@@Z 00000001800748a8 f   libucrt:mbrtoc32.obj
 0001:00073af8       mbrtoc32                   0000000180074af8 f   libucrt:mbrtoc32.obj
 0001:00073bc4       __acrt_stdio_allocate_buffer_nolock 0000000180074bc4 f   libucrt:_getbuf.obj
 0001:000742b0       _i64toa                    00000001800752b0 f   libucrt:xtoa.obj
 0001:000742f0       _i64toa_s                  00000001800752f0 f   libucrt:xtoa.obj
 0001:0007431c       _i64tow                    000000018007531c f   libucrt:xtoa.obj
 0001:0007435c       _i64tow_s                  000000018007535c f   libucrt:xtoa.obj
 0001:00074388       _itoa                      0000000180075388 f   libucrt:xtoa.obj
 0001:000743c4       _itoa_s                    00000001800753c4 f   libucrt:xtoa.obj
 0001:000743ec       _itow                      00000001800753ec f   libucrt:xtoa.obj
 0001:00074428       _itow_s                    0000000180075428 f   libucrt:xtoa.obj
 0001:00074450       _ltoa                      0000000180075450 f   libucrt:xtoa.obj
 0001:0007448c       _ltoa_s                    000000018007548c f   libucrt:xtoa.obj
 0001:000744b4       _ltow                      00000001800754b4 f   libucrt:xtoa.obj
 0001:000744f0       _ltow_s                    00000001800754f0 f   libucrt:xtoa.obj
 0001:00074518       _ui64toa                   0000000180075518 f   libucrt:xtoa.obj
 0001:00074544       _ui64toa_s                 0000000180075544 f   libucrt:xtoa.obj
 0001:0007455c       _ui64tow                   000000018007555c f   libucrt:xtoa.obj
 0001:00074588       _ui64tow_s                 0000000180075588 f   libucrt:xtoa.obj
 0001:000745a0       _ultoa                     00000001800755a0 f   libucrt:xtoa.obj
 0001:000745cc       _ultoa_s                   00000001800755cc f   libucrt:xtoa.obj
 0001:000745e4       _ultow                     00000001800755e4 f   libucrt:xtoa.obj
 0001:00074610       _ultow_s                   0000000180075610 f   libucrt:xtoa.obj
 0001:00074628       __ascii_wcsicmp            0000000180075628 f   libucrt:wcsicmp.obj
 0001:00074678       _wcsicmp                   0000000180075678 f   libucrt:wcsicmp.obj
 0001:000746d0       _wcsicmp_l                 00000001800756d0 f   libucrt:wcsicmp.obj
 0001:00074850       wcscmp                     0000000180075850 f   libucrt:wcscmp.obj
 0001:00074894       _add_exp                   0000000180075894 f   libucrt:util.obj
 0001:000748f8       _decomp                    00000001800758f8 f   libucrt:util.obj
 0001:00074a74       _get_exp                   0000000180075a74 f   libucrt:util.obj
 0001:00074a98       _set_bexp                  0000000180075a98 f   libucrt:util.obj
 0001:00074ad4       _set_exp                   0000000180075ad4 f   libucrt:util.obj
 0001:00074b1c       _sptype                    0000000180075b1c f   libucrt:util.obj
 0001:00074bd0       _get_fpsr                  0000000180075bd0 f   libucrt:fpsr.obj
 0001:00074be0       _set_fpsr                  0000000180075be0 f   libucrt:fpsr.obj
 0001:00074bea       _fclrf                     0000000180075bea f   libucrt:fpsr.obj
 0001:00074bfe       _frnd                      0000000180075bfe f   libucrt:fpsr.obj
 0001:00074c34       _towlower_l                0000000180075c34 f   libucrt:towlower.obj
 0001:00074d64       towlower                   0000000180075d64 f   libucrt:towlower.obj
 0001:00074d6c       _set_error_mode            0000000180075d6c f   libucrt:set_error_mode.obj
 0001:00074f60       ??$message_box@$$TAEBQEBDAEBQEBDK@?$__crt_char_traits@D@@SAH$$QEA$$TAEBQEBD1$$QEAK@Z 0000000180075f60 f i libucrt:crtmbox.obj
 0001:00074f78       ??$message_box@$$TAEBQEB_WAEBQEB_WK@?$__crt_char_traits@_W@@SAH$$QEA$$TAEBQEB_W1$$QEAK@Z 0000000180075f78 f i libucrt:crtmbox.obj
 0001:00074f90       ??$message_box@PEAUHWND__@@AEBQEBDAEBQEBDAEBI@?$__crt_char_traits@D@@SAH$$QEAPEAUHWND__@@AEBQEBD1AEBI@Z 0000000180075f90 f i libucrt:crtmbox.obj
 0001:00074fa8       ??$message_box@PEAUHWND__@@AEBQEB_WAEBQEB_WAEBI@?$__crt_char_traits@_W@@SAH$$QEAPEAUHWND__@@AEBQEB_W1AEBI@Z 0000000180075fa8 f i libucrt:crtmbox.obj
 0001:00074fc0       ??$output_debug_string@AEBQEBD@?$__crt_char_traits@D@@SAXAEBQEBD@Z 0000000180075fc0 f i libucrt:crtmbox.obj
 0001:00074fcc       ??$output_debug_string@AEBQEB_W@?$__crt_char_traits@_W@@SAXAEBQEB_W@Z 0000000180075fcc f i libucrt:crtmbox.obj
 0001:00074fd8       __acrt_show_narrow_message_box 0000000180075fd8 f   libucrt:crtmbox.obj
 0001:000750a4       __acrt_show_wide_message_box 00000001800760a4 f   libucrt:crtmbox.obj
 0001:000752e0       __dcrt_lowio_ensure_console_output_initialized 00000001800762e0 f   libucrt:initcon.obj
 0001:00075348       __dcrt_terminate_console_output 0000000180076348 f   libucrt:initcon.obj
 0001:0007536c       __dcrt_write_console       000000018007636c f   libucrt:initcon.obj
 0001:00075650       _close                     0000000180076650 f   libucrt:close.obj
 0001:00075710       _close_internal            0000000180076710 f   libucrt:close.obj
 0001:00075804       _close_nolock              0000000180076804 f   libucrt:close.obj
 0001:000758c4       _close_nolock_internal     00000001800768c4 f   libucrt:close.obj
 0001:000759c4       ??$?RU__crt_stdio_stream_data@@@__crt_internal_free_policy@@QEBAXQEBU__crt_stdio_stream_data@@@Z 00000001800769c4 f i libucrt:stream.obj
 0001:000759d0       ??0?$__crt_unique_heap_ptr@U__crt_stdio_stream_data@@U__crt_internal_free_policy@@@@QEAA@QEAU__crt_stdio_stream_data@@@Z 00000001800769d0 f i libucrt:stream.obj
 0001:000759d8       ??0__crt_stdio_stream@@QEAA@XZ 00000001800769d8 f i libucrt:stream.obj
 0001:000759e4       ??1?$__crt_unique_heap_ptr@U__crt_stdio_stream_data@@U__crt_internal_free_policy@@@@QEAA@XZ 00000001800769e4 f i libucrt:stream.obj
 0001:00075a08       ?__acrt_stdio_allocate_stream@@YA?AV__crt_stdio_stream@@XZ 0000000180076a08 f   libucrt:stream.obj
 0001:00075a74       ?__acrt_stdio_free_stream@@YAXV__crt_stdio_stream@@@Z 0000000180076a74 f   libucrt:stream.obj
 0001:00075a98       ?deallocate@__crt_stdio_stream@@QEAAXXZ 0000000180076a98 f i libucrt:stream.obj
 0001:00075aa4       ?detach@?$__crt_unique_heap_ptr@U__crt_stdio_stream_data@@U__crt_internal_free_policy@@@@QEAAPEAU__crt_stdio_stream_data@@XZ 0000000180076aa4 f i libucrt:stream.obj
 0001:00075bd8       ?lock@__crt_stdio_stream@@QEBAXXZ 0000000180076bd8 f i libucrt:stream.obj
 0001:00075be4       ?release@?$__crt_unique_heap_ptr@U__crt_stdio_stream_data@@U__crt_internal_free_policy@@@@QEAAXXZ 0000000180076be4 f i libucrt:stream.obj
 0001:00075c08       ?try_allocate@__crt_stdio_stream@@QEAA_NXZ 0000000180076c08 f i libucrt:stream.obj
 0001:00075c30       ?unlock@__crt_stdio_stream@@QEBAXXZ 0000000180076c30 f i libucrt:stream.obj
 0001:00075d94       _clearfp                   0000000180076d94 f   libucrt:ieee.obj
 0001:00075e18       _control87                 0000000180076e18 f   libucrt:ieee.obj
 0001:00075e20       _controlfp                 0000000180076e20 f   libucrt:ieee.obj
 0001:00075e2c       _fpreset                   0000000180076e2c f   libucrt:ieee.obj
 0001:00075f20       _set_controlfp             0000000180076f20 f   libucrt:ieee.obj
 0001:00075f64       _statusfp                  0000000180076f64 f   libucrt:ieee.obj
 0001:00076320       _log10_special             0000000180077320 f   libucrt:log_special.obj
 0001:00076348       _log10f_special            0000000180077348 f   libucrt:log_special.obj
 0001:00076370       _log_special               0000000180077370 f   libucrt:log_special.obj
 0001:00076454       _logf_special              0000000180077454 f   libucrt:log_special.obj
 0001:00076540       __acrt_LCMapStringW        0000000180077540 f   libucrt:lcmapstringw.obj
 0001:000765e8       __acrt_OutputDebugStringA  00000001800775e8 f   libucrt:outputdebugstringa.obj
 0001:00076a8c       _mbstowcs_l                0000000180077a8c f   libucrt:mbstowcs.obj
 0001:00076b5c       _mbstowcs_s_l              0000000180077b5c f   libucrt:mbstowcs.obj
 0001:00076c40       mbstowcs                   0000000180077c40 f   libucrt:mbstowcs.obj
 0001:00076d00       mbstowcs_s                 0000000180077d00 f   libucrt:mbstowcs.obj
 0001:00076de0       _FindPESection             0000000180077de0 f   LIBCMT:pesect.obj
 0001:00076e40       _IsNonwritableInCurrentImage 0000000180077e40 f   LIBCMT:pesect.obj
 0001:00076ea0       _ValidateImageBase         0000000180077ea0 f   LIBCMT:pesect.obj
 0001:00076ed8       ??1type_info@@UEAA@XZ      0000000180077ed8 f   LIBCMT:std_type_info_static.obj
 0001:00076ee8       ??_Etype_info@@UEAAPEAXI@Z 0000000180077ee8 f i LIBCMT:std_type_info_static.obj
 0001:00076ee8       ??_Gtype_info@@UEAAPEAXI@Z 0000000180077ee8 f i LIBCMT:std_type_info_static.obj
 0001:00076f20       __GSHandlerCheck           0000000180077f20 f   LIBCMT:gshandler.obj
 0001:00076f44       __GSHandlerCheckCommon     0000000180077f44 f   LIBCMT:gshandler.obj
 0001:00076fd0       __security_check_cookie    0000000180077fd0 f   LIBCMT:amdsecgs.obj
 0001:00076ffc       ??3@YAXPEAX_K@Z            0000000180077ffc f   LIBCMT:delete_scalar_size.obj
 0001:00077004       __GSHandlerCheck_SEH       0000000180078004 f   LIBCMT:gshandlerseh.obj
 0001:000770ac       __raise_securityfailure    00000001800780ac f   LIBCMT:gs_report.obj
 0001:000770f0       __report_gsfailure         00000001800780f0 f   LIBCMT:gs_report.obj
 0001:000771f8       __report_rangecheckfailure 00000001800781f8 f   LIBCMT:gs_report.obj
 0001:00077210       __report_securityfailure   0000000180078210 f   LIBCMT:gs_report.obj
 0001:000772d4       __report_securityfailureEx 00000001800782d4 f   LIBCMT:gs_report.obj
 0001:00077550       __chkstk                   0000000180078550 f   LIBCMT:chkstk.obj
 0001:00077550       _alloca_probe              0000000180078550 f   LIBCMT:chkstk.obj
 0001:000775b8       __GSHandlerCheck_EH        00000001800785b8 f   LIBCMT:gshandlereh.obj
 0001:00077658       ??3@YAXPEAX@Z              0000000180078658 f   LIBCMT:delete_scalar.obj
 0001:0007765d       RtlUnwindEx                000000018007865d f   kernel32:KERNEL32.dll
 0001:00077663       InterlockedPushEntrySList  0000000180078663 f   kernel32:KERNEL32.dll
 0001:00077669       InterlockedFlushSList      0000000180078669 f   kernel32:KERNEL32.dll
 0001:0007766f       GetLastError               000000018007866f f   kernel32:KERNEL32.dll
 0001:00077675       SetLastError               0000000180078675 f   kernel32:KERNEL32.dll
 0001:0007767b       EnterCriticalSection       000000018007867b f   kernel32:KERNEL32.dll
 0001:00077681       LeaveCriticalSection       0000000180078681 f   kernel32:KERNEL32.dll
 0001:00077687       DeleteCriticalSection      0000000180078687 f   kernel32:KERNEL32.dll
 0001:0007768d       InitializeCriticalSectionAndSpinCount 000000018007868d f   kernel32:KERNEL32.dll
 0001:00077693       TlsAlloc                   0000000180078693 f   kernel32:KERNEL32.dll
 0001:00077699       TlsGetValue                0000000180078699 f   kernel32:KERNEL32.dll
 0001:0007769f       TlsSetValue                000000018007869f f   kernel32:KERNEL32.dll
 0001:000776a5       TlsFree                    00000001800786a5 f   kernel32:KERNEL32.dll
 0001:000776ab       FreeLibrary                00000001800786ab f   kernel32:KERNEL32.dll
 0001:000776b1       GetProcAddress             00000001800786b1 f   kernel32:KERNEL32.dll
 0001:000776b7       LoadLibraryExW             00000001800786b7 f   kernel32:KERNEL32.dll
 0001:000776bd       EncodePointer              00000001800786bd f   kernel32:KERNEL32.dll
 0001:000776c3       RaiseException             00000001800786c3 f   kernel32:KERNEL32.dll
 0001:000776c9       RtlPcToFileHeader          00000001800786c9 f   kernel32:KERNEL32.dll
 0001:000776cf       GetCurrentProcess          00000001800786cf f   kernel32:KERNEL32.dll
 0001:000776d5       ExitProcess                00000001800786d5 f   kernel32:KERNEL32.dll
 0001:000776db       TerminateProcess           00000001800786db f   kernel32:KERNEL32.dll
 0001:000776e1       GetModuleHandleExW         00000001800786e1 f   kernel32:KERNEL32.dll
 0001:000776e7       GetModuleFileNameW         00000001800786e7 f   kernel32:KERNEL32.dll
 0001:000776ed       GetCurrentThread           00000001800786ed f   kernel32:KERNEL32.dll
 0001:000776f3       HeapAlloc                  00000001800786f3 f   kernel32:KERNEL32.dll
 0001:000776f9       HeapFree                   00000001800786f9 f   kernel32:KERNEL32.dll
 0001:000776ff       FindClose                  00000001800786ff f   kernel32:KERNEL32.dll
 0001:00077705       FindFirstFileExW           0000000180078705 f   kernel32:KERNEL32.dll
 0001:0007770b       FindNextFileW              000000018007870b f   kernel32:KERNEL32.dll
 0001:00077711       IsValidCodePage            0000000180078711 f   kernel32:KERNEL32.dll
 0001:00077717       GetACP                     0000000180078717 f   kernel32:KERNEL32.dll
 0001:0007771d       GetOEMCP                   000000018007871d f   kernel32:KERNEL32.dll
 0001:00077723       GetCPInfo                  0000000180078723 f   kernel32:KERNEL32.dll
 0001:00077729       GetCommandLineA            0000000180078729 f   kernel32:KERNEL32.dll
 0001:0007772f       GetCommandLineW            000000018007872f f   kernel32:KERNEL32.dll
 0001:00077735       MultiByteToWideChar        0000000180078735 f   kernel32:KERNEL32.dll
 0001:0007773b       WideCharToMultiByte        000000018007873b f   kernel32:KERNEL32.dll
 0001:00077741       GetEnvironmentStringsW     0000000180078741 f   kernel32:KERNEL32.dll
 0001:00077747       FreeEnvironmentStringsW    0000000180078747 f   kernel32:KERNEL32.dll
 0001:0007774d       SetEnvironmentVariableW    000000018007874d f   kernel32:KERNEL32.dll
 0001:00077753       GetTempPathW               0000000180078753 f   kernel32:KERNEL32.dll
 0001:00077759       FlsAlloc                   0000000180078759 f   kernel32:KERNEL32.dll
 0001:0007775f       FlsGetValue                000000018007875f f   kernel32:KERNEL32.dll
 0001:00077765       FlsSetValue                0000000180078765 f   kernel32:KERNEL32.dll
 0001:0007776b       FlsFree                    000000018007876b f   kernel32:KERNEL32.dll
 0001:00077771       GetDateFormatW             0000000180078771 f   kernel32:KERNEL32.dll
 0001:00077777       GetTimeFormatW             0000000180078777 f   kernel32:KERNEL32.dll
 0001:0007777d       CompareStringW             000000018007877d f   kernel32:KERNEL32.dll
 0001:00077783       LCMapStringW               0000000180078783 f   kernel32:KERNEL32.dll
 0001:00077789       GetLocaleInfoW             0000000180078789 f   kernel32:KERNEL32.dll
 0001:0007778f       IsValidLocale              000000018007878f f   kernel32:KERNEL32.dll
 0001:00077795       GetUserDefaultLCID         0000000180078795 f   kernel32:KERNEL32.dll
 0001:0007779b       EnumSystemLocalesW         000000018007879b f   kernel32:KERNEL32.dll
 0001:000777a1       GetProcessHeap             00000001800787a1 f   kernel32:KERNEL32.dll
 0001:000777a7       GetStdHandle               00000001800787a7 f   kernel32:KERNEL32.dll
 0001:000777ad       GetFileType                00000001800787ad f   kernel32:KERNEL32.dll
 0001:000777b3       SetConsoleCtrlHandler      00000001800787b3 f   kernel32:KERNEL32.dll
 0001:000777b9       GetStringTypeW             00000001800787b9 f   kernel32:KERNEL32.dll
 0001:000777bf       HeapSize                   00000001800787bf f   kernel32:KERNEL32.dll
 0001:000777c5       HeapReAlloc                00000001800787c5 f   kernel32:KERNEL32.dll
 0001:000777cb       SetStdHandle               00000001800787cb f   kernel32:KERNEL32.dll
 0001:000777d1       FlushFileBuffers           00000001800787d1 f   kernel32:KERNEL32.dll
 0001:000777d7       WriteFile                  00000001800787d7 f   kernel32:KERNEL32.dll
 0001:000777dd       GetConsoleOutputCP         00000001800787dd f   kernel32:KERNEL32.dll
 0001:000777e3       GetConsoleMode             00000001800787e3 f   kernel32:KERNEL32.dll
 0001:000777e9       GetFileSizeEx              00000001800787e9 f   kernel32:KERNEL32.dll
 0001:000777ef       SetFilePointerEx           00000001800787ef f   kernel32:KERNEL32.dll
 0001:000777f5       ReadFile                   00000001800787f5 f   kernel32:KERNEL32.dll
 0001:000777fb       ReadConsoleW               00000001800787fb f   kernel32:KERNEL32.dll
 0001:00077801       OutputDebugStringW         0000000180078801 f   kernel32:KERNEL32.dll
 0001:00077807       CreateFileW                0000000180078807 f   kernel32:KERNEL32.dll
 0001:0007780d       CloseHandle                000000018007880d f   kernel32:KERNEL32.dll
 0001:00077813       WriteConsoleW              0000000180078813 f   kernel32:KERNEL32.dll
 0001:0007781c       __C_specific_handler_noexcept 000000018007881c f   libvcruntime:chandler_noexcept.obj
 0001:0007787c       strchr                     000000018007887c f   libvcruntime:strchr.obj
 0001:00077918       wcschr                     0000000180078918 f   libvcruntime:wcschr.obj
 0001:000779b0       strrchr                    00000001800789b0 f   libvcruntime:strrchr.obj
 0001:00077b3c       _local_unwind              0000000180078b3c f   libvcruntime:jmpuwind.obj
 0001:00077b70       RtlUnwind                  0000000180078b70 f   kernel32:KERNEL32.dll
 0001:0007b010       _guard_dispatch_icall_nop  000000018007c010 f   LIBCMT:guard_dispatch.obj
 0001:0007b030       _guard_xfg_dispatch_icall_nop 000000018007c030 f   LIBCMT:guard_xfg_dispatch.obj
 0001:0007c070       memset_repstos             000000018007d070 f   libvcruntime:memset.obj
 0001:0007c090       memset                     000000018007d090 f   libvcruntime:memset.obj
 0001:0007c530       memcpy_repmovs             000000018007d530 f   libvcruntime:memcpy.obj
 0001:0007c550       memcpy                     000000018007d550 f   libvcruntime:memcpy.obj
 0001:0007c550       memcpy_$fo_default$        000000018007d550     libvcruntime:memcpy.obj
 0001:0007c550       memmove                    000000018007d550 f   libvcruntime:memcpy.obj
 0001:0007cd80       memcmp                     000000018007dd80 f   libvcruntime:memcmp.obj
 0002:00000000       __xc_a                     0000000180081000     LIBCMT:initializers.obj
 0002:00000110       __xc_z                     0000000180081110     LIBCMT:initializers.obj
 0002:00000220       __xi_a                     0000000180081220     LIBCMT:initializers.obj
 0002:00000330       __acrt_tran_fma3_initializer 0000000180081330     libucrt:fma3_initializer.obj
 0002:00000340       __acrt_multibyte_initializer 0000000180081340     libucrt:multibyte_initializer.obj
 0002:00000350       __acrt_stdio_initializer   0000000180081350     libucrt:stdio_initializer.obj
 0002:00000460       __xi_z                     0000000180081460     LIBCMT:initializers.obj
 0002:00000570       __xp_a                     0000000180081570     LIBCMT:initializers.obj
 0002:00000680       __acrt_locale_terminator   0000000180081680     libucrt:locale_initializer.obj
 0002:00000690       __dcrt_console_output_terminator 0000000180081690     libucrt:console_output_initializer.obj
 0002:000007a0       __acrt_stdio_terminator    00000001800817a0     libucrt:stdio_initializer.obj
 0002:000008b0       __xp_z                     00000001800818b0     LIBCMT:initializers.obj
 0002:000009c0       __xt_a                     00000001800819c0     LIBCMT:initializers.obj
 0002:00000ad0       __xt_z                     0000000180081ad0     LIBCMT:initializers.obj
 0002:00000c14       __real@40800000            0000000180081c14     handmade.obj
 0002:00000c18       __real@40c90fdb            0000000180081c18     handmade.obj
 0002:00000c1c       __real@43000000            0000000180081c1c     handmade.obj
 0002:00000c20       _pDefaultRawDllMain        0000000180081c20     LIBCMT:dll_dllmain.obj
 0002:00000c20       _pRawDllMain               0000000180081c20     LIBCMT:dll_dllmain.obj
 0002:00000c30       __xmm@ffffffffffffffffffffffffffffffff 0000000180081c30     LIBCMT:utility.obj
 0002:00000c48       _pDestructExceptionObject  0000000180081c48     libvcruntime:ehhelpers.obj
 0002:000014e0       ??_C@_08EHJDFFNH@__based?$CI@ 00000001800824e0     libvcruntime:undname.obj
 0002:000014f0       ??_C@_07KOLFKCDI@__cdecl@  00000001800824f0     libvcruntime:undname.obj
 0002:00001500       ??_C@_08GHMPAG@__pascal@   0000000180082500     libvcruntime:undname.obj
 0002:00001510       ??_C@_09IFJBGAPI@__stdcall@ 0000000180082510     libvcruntime:undname.obj
 0002:00001520       ??_C@_0L@NPHFGOKO@__thiscall@ 0000000180082520     libvcruntime:undname.obj
 0002:00001530       ??_C@_0L@JMKHOMEK@__fastcall@ 0000000180082530     libvcruntime:undname.obj
 0002:00001540       ??_C@_0N@BCKKPABJ@__vectorcall@ 0000000180082540     libvcruntime:undname.obj
 0002:00001550       ??_C@_09HIJEGCPM@__clrcall@ 0000000180082550     libvcruntime:undname.obj
 0002:0000155c       ??_C@_06GHPCKEAG@__eabi@   000000018008255c     libvcruntime:undname.obj
 0002:00001568       ??_C@_09IOPIDJLG@__swift_1@ 0000000180082568     libvcruntime:undname.obj
 0002:00001578       ??_C@_09KFNFGKHF@__swift_2@ 0000000180082578     libvcruntime:undname.obj
 0002:00001588       ??_C@_09LMMOFLDE@__swift_3@ 0000000180082588     libvcruntime:undname.obj
 0002:00001598       ??_C@_07JOMMBBKO@__ptr64@  0000000180082598     libvcruntime:undname.obj
 0002:000015a8       ??_C@_0L@PILCLIHE@__restrict@ 00000001800825a8     libvcruntime:undname.obj
 0002:000015b8       ??_C@_0M@GFIIJFMG@__unaligned@ 00000001800825b8     libvcruntime:undname.obj
 0002:000015c8       ??_C@_09DHDLOLLB@restrict?$CI@ 00000001800825c8     libvcruntime:undname.obj
 0002:000015d4       ??_C@_00CNPNBAHC@@         00000001800825d4     libvcruntime:undname.obj
 0002:000015d8       ??_C@_04NIHEBCM@?5new@     00000001800825d8     libvcruntime:undname.obj
 0002:000015e0       ??_C@_07FPCDHGMM@?5delete@ 00000001800825e0     libvcruntime:undname.obj
 0002:000015ec       ??_C@_01NEMOKFLO@?$DN@     00000001800825ec     libvcruntime:undname.obj
 0002:000015f0       ??_C@_02GPIOPFAK@?$DO?$DO@ 00000001800825f0     libvcruntime:undname.obj
 0002:000015f4       ??_C@_02FODMEDOG@?$DM?$DM@ 00000001800825f4     libvcruntime:undname.obj
 0002:000015f8       ??_C@_01DCLJPIOD@?$CB@     00000001800825f8     libvcruntime:undname.obj
 0002:000015fc       ??_C@_02EGOFBIJA@?$DN?$DN@ 00000001800825fc     libvcruntime:undname.obj
 0002:00001600       ??_C@_02FDNJECIE@?$CB?$DN@ 0000000180082600     libvcruntime:undname.obj
 0002:00001604       ??_C@_02GPECMEKF@?$FL?$FN@ 0000000180082604     libvcruntime:undname.obj
 0002:00001608       ??_C@_08LHJFAFGD@operator@ 0000000180082608     libvcruntime:undname.obj
 0002:00001614       ??_C@_02HBOOOICD@?9?$DO@   0000000180082614     libvcruntime:undname.obj
 0002:00001618       ??_C@_01NBENCBCI@?$CK@     0000000180082618     libvcruntime:undname.obj
 0002:0000161c       ??_C@_02ECNGHCIF@?$CL?$CL@ 000000018008261c     libvcruntime:undname.obj
 0002:00001620       ??_C@_02BAABKJLB@?9?9@     0000000180082620     libvcruntime:undname.obj
 0002:00001624       ??_C@_01JOAMLHOP@?9@       0000000180082624     libvcruntime:undname.obj
 0002:00001628       ??_C@_01MIFGBAGJ@?$CL@     0000000180082628     libvcruntime:undname.obj
 0002:0000162c       ??_C@_01HNPIGOCE@?$CG@     000000018008262c     libvcruntime:undname.obj
 0002:00001630       ??_C@_03MNHNFDLC@?9?$DO?$CK@ 0000000180082630     libvcruntime:undname.obj
 0002:00001634       ??_C@_01KMDKNFGN@?1@       0000000180082634     libvcruntime:undname.obj
 0002:00001638       ??_C@_01FGNFDNOH@?$CF@     0000000180082638     libvcruntime:undname.obj
 0002:0000163c       ??_C@_01MNNFJEPP@?$DM@     000000018008263c     libvcruntime:undname.obj
 0002:00001640       ??_C@_02EHCHHCKH@?$DM?$DN@ 0000000180082640     libvcruntime:undname.obj
 0002:00001644       ??_C@_01PPODPGHN@?$DO@     0000000180082644     libvcruntime:undname.obj
 0002:00001648       ??_C@_02EEKDKGMJ@?$DO?$DN@ 0000000180082648     libvcruntime:undname.obj
 0002:0000164c       ??_C@_01IHBHIGKO@?0@       000000018008264c     libvcruntime:undname.obj
 0002:00001650       ??_C@_02HCKGKOFO@?$CI?$CJ@ 0000000180082650     libvcruntime:undname.obj
 0002:00001654       ??_C@_01PJKLJHI@?$HO@      0000000180082654     libvcruntime:undname.obj
 0002:00001658       ??_C@_01JKBOJNNK@?$FO@     0000000180082658     libvcruntime:undname.obj
 0002:0000165c       ??_C@_01DNKMNLPK@?$HM@     000000018008265c     libvcruntime:undname.obj
 0002:00001660       ??_C@_02PPKAJPJL@?$CG?$CG@ 0000000180082660     libvcruntime:undname.obj
 0002:00001664       ??_C@_02NONPIBCD@?$HM?$HM@ 0000000180082664     libvcruntime:undname.obj
 0002:00001668       ??_C@_02FPIMKNGF@?$CK?$DN@ 0000000180082668     libvcruntime:undname.obj
 0002:0000166c       ??_C@_02FOEOMHFC@?$CL?$DN@ 000000018008266c     libvcruntime:undname.obj
 0002:00001670       ??_C@_02FKMDLLOA@?9?$DN@   0000000180082670     libvcruntime:undname.obj
 0002:00001674       ??_C@_02FJEHGPIO@?1?$DN@   0000000180082674     libvcruntime:undname.obj
 0002:00001678       ??_C@_02FENAOKFI@?$CF?$DN@ 0000000180082678     libvcruntime:undname.obj
 0002:0000167c       ??_C@_03IKFCCPFF@?$DO?$DO?$DN@ 000000018008267c     libvcruntime:undname.obj
 0002:00001680       ??_C@_03CDNPDDLA@?$DM?$DM?$DN@ 0000000180082680     libvcruntime:undname.obj
 0002:00001684       ??_C@_02FGJGFEAB@?$CG?$DN@ 0000000180082684     libvcruntime:undname.obj
 0002:00001688       ??_C@_02DHLNPPGH@?$HM?$DN@ 0000000180082688     libvcruntime:undname.obj
 0002:0000168c       ??_C@_02MHEGNOJ@?$FO?$DN@  000000018008268c     libvcruntime:undname.obj
 0002:00001690       ??_C@_09IFPLHPGF@?$GAvftable?8@ 0000000180082690     libvcruntime:undname.obj
 0002:000016a0       ??_C@_09BLBHBJP@?$GAvbtable?8@ 00000001800826a0     libvcruntime:undname.obj
 0002:000016b0       ??_C@_07FEEIOKP@?$GAvcall?8@ 00000001800826b0     libvcruntime:undname.obj
 0002:000016c0       ??_C@_08LLFFHHDJ@?$GAtypeof?8@ 00000001800826c0     libvcruntime:undname.obj
 0002:000016d0       ??_C@_0BF@KDPPACIK@?$GAlocal?5static?5guard?8@ 00000001800826d0     libvcruntime:undname.obj
 0002:000016f0       ??_C@_08OBABFOLI@?$GAstring?8@ 00000001800826f0     libvcruntime:undname.obj
 0002:00001700       ??_C@_0BD@JDLKDPAB@?$GAvbase?5destructor?8@ 0000000180082700     libvcruntime:undname.obj
 0002:00001718       ??_C@_0BN@DEGPLNFK@?$GAvector?5deleting?5destructor?8@ 0000000180082718     libvcruntime:undname.obj
 0002:00001740       ??_C@_0BO@OBMKPJIG@?$GAdefault?5constructor?5closure?8@ 0000000180082740     libvcruntime:undname.obj
 0002:00001768       ??_C@_0BN@IMDCHIKM@?$GAscalar?5deleting?5destructor?8@ 0000000180082768     libvcruntime:undname.obj
 0002:00001790       ??_C@_0BO@PFGOCPJJ@?$GAvector?5constructor?5iterator?8@ 0000000180082790     libvcruntime:undname.obj
 0002:000017b8       ??_C@_0BN@LFPFMEDL@?$GAvector?5destructor?5iterator?8@ 00000001800827b8     libvcruntime:undname.obj
 0002:000017e0       ??_C@_0CE@IKBNEHA@?$GAvector?5vbase?5constructor?5itera@ 00000001800827e0     libvcruntime:undname.obj
 0002:00001810       ??_C@_0BL@NILFHHPC@?$GAvirtual?5displacement?5map?8@ 0000000180082810     libvcruntime:undname.obj
 0002:00001830       ??_C@_0CB@JONCMFFK@?$GAeh?5vector?5constructor?5iterator@ 0000000180082830     libvcruntime:undname.obj
 0002:00001858       ??_C@_0CA@GCEOPDGL@?$GAeh?5vector?5destructor?5iterator?8@ 0000000180082858     libvcruntime:undname.obj
 0002:00001880       ??_C@_0CH@OOJPLCPH@?$GAeh?5vector?5vbase?5constructor?5it@ 0000000180082880     libvcruntime:undname.obj
 0002:000018b0       ??_C@_0BL@LLKPOHJI@?$GAcopy?5constructor?5closure?8@ 00000001800828b0     libvcruntime:undname.obj
 0002:000018d0       ??_C@_0BA@KBCDOMBN@?$GAudt?5returning?8@ 00000001800828d0     libvcruntime:undname.obj
 0002:000018e4       ??_C@_03KLGMFNMG@?$GAEH@   00000001800828e4     libvcruntime:undname.obj
 0002:000018e8       ??_C@_05KHLCHHI@?$GARTTI@  00000001800828e8     libvcruntime:undname.obj
 0002:000018f0       ??_C@_0BA@KKLDJDLB@?$GAlocal?5vftable?8@ 00000001800828f0     libvcruntime:undname.obj
 0002:00001908       ??_C@_0CE@IIHCMGGL@?$GAlocal?5vftable?5constructor?5clos@ 0000000180082908     libvcruntime:undname.obj
 0002:00001934       ??_C@_06FHBGPFGH@?5new?$FL?$FN@ 0000000180082934     libvcruntime:undname.obj
 0002:00001940       ??_C@_09LBNFPBCA@?5delete?$FL?$FN@ 0000000180082940     libvcruntime:undname.obj
 0002:00001950       ??_C@_0P@HJKNJFNN@?$GAomni?5callsig?8@ 0000000180082950     libvcruntime:undname.obj
 0002:00001968       ??_C@_0BL@CNOONJFP@?$GAplacement?5delete?5closure?8@ 0000000180082968     libvcruntime:undname.obj
 0002:00001988       ??_C@_0BN@CKNJLHMB@?$GAplacement?5delete?$FL?$FN?5closure?8@ 0000000180082988     libvcruntime:undname.obj
 0002:000019b0       ??_C@_0CG@CFDHKGGD@?$GAmanaged?5vector?5constructor?5ite@ 00000001800829b0     libvcruntime:undname.obj
 0002:000019e0       ??_C@_0CF@IMGKMJNO@?$GAmanaged?5vector?5destructor?5iter@ 00000001800829e0     libvcruntime:undname.obj
 0002:00001a10       ??_C@_0CG@HLDDJMAG@?$GAeh?5vector?5copy?5constructor?5ite@ 0000000180082a10     libvcruntime:undname.obj
 0002:00001a40       ??_C@_0CM@FCBBDIGB@?$GAeh?5vector?5vbase?5copy?5construct@ 0000000180082a40     libvcruntime:undname.obj
 0002:00001a78       ??_C@_0BL@CLIPGLGB@?$GAdynamic?5initializer?5for?5?8@ 0000000180082a78     libvcruntime:undname.obj
 0002:00001a98       ??_C@_0CB@PDBIFEP@?$GAdynamic?5atexit?5destructor?5for?5@ 0000000180082a98     libvcruntime:undname.obj
 0002:00001ac0       ??_C@_0CD@CGAJBKEJ@?$GAvector?5copy?5constructor?5iterat@ 0000000180082ac0     libvcruntime:undname.obj
 0002:00001af0       ??_C@_0CJ@GJELGAMM@?$GAvector?5vbase?5copy?5constructor?5@ 0000000180082af0     libvcruntime:undname.obj
 0002:00001b28       ??_C@_0CL@FGIJHLCE@?$GAmanaged?5vector?5copy?5constructo@ 0000000180082b28     libvcruntime:undname.obj
 0002:00001b60       ??_C@_0BM@PMGGMLDN@?$GAlocal?5static?5thread?5guard?8@ 0000000180082b60     libvcruntime:undname.obj
 0002:00001b88       ??_C@_0N@BDNMDMOL@operator?5?$CC?$CC?5@ 0000000180082b88     libvcruntime:undname.obj
 0002:00001b98       ??_C@_0BC@GGEBGALA@operator?5co_await@ 0000000180082b98     libvcruntime:undname.obj
 0002:00001bb0       ??_C@_0M@GAAIMMOH@operator?$DM?$DN?$DO@ 0000000180082bb0     libvcruntime:undname.obj
 0002:00001bc0       ??_C@_0BC@DAFEJGAK@?5Type?5Descriptor?8@ 0000000180082bc0     libvcruntime:undname.obj
 0002:00001bd8       ??_C@_0BM@LDKODKLH@?5Base?5Class?5Descriptor?5at?5?$CI@ 0000000180082bd8     libvcruntime:undname.obj
 0002:00001c00       ??_C@_0BD@LGICGFMM@?5Base?5Class?5Array?8@ 0000000180082c00     libvcruntime:undname.obj
 0002:00001c18       ??_C@_0BN@MECKDCOJ@?5Class?5Hierarchy?5Descriptor?8@ 0000000180082c18     libvcruntime:undname.obj
 0002:00001c40       ??_C@_0BK@CFCOFLF@?5Complete?5Object?5Locator?8@ 0000000180082c40     libvcruntime:undname.obj
 0002:00001c60       ??_C@_0BG@JNJLAMPM@?$GAanonymous?5namespace?8@ 0000000180082c60     libvcruntime:undname.obj
 0002:00001c7c       ??_C@_04HEJADOOB@CV?3?5@   0000000180082c7c     libvcruntime:undname.obj
 0002:00001c84       ??_C@_02MOLJINC@?3?3@      0000000180082c84     libvcruntime:undname.obj
 0002:00001c88       ??_C@_0BE@JAEOCHPE@template?9parameter?9@ 0000000180082c88     libvcruntime:undname.obj
 0002:00001ca0       ??_C@_0BF@LNLGBBNL@?$GAtemplate?9parameter?9@ 0000000180082ca0     libvcruntime:undname.obj
 0002:00001cc0       ??_C@_0O@KHGCOMHP@generic?9type?9@ 0000000180082cc0     libvcruntime:undname.obj
 0002:00001cd0       ??_C@_0P@ODDENDLM@?$GAgeneric?9type?9@ 0000000180082cd0     libvcruntime:undname.obj
 0002:00001ce4       ??_C@_02OHHJMEON@?8?8@     0000000180082ce4     libvcruntime:undname.obj
 0002:00001ce8       ??_C@_0BN@IBLMMFAP@?$GAnon?9type?9template?9parameter@ 0000000180082ce8     libvcruntime:undname.obj
 0002:00001d0c       ??_C@_03DLDNIBIK@?$CFlf@   0000000180082d0c     libvcruntime:undname.obj
 0002:00001d10       ??_C@_04OFALKAJ@?$DP?$DP_C@ 0000000180082d10     libvcruntime:undname.obj
 0002:00001d18       ??_C@_03KHICJKCI@?4?4?4@   0000000180082d18     libvcruntime:undname.obj
 0002:00001d1c       ??_C@_04HIBGFPH@NULL@      0000000180082d1c     libvcruntime:undname.obj
 0002:00001d24       ??_C@_02DPKJAMEF@?$CFd@    0000000180082d24     libvcruntime:undname.obj
 0002:00001d28       ??_C@_0BK@IHCCFNEL@?$GAtemplate?9type?9parameter?9@ 0000000180082d28     libvcruntime:undname.obj
 0002:00001d48       ??_C@_0BK@OFCNNNKO@?$GAgeneric?9class?9parameter?9@ 0000000180082d48     libvcruntime:undname.obj
 0002:00001d68       ??_C@_0BL@NGJBLFIL@?$GAgeneric?9method?9parameter?9@ 0000000180082d68     libvcruntime:undname.obj
 0002:00001d88       ??_C@_07OHNGEDJK@nullptr@  0000000180082d88     libvcruntime:undname.obj
 0002:00001d94       ??_C@_06COJIGPIB@lambda@   0000000180082d94     libvcruntime:undname.obj
 0002:00001d9c       ??_C@_04GKJNKENE@void@     0000000180082d9c     libvcruntime:undname.obj
 0002:00001da8       ??_C@_0BE@EODMJLIF@?$GAtemplate?9parameter@ 0000000180082da8     libvcruntime:undname.obj
 0002:00001dc0       ??_C@_03OPGICMGF@?$HN?8?5@ 0000000180082dc0     libvcruntime:undname.obj
 0002:00001dc4       ??_C@_02IGFCGPIL@?$HN?8@   0000000180082dc4     libvcruntime:undname.obj
 0002:00001dc8       ??_C@_0N@CBHHHENL@?$GAvtordispex?$HL@ 0000000180082dc8     libvcruntime:undname.obj
 0002:00001dd8       ??_C@_0L@GHPFDFH@?$GAvtordisp?$HL@ 0000000180082dd8     libvcruntime:undname.obj
 0002:00001de8       ??_C@_0L@HNGCOGAE@?$GAadjustor?$HL@ 0000000180082de8     libvcruntime:undname.obj
 0002:00001df8       ??_C@_0CB@KJDOOODE@?$GAlocal?5static?5destructor?5helper@ 0000000180082df8     libvcruntime:undname.obj
 0002:00001e20       ??_C@_0DB@ILEFOCIJ@?$GAtemplate?5static?5data?5member?5co@ 0000000180082e20     libvcruntime:undname.obj
 0002:00001e60       ??_C@_0DA@HGFJFBBE@?$GAtemplate?5static?5data?5member?5de@ 0000000180082e60     libvcruntime:undname.obj
 0002:00001ea0       ??_C@_07PGOEDBHP@static?5@ 0000000180082ea0     libvcruntime:undname.obj
 0002:00001eb0       ??_C@_08NIEOINHE@virtual?5@ 0000000180082eb0     libvcruntime:undname.obj
 0002:00001ec0       ??_C@_09LAPHOOG@private?3?5@ 0000000180082ec0     libvcruntime:undname.obj
 0002:00001ed0       ??_C@_0M@GAIFPFIP@protected?3?5@ 0000000180082ed0     libvcruntime:undname.obj
 0002:00001ee0       ??_C@_08GPDDCMKI@public?3?5@ 0000000180082ee0     libvcruntime:undname.obj
 0002:00001ef0       ??_C@_08KJLFOPNE@?$FLthunk?$FN?3@ 0000000180082ef0     libvcruntime:undname.obj
 0002:00001f00       ??_C@_0M@DHNBOJMP@extern?5?$CCC?$CC?5@ 0000000180082f00     libvcruntime:undname.obj
 0002:00001f10       ??_C@_02KCKGHPCA@?$CJ?5@   0000000180082f10     libvcruntime:undname.obj
 0002:00001f14       ??_C@_05CIHEBHNO@char?5@   0000000180082f14     libvcruntime:undname.obj
 0002:00001f1c       ??_C@_06EHJMALKF@short?5@  0000000180082f1c     libvcruntime:undname.obj
 0002:00001f24       ??_C@_04LAHKHJMA@int?5@    0000000180082f24     libvcruntime:undname.obj
 0002:00001f2c       ??_C@_05CJIMAING@long?5@   0000000180082f2c     libvcruntime:undname.obj
 0002:00001f38       ??_C@_09EBBEKKIH@unsigned?5@ 0000000180082f38     libvcruntime:undname.obj
 0002:00001f44       ??_C@_05BEFAKPML@void?5@   0000000180082f44     libvcruntime:undname.obj
 0002:00001f50       ??_C@_09GAIEOBLP@volatile?5@ 0000000180082f50     libvcruntime:undname.obj
 0002:00001f60       ??_C@_08PABEKFH@volatile@  0000000180082f60     libvcruntime:undname.obj
 0002:00001f70       ??_C@_0BA@LKIJLKPP@std?3?3nullptr_t?5@ 0000000180082f70     libvcruntime:undname.obj
 0002:00001f88       ??_C@_0P@GCOCNKDM@std?3?3nullptr_t@ 0000000180082f88     libvcruntime:undname.obj
 0002:00001fa0       ??_C@_0L@EGPHHEKN@?$DMellipsis?$DO@ 0000000180082fa0     libvcruntime:undname.obj
 0002:00001fb0       ??_C@_04EENFHACM@?0?4?4?4@ 0000000180082fb0     libvcruntime:undname.obj
 0002:00001fb8       ??_C@_0M@ELJOJFFH@?0?$DMellipsis?$DO@ 0000000180082fb8     libvcruntime:undname.obj
 0002:00001fc8       ??_C@_09DNHFEOJI@?5noexcept@ 0000000180082fc8     libvcruntime:undname.obj
 0002:00001fd4       ??_C@_03PBJBJNON@cpu@      0000000180082fd4     libvcruntime:undname.obj
 0002:00001fd8       ??_C@_03DCBBJBAA@amp@      0000000180082fd8     libvcruntime:undname.obj
 0002:00001fdc       ??_C@_02KEGNLNML@?0?5@     0000000180082fdc     libvcruntime:undname.obj
 0002:00001fe0       ??_C@_04ENMBGAPA@char@     0000000180082fe0     libvcruntime:undname.obj
 0002:00001fe8       ??_C@_05BFKKPKCG@short@    0000000180082fe8     libvcruntime:undname.obj
 0002:00001ff0       ??_C@_03JBIPMCLC@int@      0000000180082ff0     libvcruntime:undname.obj
 0002:00001ff4       ??_C@_04GOKPGOLB@long@     0000000180082ff4     libvcruntime:undname.obj
 0002:00001ffc       ??_C@_05KNFBNCOH@float@    0000000180082ffc     libvcruntime:undname.obj
 0002:00002004       ??_C@_06BNJCAIGJ@double@   0000000180083004     libvcruntime:undname.obj
 0002:0000200c       ??_C@_04DDKJGDCM@bool@     000000018008300c     libvcruntime:undname.obj
 0002:00002014       ??_C@_06EBGKOKIG@__int8@   0000000180083014     libvcruntime:undname.obj
 0002:00002020       ??_C@_07ICFHOGAF@__int16@  0000000180083020     libvcruntime:undname.obj
 0002:00002030       ??_C@_07OFLPPHGP@__int32@  0000000180083030     libvcruntime:undname.obj
 0002:00002040       ??_C@_07LFCOJCAC@__int64@  0000000180083040     libvcruntime:undname.obj
 0002:00002050       ??_C@_08GAHOLHEO@__int128@ 0000000180083050     libvcruntime:undname.obj
 0002:00002060       ??_C@_09EEKGDCPH@?$DMunknown?$DO@ 0000000180083060     libvcruntime:undname.obj
 0002:00002070       ??_C@_07CFHGOPCN@char8_t@  0000000180083070     libvcruntime:undname.obj
 0002:00002080       ??_C@_08HBIPOFJB@char16_t@ 0000000180083080     libvcruntime:undname.obj
 0002:00002090       ??_C@_08IECNCBKG@char32_t@ 0000000180083090     libvcruntime:undname.obj
 0002:000020a0       ??_C@_07CLGGIAMF@wchar_t@  00000001800830a0     libvcruntime:undname.obj
 0002:000020ac       ??_C@_04HAPDLBFF@auto@     00000001800830ac     libvcruntime:undname.obj
 0002:000020b8       ??_C@_0P@LHCGKIGK@decltype?$CIauto?$CJ@ 00000001800830b8     libvcruntime:undname.obj
 0002:000020cc       ??_C@_05PCNBGHCF@this?5@   00000001800830cc     libvcruntime:undname.obj
 0002:000020d4       ??_C@_06GCICPBLB@__w64?5@  00000001800830d4     libvcruntime:undname.obj
 0002:000020e0       ??_C@_07NFANNNEC@UNKNOWN@  00000001800830e0     libvcruntime:undname.obj
 0002:000020f0       ??_C@_07EDHNAJHC@signed?5@ 00000001800830f0     libvcruntime:undname.obj
 0002:000020fc       ??_C@_05BNCCCJPP@const@    00000001800830fc     libvcruntime:undname.obj
 0002:00002108       ??_C@_09EFNPDFFP@?5volatile@ 0000000180083108     libvcruntime:undname.obj
 0002:00002118       ??_C@_0P@GCIFDJCJ@?$GAunknown?5ecsu?8@ 0000000180083118     libvcruntime:undname.obj
 0002:0000212c       ??_C@_06MOJHIBMG@union?5@  000000018008312c     libvcruntime:undname.obj
 0002:00002138       ??_C@_07DIBCDNGL@struct?5@ 0000000180083138     libvcruntime:undname.obj
 0002:00002144       ??_C@_06LJBABKPM@class?5@  0000000180083144     libvcruntime:undname.obj
 0002:00002150       ??_C@_08KOFANOFK@coclass?5@ 0000000180083150     libvcruntime:undname.obj
 0002:00002160       ??_C@_0N@DLIEFKNA@cointerface?5@ 0000000180083160     libvcruntime:undname.obj
 0002:00002170       ??_C@_05LJGMCFOG@enum?5@   0000000180083170     libvcruntime:undname.obj
 0002:00002178       ??_C@_06LIJLOJAG@const?5@  0000000180083178     libvcruntime:undname.obj
 0002:00002180       ??_C@_02KJPKDIBN@?$CG?5@   0000000180083180     libvcruntime:undname.obj
 0002:00002184       ??_C@_03PCKGMOPB@?$CG?$CG?5@ 0000000180083184     libvcruntime:undname.obj
 0002:00002188       ??_C@_0M@EALIELKG@cli?3?3array?$DM@ 0000000180083188     libvcruntime:undname.obj
 0002:00002198       ??_C@_0O@GKABPPIF@cli?3?3pin_ptr?$DM@ 0000000180083198     libvcruntime:undname.obj
 0002:000021a8       ??_C@_02GOGNNPBN@?$CJ?$FL@ 00000001800831a8     libvcruntime:undname.obj
 0002:000021ac       ??_C@_06EEGAIFAK@?$HLflat?$HN@ 00000001800831ac     libvcruntime:undname.obj
 0002:000021b4       ??_C@_05JIBOFOHK@?$HLfor?5@ 00000001800831b4     libvcruntime:undname.obj
 0002:000021bc       ??_C@_02MDINNEEG@s?5@      00000001800831bc     libvcruntime:undname.obj
 0002:000021c8       ??_7DNameNode@@6B@         00000001800831c8     libvcruntime:undname.obj
 0002:000021f8       ??_7charNode@@6B@          00000001800831f8     libvcruntime:undname.obj
 0002:00002228       ??_7pcharNode@@6B@         0000000180083228     libvcruntime:undname.obj
 0002:00002258       ??_7pDNameNode@@6B@        0000000180083258     libvcruntime:undname.obj
 0002:00002288       ??_7DNameStatusNode@@6B@   0000000180083288     libvcruntime:undname.obj
 0002:000022b8       ??_7pairNode@@6B@          00000001800832b8     libvcruntime:undname.obj
 0002:00002414       ??_C@_04OKOHEJBO@?5?$DP?$DP?5@ 0000000180083414     libvcruntime:undname.obj
 0002:00002420       ?nodes@?1??make@DNameStatusNode@@SAPEBV2@W4DNameStatus@@@Z@4QBV2@B 0000000180083420     libvcruntime:undname.obj
 0002:00002470       ?s_negLengthTab@FH4@@3QBCB 0000000180083470     libvcruntime:risctrnsctrl.obj
 0002:00002488       ?s_shiftTab@FH4@@3QBEB     0000000180083488     libvcruntime:risctrnsctrl.obj
 0002:00002638       ??_C@_1DM@KHCHBNEB@?$AAa?$AAp?$AAi?$AA?9?$AAm?$AAs?$AA?9?$AAw?$AAi?$AAn?$AA?9?$AAc?$AAo?$AAr?$AAe@ 0000000180083638     libvcruntime:winapi_downlevel.obj
 0002:00002680       ??_C@_1DK@LPPGFMPP@?$AAa?$AAp?$AAi?$AA?9?$AAm?$AAs?$AA?9?$AAw?$AAi?$AAn?$AA?9?$AAc?$AAo?$AAr?$AAe@ 0000000180083680     libvcruntime:winapi_downlevel.obj
 0002:000026c8       ??_C@_1BC@GDMECMAK@?$AAk?$AAe?$AAr?$AAn?$AAe?$AAl?$AA3?$AA2@ 00000001800836c8     libvcruntime:winapi_downlevel.obj
 0002:000026e0       ??_C@_1BA@PFFKHIOG@?$AAa?$AAp?$AAi?$AA?9?$AAm?$AAs?$AA?9@ 00000001800836e0     libvcruntime:winapi_downlevel.obj
 0002:00002708       ??_C@_08KNHFBNJ@FlsAlloc@  0000000180083708     libvcruntime:winapi_downlevel.obj
 0002:00002728       ??_C@_07PEJMOBNF@FlsFree@  0000000180083728     libvcruntime:winapi_downlevel.obj
 0002:00002748       ??_C@_0M@GDNOONDI@FlsGetValue@ 0000000180083748     libvcruntime:winapi_downlevel.obj
 0002:00002768       ??_C@_0M@JCPCPOEF@FlsSetValue@ 0000000180083768     libvcruntime:winapi_downlevel.obj
 0002:00002788       ??_C@_0BM@HCFOFFN@InitializeCriticalSectionEx@ 0000000180083788     libvcruntime:winapi_downlevel.obj
 0002:000027b8       ??_7exception@std@@6B@     00000001800837b8     libvcruntime:frame.obj
 0002:000027d0       ??_C@_0BC@EOODALEL@Unknown?5exception@ 00000001800837d0     libvcruntime:frame.obj
 0002:000027f0       ??_7bad_exception@std@@6B@ 00000001800837f0     libvcruntime:frame.obj
 0002:00002808       ??_C@_0O@DPKOEFFH@bad?5exception@ 0000000180083808     libvcruntime:frame.obj
 0002:00002990       __acrt_exception_action_table 0000000180083990     libucrt:exception_filter.obj
 0002:00002a78       __acrt_signal_action_table_count 0000000180083a78     libucrt:exception_filter.obj
 0002:00002a88       __acrt_signal_action_table_size 0000000180083a88     libucrt:exception_filter.obj
 0002:00002a98       __acrt_signal_action_first_fpe_index 0000000180083a98     libucrt:exception_filter.obj
 0002:00002aa8       __acrt_signal_action_fpe_count 0000000180083aa8     libucrt:exception_filter.obj
 0002:00002b48       ??_C@_1BI@BGOHAHKC@?$AAm?$AAs?$AAc?$AAo?$AAr?$AAe?$AAe?$AA?4?$AAd?$AAl?$AAl@ 0000000180083b48     libucrt:exit.obj
 0002:00002b68       ??_C@_0P@MIGLKIOC@CorExitProcess@ 0000000180083b68     libucrt:exit.obj
 0002:00002da8       _Fenv1                     0000000180083da8     libucrt:output.obj
 0002:00002dc0       ?standard_lookup_table_spectre@__crt_stdio_output@@3V?$spectre_mitigated_lookup_table@Ustate_transition_pair@__crt_stdio_output@@$0IA@@1@B 0000000180083dc0     libucrt:output.obj
 0002:00002f00       ?format_validation_lookup_table_spectre@__crt_stdio_output@@3V?$spectre_mitigated_lookup_table@Ustate_transition_pair@__crt_stdio_output@@$0IA@@1@B 0000000180083f00     libucrt:output.obj
 0002:00003038       ??_C@_1O@CEDCILHN@?$AA?$CI?$AAn?$AAu?$AAl?$AAl?$AA?$CJ@ 0000000180084038     libucrt:output.obj
 0002:00003048       ??_C@_06OJHGLDPL@?$CInull?$CJ@ 0000000180084048     libucrt:output.obj
 0002:00003050       __Lcosfarray               0000000180084050     libucrt:lsincosf_array.obj
 0002:00003080       __Lsinfarray               0000000180084080     libucrt:lsincosf_array.obj
 0002:000030b0       __L_2_by_pi_bits           00000001800840b0     libucrt:l2_by_pi_bits.obj
 0002:00003240       ??_C@_04LAGPAAHP@sinf@     0000000180084240     libucrt:sincos_special.obj
 0002:00003248       ??_C@_03BLEJJJBH@sin@      0000000180084248     libucrt:sincos_special.obj
 0002:0000324c       ??_C@_04OBBKPIAC@cosf@     000000018008424c     libucrt:sincos_special.obj
 0002:00003254       ??_C@_03LALBNOCG@cos@      0000000180084254     libucrt:sincos_special.obj
 0002:00003258       ??_C@_03IIINPABG@tan@      0000000180084258     libucrt:sincos_special.obj
 0002:0000325c       ??_C@_04MHPLPEIA@tanf@     000000018008425c     libucrt:sincos_special.obj
 0002:00003268       RtlNtPathSeperatorString   0000000180084268     libucrt:peb_access.obj
 0002:0000327c       ??_C@_13FPGAJAPJ@?$AA?2@   000000018008427c     libucrt:peb_access.obj
 0002:00003280       RtlDosPathSeperatorsString 0000000180084280     libucrt:peb_access.obj
 0002:00003294       ??_C@_15MNCACJLI@?$AA?2?$AA?1@ 0000000180084294     libucrt:peb_access.obj
 0002:000032a0       RtlAlternateDosPathSeperatorString 00000001800842a0     libucrt:peb_access.obj
 0002:000032b4       ??_C@_13CGOKJPIL@?$AA?1@   00000001800842b4     libucrt:peb_access.obj
 0002:00003498       ??_C@_1M@HPNHIDJI@?$AAj?$AAa?$AA?9?$AAJ?$AAP@ 0000000180084498     libucrt:mbctype.obj
 0002:000034a8       ??_C@_1M@BIBDDEMK@?$AAz?$AAh?$AA?9?$AAC?$AAN@ 00000001800844a8     libucrt:mbctype.obj
 0002:000034b8       ??_C@_1M@JLOOOEGK@?$AAk?$AAo?$AA?9?$AAK?$AAR@ 00000001800844b8     libucrt:mbctype.obj
 0002:000034c8       ??_C@_1M@CLNBBOPM@?$AAz?$AAh?$AA?9?$AAT?$AAW@ 00000001800844c8     libucrt:mbctype.obj
 0002:000035b0       ??_C@_1EA@JGEFHKEI@?$AAa?$AAp?$AAi?$AA?9?$AAm?$AAs?$AA?9?$AAw?$AAi?$AAn?$AA?9?$AAc?$AAo?$AAr?$AAe@ 00000001800845b0     libucrt:winapi_thunks.obj
 0002:00003600       ??_C@_1DI@KMEPCBPN@?$AAa?$AAp?$AAi?$AA?9?$AAm?$AAs?$AA?9?$AAw?$AAi?$AAn?$AA?9?$AAc?$AAo?$AAr?$AAe@ 0000000180084600     libucrt:winapi_thunks.obj
 0002:00003648       ??_C@_1DI@IJCEHOCB@?$AAa?$AAp?$AAi?$AA?9?$AAm?$AAs?$AA?9?$AAw?$AAi?$AAn?$AA?9?$AAc?$AAo?$AAr?$AAe@ 0000000180084648     libucrt:winapi_thunks.obj
 0002:00003690       ??_C@_1EI@MPIAOHOC@?$AAa?$AAp?$AAi?$AA?9?$AAm?$AAs?$AA?9?$AAw?$AAi?$AAn?$AA?9?$AAc?$AAo?$AAr?$AAe@ 0000000180084690     libucrt:winapi_thunks.obj
 0002:000036f0       ??_C@_1FK@FPHCKFIE@?$AAa?$AAp?$AAi?$AA?9?$AAm?$AAs?$AA?9?$AAw?$AAi?$AAn?$AA?9?$AAc?$AAo?$AAr?$AAe@ 00000001800846f0     libucrt:winapi_thunks.obj
 0002:00003760       ??_C@_1EM@DILCGIIO@?$AAa?$AAp?$AAi?$AA?9?$AAm?$AAs?$AA?9?$AAw?$AAi?$AAn?$AA?9?$AAc?$AAo?$AAr?$AAe@ 0000000180084760     libucrt:winapi_thunks.obj
 0002:000037c0       ??_C@_1DM@LNCGDDPN@?$AAa?$AAp?$AAi?$AA?9?$AAm?$AAs?$AA?9?$AAw?$AAi?$AAn?$AA?9?$AAc?$AAo?$AAr?$AAe@ 00000001800847c0     libucrt:winapi_thunks.obj
 0002:00003808       ??_C@_1DO@FPAPJEMD@?$AAa?$AAp?$AAi?$AA?9?$AAm?$AAs?$AA?9?$AAw?$AAi?$AAn?$AA?9?$AAc?$AAo?$AAr?$AAe@ 0000000180084808     libucrt:winapi_thunks.obj
 0002:00003858       ??_C@_1DK@NDHNAHIO@?$AAa?$AAp?$AAi?$AA?9?$AAm?$AAs?$AA?9?$AAw?$AAi?$AAn?$AA?9?$AAc?$AAo?$AAr?$AAe@ 0000000180084858     libucrt:winapi_thunks.obj
 0002:000038a0       ??_C@_1DM@KGHDGBCM@?$AAa?$AAp?$AAi?$AA?9?$AAm?$AAs?$AA?9?$AAw?$AAi?$AAn?$AA?9?$AAc?$AAo?$AAr?$AAe@ 00000001800848a0     libucrt:winapi_thunks.obj
 0002:000038f0       ??_C@_1EO@IJIOEFOH@?$AAa?$AAp?$AAi?$AA?9?$AAm?$AAs?$AA?9?$AAw?$AAi?$AAn?$AA?9?$AAr?$AAt?$AAc?$AAo@ 00000001800848f0     libucrt:winapi_thunks.obj
 0002:00003950       ??_C@_1FG@HHGEKANL@?$AAa?$AAp?$AAi?$AA?9?$AAm?$AAs?$AA?9?$AAw?$AAi?$AAn?$AA?9?$AAs?$AAe?$AAc?$AAu@ 0000000180084950     libucrt:winapi_thunks.obj
 0002:000039c0       ??_C@_1EG@DBIOJECG@?$AAe?$AAx?$AAt?$AA?9?$AAm?$AAs?$AA?9?$AAw?$AAi?$AAn?$AA?9?$AAn?$AAt?$AAu?$AAs@ 00000001800849c0     libucrt:winapi_thunks.obj
 0002:00003a20       ??_C@_1EO@FIHMJCLF@?$AAe?$AAx?$AAt?$AA?9?$AAm?$AAs?$AA?9?$AAw?$AAi?$AAn?$AA?9?$AAn?$AAt?$AAu?$AAs@ 0000000180084a20     libucrt:winapi_thunks.obj
 0002:00003a80       ??_C@_1BC@DNHGCMLG@?$AAa?$AAd?$AAv?$AAa?$AAp?$AAi?$AA3?$AA2@ 0000000180084a80     libucrt:winapi_thunks.obj
 0002:00003a98       ??_C@_1BG@CJPGBMEF@?$AAk?$AAe?$AAr?$AAn?$AAe?$AAl?$AAb?$AAa?$AAs?$AAe@ 0000000180084a98     libucrt:winapi_thunks.obj
 0002:00003ab8       ??_C@_1M@OAIMIKLP@?$AAn?$AAt?$AAd?$AAl?$AAl@ 0000000180084ab8     libucrt:winapi_thunks.obj
 0002:00003ad0       ??_C@_1EG@DPGNFKGC@?$AAa?$AAp?$AAi?$AA?9?$AAm?$AAs?$AA?9?$AAw?$AAi?$AAn?$AA?9?$AAa?$AAp?$AAp?$AAm@ 0000000180084ad0     libucrt:winapi_thunks.obj
 0002:00003b28       ??_C@_1O@BCCLBEOE@?$AAu?$AAs?$AAe?$AAr?$AA3?$AA2@ 0000000180084b28     libucrt:winapi_thunks.obj
 0002:00003b38       ??_C@_1BA@IAIFMGEF@?$AAe?$AAx?$AAt?$AA?9?$AAm?$AAs?$AA?9@ 0000000180084b38     libucrt:winapi_thunks.obj
 0002:00003b50       ??_C@_0BA@FHFNEAED@AreFileApisANSI@ 0000000180084b50     libucrt:winapi_thunks.obj
 0002:00003b78       ??_C@_0BA@IHGNDAEB@CompareStringEx@ 0000000180084b78     libucrt:winapi_thunks.obj
 0002:00003ba0       ??_C@_0BE@LJANKFHF@EnumSystemLocalesEx@ 0000000180084ba0     libucrt:winapi_thunks.obj
 0002:00003bc8       ??_C@_0BA@HNOPNCHB@GetActiveWindow@ 0000000180084bc8     libucrt:winapi_thunks.obj
 0002:00003bf0       ??_C@_0BA@EPCJIIPD@GetDateFormatEx@ 0000000180084bf0     libucrt:winapi_thunks.obj
 0002:00003c18       ??_C@_0O@NNMIPI@GetTempPath2W@ 0000000180084c18     libucrt:winapi_thunks.obj
 0002:00003c38       ??_C@_0BJ@DIBIJBHA@GetEnabledXStateFeatures@ 0000000180084c38     libucrt:winapi_thunks.obj
 0002:00003c68       ??_C@_0BD@HHGDFDBJ@GetLastActivePopup@ 0000000180084c68     libucrt:winapi_thunks.obj
 0002:00003c90       ??_C@_0BA@ONOKGCMP@GetLocaleInfoEx@ 0000000180084c90     libucrt:winapi_thunks.obj
 0002:00003cb8       ??_C@_0BI@DFKBFLJE@GetProcessWindowStation@ 0000000180084cb8     libucrt:winapi_thunks.obj
 0002:00003cd8       ??_C@_0BP@FPNJPEJC@GetSystemTimePreciseAsFileTime@ 0000000180084cd8     libucrt:winapi_thunks.obj
 0002:00003d10       ??_C@_0BA@CIJJKCJJ@GetTimeFormatEx@ 0000000180084d10     libucrt:winapi_thunks.obj
 0002:00003d38       ??_C@_0BJ@PBCCBIPI@GetUserDefaultLocaleName@ 0000000180084d38     libucrt:winapi_thunks.obj
 0002:00003d68       ??_C@_0BK@DEKFELLI@GetUserObjectInformationW@ 0000000180084d68     libucrt:winapi_thunks.obj
 0002:00003d98       ??_C@_0BG@IKLDMBLM@GetXStateFeaturesMask@ 0000000180084d98     libucrt:winapi_thunks.obj
 0002:00003dd8       ??_C@_0BC@CELBKLLA@IsValidLocaleName@ 0000000180084dd8     libucrt:winapi_thunks.obj
 0002:00003e00       ??_C@_0O@KKBNKAPF@LCMapStringEx@ 0000000180084e00     libucrt:winapi_thunks.obj
 0002:00003e20       ??_C@_0BB@CDHDDLLP@LCIDToLocaleName@ 0000000180084e20     libucrt:winapi_thunks.obj
 0002:00003e48       ??_C@_0BB@HBDEELFH@LocaleNameToLCID@ 0000000180084e48     libucrt:winapi_thunks.obj
 0002:00003e70       ??_C@_0BE@KINNKFDA@LocateXStateFeature@ 0000000180084e70     libucrt:winapi_thunks.obj
 0002:00003e98       ??_C@_0M@CHKKJDAI@MessageBoxA@ 0000000180084e98     libucrt:winapi_thunks.obj
 0002:00003eb8       ??_C@_0M@DLDCCGNP@MessageBoxW@ 0000000180084eb8     libucrt:winapi_thunks.obj
 0002:00003ed0       ??_C@_0N@PPOMPGGK@RoInitialize@ 0000000180084ed0     libucrt:winapi_thunks.obj
 0002:00003ee8       ??_C@_0P@LLFHBIJD@RoUninitialize@ 0000000180084ee8     libucrt:winapi_thunks.obj
 0002:00003f00       ??_C@_0CF@OJOFEIGO@AppPolicyGetProcessTerminationM@ 0000000180084f00     libucrt:winapi_thunks.obj
 0002:00003f30       ??_C@_0CF@NNDFDCOC@AppPolicyGetThreadInitializatio@ 0000000180084f30     libucrt:winapi_thunks.obj
 0002:00003f60       ??_C@_0CE@OICFMIKE@AppPolicyGetShowDeveloperDiagno@ 0000000180084f60     libucrt:winapi_thunks.obj
 0002:00003f90       ??_C@_0BL@ODDJNEDA@AppPolicyGetWindowingModel@ 0000000180084f90     libucrt:winapi_thunks.obj
 0002:00003fc0       ??_C@_0BI@BKLFFAPO@SetThreadStackGuarantee@ 0000000180084fc0     libucrt:winapi_thunks.obj
 0002:00003ff0       ??_C@_0BC@JEAENNKH@SystemFunction036@ 0000000180084ff0     libucrt:winapi_thunks.obj
 0002:00004010       __lc_time_c                0000000180085010     libucrt:nlsdata.obj
 0002:0000435c       ??_C@_03KOEHGMDN@Sun@      000000018008535c     libucrt:nlsdata.obj
 0002:00004360       ??_C@_03PDAGKDH@Mon@       0000000180085360     libucrt:nlsdata.obj
 0002:00004364       ??_C@_03NAGEINEP@Tue@      0000000180085364     libucrt:nlsdata.obj
 0002:00004368       ??_C@_03MHOMLAJA@Wed@      0000000180085368     libucrt:nlsdata.obj
 0002:0000436c       ??_C@_03IOFIKPDN@Thu@      000000018008536c     libucrt:nlsdata.obj
 0002:00004370       ??_C@_03IDIOELNC@Fri@      0000000180085370     libucrt:nlsdata.obj
 0002:00004374       ??_C@_03FEFJNEK@Sat@       0000000180085374     libucrt:nlsdata.obj
 0002:00004378       ??_C@_06OOPIFAJ@Sunday@    0000000180085378     libucrt:nlsdata.obj
 0002:00004380       ??_C@_06JLEDEDGH@Monday@   0000000180085380     libucrt:nlsdata.obj
 0002:00004388       ??_C@_07BAAGCFCM@Tuesday@  0000000180085388     libucrt:nlsdata.obj
 0002:00004398       ??_C@_09DLIGFAKA@Wednesday@ 0000000180085398     libucrt:nlsdata.obj
 0002:000043a8       ??_C@_08HACCIKIA@Thursday@ 00000001800853a8     libucrt:nlsdata.obj
 0002:000043b4       ??_C@_06JECMNKMI@Friday@   00000001800853b4     libucrt:nlsdata.obj
 0002:000043c0       ??_C@_08INBOOONO@Saturday@ 00000001800853c0     libucrt:nlsdata.obj
 0002:000043cc       ??_C@_03JIHJHPIE@Jan@      00000001800853cc     libucrt:nlsdata.obj
 0002:000043d0       ??_C@_03HJBDCHOM@Feb@      00000001800853d0     libucrt:nlsdata.obj
 0002:000043d4       ??_C@_03ODNJBKGA@Mar@      00000001800853d4     libucrt:nlsdata.obj
 0002:000043d8       ??_C@_03LEOLGMJP@Apr@      00000001800853d8     libucrt:nlsdata.obj
 0002:000043dc       ??_C@_03CNMDKL@May@        00000001800853dc     libucrt:nlsdata.obj
 0002:000043e0       ??_C@_03IDFGHECI@Jun@      00000001800853e0     libucrt:nlsdata.obj
 0002:000043e4       ??_C@_03LBGABGKK@Jul@      00000001800853e4     libucrt:nlsdata.obj
 0002:000043e8       ??_C@_03IFJFEIGA@Aug@      00000001800853e8     libucrt:nlsdata.obj
 0002:000043ec       ??_C@_03GGCAPAJC@Sep@      00000001800853ec     libucrt:nlsdata.obj
 0002:000043f0       ??_C@_03BMAOKBAD@Oct@      00000001800853f0     libucrt:nlsdata.obj
 0002:000043f4       ??_C@_03JPJOFNIA@Nov@      00000001800853f4     libucrt:nlsdata.obj
 0002:000043f8       ??_C@_03MKABNOCG@Dec@      00000001800853f8     libucrt:nlsdata.obj
 0002:00004400       ??_C@_07CGJPFGJA@January@  0000000180085400     libucrt:nlsdata.obj
 0002:00004410       ??_C@_08GNJGEPFN@February@ 0000000180085410     libucrt:nlsdata.obj
 0002:0000441c       ??_C@_05HPCKOFNC@March@    000000018008541c     libucrt:nlsdata.obj
 0002:00004424       ??_C@_05DMJDNLEJ@April@    0000000180085424     libucrt:nlsdata.obj
 0002:0000442c       ??_C@_04CNLMGBGM@June@     000000018008542c     libucrt:nlsdata.obj
 0002:00004434       ??_C@_04MIEPOIFP@July@     0000000180085434     libucrt:nlsdata.obj
 0002:0000443c       ??_C@_06LBBHFDDG@August@   000000018008543c     libucrt:nlsdata.obj
 0002:00004448       ??_C@_09BHHEALKD@September@ 0000000180085448     libucrt:nlsdata.obj
 0002:00004458       ??_C@_07JJNFCEND@October@  0000000180085458     libucrt:nlsdata.obj
 0002:00004468       ??_C@_08HCHEGEOA@November@ 0000000180085468     libucrt:nlsdata.obj
 0002:00004478       ??_C@_08EDHMEBNP@December@ 0000000180085478     libucrt:nlsdata.obj
 0002:00004484       ??_C@_02DEDBPAFC@AM@       0000000180085484     libucrt:nlsdata.obj
 0002:00004488       ??_C@_02CJNFDJBF@PM@       0000000180085488     libucrt:nlsdata.obj
 0002:00004490       ??_C@_08BPBNCDIB@MM?1dd?1yy@ 0000000180085490     libucrt:nlsdata.obj
 0002:000044a0       ??_C@_0BE@CKGJFCPC@dddd?0?5MMMM?5dd?0?5yyyy@ 00000001800854a0     libucrt:nlsdata.obj
 0002:000044b8       ??_C@_08JCCMCCIL@HH?3mm?3ss@ 00000001800854b8     libucrt:nlsdata.obj
 0002:000044c8       ??_C@_17MBGCMIPB@?$AAS?$AAu?$AAn@ 00000001800854c8     libucrt:nlsdata.obj
 0002:000044d8       ??_C@_17KBOMKBF@?$AAM?$AAo?$AAn@ 00000001800854d8     libucrt:nlsdata.obj
 0002:000044e8       ??_C@_17BMKGEGOJ@?$AAT?$AAu?$AAe@ 00000001800854e8     libucrt:nlsdata.obj
 0002:000044f8       ??_C@_17CJEDCEPE@?$AAW?$AAe?$AAd@ 00000001800854f8     libucrt:nlsdata.obj
 0002:00004508       ??_C@_17PDPHAADD@?$AAT?$AAh?$AAu@ 0000000180085508     libucrt:nlsdata.obj
 0002:00004518       ??_C@_17HFOLPPLP@?$AAF?$AAr?$AAi@ 0000000180085518     libucrt:nlsdata.obj
 0002:00004528       ??_C@_17GGIBDPIH@?$AAS?$AAa?$AAt@ 0000000180085528     libucrt:nlsdata.obj
 0002:00004538       ??_C@_1O@IHNHDHPB@?$AAS?$AAu?$AAn?$AAd?$AAa?$AAy@ 0000000180085538     libucrt:nlsdata.obj
 0002:00004548       ??_C@_1O@MMNBFLIA@?$AAM?$AAo?$AAn?$AAd?$AAa?$AAy@ 0000000180085548     libucrt:nlsdata.obj
 0002:00004558       ??_C@_1BA@ENFBFFEK@?$AAT?$AAu?$AAe?$AAs?$AAd?$AAa?$AAy@ 0000000180085558     libucrt:nlsdata.obj
 0002:00004570       ??_C@_1BE@EBOGMDOH@?$AAW?$AAe?$AAd?$AAn?$AAe?$AAs?$AAd?$AAa?$AAy@ 0000000180085570     libucrt:nlsdata.obj
 0002:00004588       ??_C@_1BC@HHMNLIHE@?$AAT?$AAh?$AAu?$AAr?$AAs?$AAd?$AAa?$AAy@ 0000000180085588     libucrt:nlsdata.obj
 0002:000045a0       ??_C@_1O@PDICJHAG@?$AAF?$AAr?$AAi?$AAd?$AAa?$AAy@ 00000001800855a0     libucrt:nlsdata.obj
 0002:000045b0       ??_C@_1BC@ENMNNPAJ@?$AAS?$AAa?$AAt?$AAu?$AAr?$AAd?$AAa?$AAy@ 00000001800855b0     libucrt:nlsdata.obj
 0002:000045c8       ??_C@_17DKNBKCHM@?$AAJ?$AAa?$AAn@ 00000001800855c8     libucrt:nlsdata.obj
 0002:000045d8       ??_C@_17LMDJEKJN@?$AAF?$AAe?$AAb@ 00000001800855d8     libucrt:nlsdata.obj
 0002:000045e8       ??_C@_17CKNLEDEC@?$AAM?$AAa?$AAr@ 00000001800855e8     libucrt:nlsdata.obj
 0002:000045f8       ??_C@_17LFPOIHDD@?$AAA?$AAp?$AAr@ 00000001800855f8     libucrt:nlsdata.obj
 0002:00004608       ??_C@_17PNNKMEED@?$AAM?$AAa?$AAy@ 0000000180085608     libucrt:nlsdata.obj
 0002:00004618       ??_C@_17KCJGOCPB@?$AAJ?$AAu?$AAn@ 0000000180085618     libucrt:nlsdata.obj
 0002:00004628       ??_C@_17IJPCKHK@?$AAJ?$AAu?$AAl@ 0000000180085628     libucrt:nlsdata.obj
 0002:00004638       ??_C@_17ICPELBCN@?$AAA?$AAu?$AAg@ 0000000180085638     libucrt:nlsdata.obj
 0002:00004648       ??_C@_17HCHCOKMG@?$AAS?$AAe?$AAp@ 0000000180085648     libucrt:nlsdata.obj
 0002:00004658       ??_C@_17FNLKOI@?$AAO?$AAc?$AAt@ 0000000180085658     libucrt:nlsdata.obj
 0002:00004668       ??_C@_17BBDMLCIG@?$AAN?$AAo?$AAv@ 0000000180085668     libucrt:nlsdata.obj
 0002:00004678       ??_C@_17EGKACKIF@?$AAD?$AAe?$AAc@ 0000000180085678     libucrt:nlsdata.obj
 0002:00004688       ??_C@_1BA@EFMEIEBA@?$AAJ?$AAa?$AAn?$AAu?$AAa?$AAr?$AAy@ 0000000180085688     libucrt:nlsdata.obj
 0002:000046a0       ??_C@_1BC@JGDDFFAM@?$AAF?$AAe?$AAb?$AAr?$AAu?$AAa?$AAr?$AAy@ 00000001800856a0     libucrt:nlsdata.obj
 0002:000046b8       ??_C@_1M@IKEENEDF@?$AAM?$AAa?$AAr?$AAc?$AAh@ 00000001800856b8     libucrt:nlsdata.obj
 0002:000046c8       ??_C@_1M@GJNLMHFD@?$AAA?$AAp?$AAr?$AAi?$AAl@ 00000001800856c8     libucrt:nlsdata.obj
 0002:000046d8       ??_C@_19EPFLPGAP@?$AAJ?$AAu?$AAn?$AAe@ 00000001800856d8     libucrt:nlsdata.obj
 0002:000046e8       ??_C@_19BIFMLPCD@?$AAJ?$AAu?$AAl?$AAy@ 00000001800856e8     libucrt:nlsdata.obj
 0002:000046f8       ??_C@_1O@PAHLKOAC@?$AAA?$AAu?$AAg?$AAu?$AAs?$AAt@ 00000001800856f8     libucrt:nlsdata.obj
 0002:00004708       ??_C@_1BE@DKAAMBJL@?$AAS?$AAe?$AAp?$AAt?$AAe?$AAm?$AAb?$AAe?$AAr@ 0000000180085708     libucrt:nlsdata.obj
 0002:00004720       ??_C@_1BA@EPANDLNG@?$AAO?$AAc?$AAt?$AAo?$AAb?$AAe?$AAr@ 0000000180085720     libucrt:nlsdata.obj
 0002:00004738       ??_C@_1BC@BGLIFPF@?$AAN?$AAo?$AAv?$AAe?$AAm?$AAb?$AAe?$AAr@ 0000000180085738     libucrt:nlsdata.obj
 0002:00004750       ??_C@_1BC@FEMKIFH@?$AAD?$AAe?$AAc?$AAe?$AAm?$AAb?$AAe?$AAr@ 0000000180085750     libucrt:nlsdata.obj
 0002:00004768       ??_C@_15ODEHAHHF@?$AAA?$AAM@ 0000000180085768     libucrt:nlsdata.obj
 0002:00004770       ??_C@_15CLMNNGEL@?$AAP?$AAM@ 0000000180085770     libucrt:nlsdata.obj
 0002:00004778       ??_C@_1BC@IEBCMHCM@?$AAM?$AAM?$AA?1?$AAd?$AAd?$AA?1?$AAy?$AAy@ 0000000180085778     libucrt:nlsdata.obj
 0002:00004790       ??_C@_1CI@KNAKOEBC@?$AAd?$AAd?$AAd?$AAd?$AA?0?$AA?5?$AAM?$AAM?$AAM?$AAM?$AA?5?$AAd?$AAd?$AA?0?$AA?5@ 0000000180085790     libucrt:nlsdata.obj
 0002:000047c0       ??_C@_1BC@GDGBMEMK@?$AAH?$AAH?$AA?3?$AAm?$AAm?$AA?3?$AAs?$AAs@ 00000001800857c0     libucrt:nlsdata.obj
 0002:000047d8       ??_C@_1M@BMHNFIME@?$AAe?$AAn?$AA?9?$AAU?$AAS@ 00000001800857d8     libucrt:nlsdata.obj
 0002:0000488c       ??_C@_03OEIAHPBN@INF@      000000018008588c     libucrt:cvt.obj
 0002:00004890       ??_C@_03OJHLLCGB@inf@      0000000180085890     libucrt:cvt.obj
 0002:00004894       ??_C@_03LKNCIKJB@NAN@      0000000180085894     libucrt:cvt.obj
 0002:00004898       ??_C@_03LHCJEHON@nan@      0000000180085898     libucrt:cvt.obj
 0002:000048a0       ??_C@_09OFJJIMPC@NAN?$CISNAN?$CJ@ 00000001800858a0     libucrt:cvt.obj
 0002:000048b0       ??_C@_09IPFBKMDL@nan?$CIsnan?$CJ@ 00000001800858b0     libucrt:cvt.obj
 0002:000048c0       ??_C@_08IKHNHAJ@NAN?$CIIND?$CJ@ 00000001800858c0     libucrt:cvt.obj
 0002:000048d0       ??_C@_08OFCDMILK@nan?$CIind?$CJ@ 00000001800858d0     libucrt:cvt.obj
 0002:000048dc       ??_C@_05KLBDPFGC@e?$CL000@ 00000001800858dc     libucrt:cvt.obj
 0002:00004990       __lc_category              0000000180085990     libucrt:wsetlocale.obj
 0002:00004a40       ??_C@_1O@GIFLHMA@?$AAL?$AAC?$AA_?$AAA?$AAL?$AAL@ 0000000180085a40     libucrt:wsetlocale.obj
 0002:00004a50       ??_C@_1BG@PPOMIBNJ@?$AAL?$AAC?$AA_?$AAC?$AAO?$AAL?$AAL?$AAA?$AAT?$AAE@ 0000000180085a50     libucrt:wsetlocale.obj
 0002:00004a70       ??_C@_1BC@FFJGAPJM@?$AAL?$AAC?$AA_?$AAC?$AAT?$AAY?$AAP?$AAE@ 0000000180085a70     libucrt:wsetlocale.obj
 0002:00004a88       ??_C@_1BI@PCKFNJFB@?$AAL?$AAC?$AA_?$AAM?$AAO?$AAN?$AAE?$AAT?$AAA?$AAR?$AAY@ 0000000180085a88     libucrt:wsetlocale.obj
 0002:00004aa8       ??_C@_1BG@ENIEDKID@?$AAL?$AAC?$AA_?$AAN?$AAU?$AAM?$AAE?$AAR?$AAI?$AAC@ 0000000180085aa8     libucrt:wsetlocale.obj
 0002:00004ac8       ??_C@_1BA@HAAOMIIG@?$AAL?$AAC?$AA_?$AAT?$AAI?$AAM?$AAE@ 0000000180085ac8     libucrt:wsetlocale.obj
 0002:00004adc       ??_C@_15NBPDDFIP@?$AA?$DN?$AA?$DL@ 0000000180085adc     libucrt:wsetlocale.obj
 0002:00004ae4       ??_C@_13PJJBFPED@?$AA?$DL@ 0000000180085ae4     libucrt:wsetlocale.obj
 0002:00004ae8       ??_C@_13NMPKAAJP@?$AA?$DN@ 0000000180085ae8     libucrt:wsetlocale.obj
 0002:00004aec       ??_C@_13IMODFHAA@?$AA?9@   0000000180085aec     libucrt:wsetlocale.obj
 0002:00004af0       ??_C@_17EFJLDFDO@?$AA?9?$AA_?$AA?4@ 0000000180085af0     libucrt:wsetlocale.obj
 0002:00004afc       ??_C@_13FHBKNHDA@?$AAC@    0000000180085afc     libucrt:wsetlocale.obj
 0002:00004b00       ??_C@_17MBJJLFDM@?$AA_?$AA?4?$AA?0@ 0000000180085b00     libucrt:wsetlocale.obj
 0002:00004b0c       ??_C@_13ENNFDPBH@?$AA_@    0000000180085b0c     libucrt:wsetlocale.obj
 0002:00004b10       ??_C@_13JOFGPIOO@?$AA?4@   0000000180085b10     libucrt:wsetlocale.obj
 0002:00004b20       __newctype                 0000000180085b20     libucrt:ctype.obj
 0002:00004ec0       __newclmap                 0000000180085ec0     libucrt:ctype.obj
 0002:00005090       __newcumap                 0000000180086090     libucrt:ctype.obj
 0002:00005260       _wctype                    0000000180086260     libucrt:ctype.obj
 0002:000065ec       ??_C@_15EMKDOKLE@?$AAa?$AAr@ 00000001800875ec     libucrt:lcidtoname_downlevel.obj
 0002:000065f4       ??_C@_15KNPADPLH@?$AAb?$AAg@ 00000001800875f4     libucrt:lcidtoname_downlevel.obj
 0002:000065fc       ??_C@_15EDMHLDMO@?$AAc?$AAa@ 00000001800875fc     libucrt:lcidtoname_downlevel.obj
 0002:00006608       ??_C@_1O@BPEAJADD@?$AAz?$AAh?$AA?9?$AAC?$AAH?$AAS@ 0000000180087608     libucrt:lcidtoname_downlevel.obj
 0002:00006618       ??_C@_15LJNHCMNK@?$AAc?$AAs@ 0000000180087618     libucrt:lcidtoname_downlevel.obj
 0002:00006620       ??_C@_15FOMCIDHG@?$AAd?$AAa@ 0000000180087620     libucrt:lcidtoname_downlevel.obj
 0002:00006628       ??_C@_15NBKABECB@?$AAd?$AAe@ 0000000180087628     libucrt:lcidtoname_downlevel.obj
 0002:00006630       ??_C@_15GHPEIIAO@?$AAe?$AAl@ 0000000180087630     libucrt:lcidtoname_downlevel.obj
 0002:00006638       ??_C@_15MNPNEAIF@?$AAe?$AAn@ 0000000180087638     libucrt:lcidtoname_downlevel.obj
 0002:00006640       ??_C@_15GPIOMPMH@?$AAe?$AAs@ 0000000180087640     libucrt:lcidtoname_downlevel.obj
 0002:00006648       ??_C@_15NGLOAKJC@?$AAf?$AAi@ 0000000180087648     libucrt:lcidtoname_downlevel.obj
 0002:00006650       ??_C@_15FBKGNKAM@?$AAf?$AAr@ 0000000180087650     libucrt:lcidtoname_downlevel.obj
 0002:00006658       ??_C@_15KGGCNEFK@?$AAh?$AAe@ 0000000180087658     libucrt:lcidtoname_downlevel.obj
 0002:00006660       ??_C@_15PGHLIDMF@?$AAh?$AAu@ 0000000180087660     libucrt:lcidtoname_downlevel.obj
 0002:00006668       ??_C@_15BIEMAPLM@?$AAi?$AAs@ 0000000180087668     libucrt:lcidtoname_downlevel.obj
 0002:00006670       ??_C@_15IFJLDHAF@?$AAi?$AAt@ 0000000180087670     libucrt:lcidtoname_downlevel.obj
 0002:00006678       ??_C@_15GEMIOCAG@?$AAj?$AAa@ 0000000180087678     libucrt:lcidtoname_downlevel.obj
 0002:00006680       ??_C@_15EPELEGJA@?$AAk?$AAo@ 0000000180087680     libucrt:lcidtoname_downlevel.obj
 0002:00006688       ??_C@_15NDDHIMN@?$AAn?$AAl@ 0000000180087688     libucrt:lcidtoname_downlevel.obj
 0002:00006690       ??_C@_15BPIGNHCD@?$AAn?$AAo@ 0000000180087690     libucrt:lcidtoname_downlevel.obj
 0002:00006698       ??_C@_15DEOPBLCG@?$AAp?$AAl@ 0000000180087698     libucrt:lcidtoname_downlevel.obj
 0002:000066a0       ??_C@_15KBECGEFG@?$AAp?$AAt@ 00000001800876a0     libucrt:lcidtoname_downlevel.obj
 0002:000066a8       ??_C@_15GLJCBFMD@?$AAr?$AAo@ 00000001800876a8     libucrt:lcidtoname_downlevel.obj
 0002:000066b0       ??_C@_15FEDGKCDI@?$AAr?$AAu@ 00000001800876b0     libucrt:lcidtoname_downlevel.obj
 0002:000066b8       ??_C@_15GLKMLLHM@?$AAh?$AAr@ 00000001800876b8     libucrt:lcidtoname_downlevel.obj
 0002:000066c0       ??_C@_15CPKMFBDB@?$AAs?$AAk@ 00000001800876c0     libucrt:lcidtoname_downlevel.obj
 0002:000066c8       ??_C@_15BAAIOGMK@?$AAs?$AAq@ 00000001800876c8     libucrt:lcidtoname_downlevel.obj
 0002:000066d0       ??_C@_15INNPNOHD@?$AAs?$AAv@ 00000001800876d0     libucrt:lcidtoname_downlevel.obj
 0002:000066d8       ??_C@_15CABMMOGH@?$AAt?$AAh@ 00000001800876d8     libucrt:lcidtoname_downlevel.obj
 0002:000066e0       ??_C@_15BPLIHJJM@?$AAt?$AAr@ 00000001800876e0     libucrt:lcidtoname_downlevel.obj
 0002:000066e8       ??_C@_15NEOEKKDJ@?$AAu?$AAr@ 00000001800876e8     libucrt:lcidtoname_downlevel.obj
 0002:000066f0       ??_C@_15NFICGAJK@?$AAi?$AAd@ 00000001800876f0     libucrt:lcidtoname_downlevel.obj
 0002:000066f8       ??_C@_15PJPFLCCM@?$AAu?$AAk@ 00000001800876f8     libucrt:lcidtoname_downlevel.obj
 0002:00006700       ??_C@_15HPJPHDM@?$AAb?$AAe@ 0000000180087700     libucrt:lcidtoname_downlevel.obj
 0002:00006708       ??_C@_15LCHLGJII@?$AAs?$AAl@ 0000000180087708     libucrt:lcidtoname_downlevel.obj
 0002:00006710       ??_C@_15PCFJPHHO@?$AAe?$AAt@ 0000000180087710     libucrt:lcidtoname_downlevel.obj
 0002:00006718       ??_C@_15HPFPGODN@?$AAl?$AAv@ 0000000180087718     libucrt:lcidtoname_downlevel.obj
 0002:00006720       ??_C@_15NFFGKGLG@?$AAl?$AAt@ 0000000180087720     libucrt:lcidtoname_downlevel.obj
 0002:00006728       ??_C@_15BDAKCCHN@?$AAf?$AAa@ 0000000180087728     libucrt:lcidtoname_downlevel.obj
 0002:00006730       ??_C@_15NFGIAIAJ@?$AAv?$AAi@ 0000000180087730     libucrt:lcidtoname_downlevel.obj
 0002:00006738       ??_C@_15LMKNDMHN@?$AAh?$AAy@ 0000000180087738     libucrt:lcidtoname_downlevel.obj
 0002:00006740       ??_C@_15IJBHMCFL@?$AAa?$AAz@ 0000000180087740     libucrt:lcidtoname_downlevel.obj
 0002:00006748       ??_C@_15EKOFJABL@?$AAe?$AAu@ 0000000180087748     libucrt:lcidtoname_downlevel.obj
 0002:00006750       ??_C@_15BGHADCNK@?$AAm?$AAk@ 0000000180087750     libucrt:lcidtoname_downlevel.obj
 0002:00006758       ??_C@_15JDNICKHM@?$AAa?$AAf@ 0000000180087758     libucrt:lcidtoname_downlevel.obj
 0002:00006760       ??_C@_15KPJEDBKD@?$AAk?$AAa@ 0000000180087760     libucrt:lcidtoname_downlevel.obj
 0002:00006768       ??_C@_15PDNFFFEO@?$AAf?$AAo@ 0000000180087768     libucrt:lcidtoname_downlevel.obj
 0002:00006770       ??_C@_15OMLEGLOC@?$AAh?$AAi@ 0000000180087770     libucrt:lcidtoname_downlevel.obj
 0002:00006778       ??_C@_15IDNNENKK@?$AAm?$AAs@ 0000000180087778     libucrt:lcidtoname_downlevel.obj
 0002:00006780       ??_C@_15MACJNBMH@?$AAk?$AAk@ 0000000180087780     libucrt:lcidtoname_downlevel.obj
 0002:00006788       ??_C@_15DKDJEOND@?$AAk?$AAy@ 0000000180087788     libucrt:lcidtoname_downlevel.obj
 0002:00006790       ??_C@_15DFGDLJBG@?$AAs?$AAw@ 0000000180087790     libucrt:lcidtoname_downlevel.obj
 0002:00006798       ??_C@_15BBFAICNG@?$AAu?$AAz@ 0000000180087798     libucrt:lcidtoname_downlevel.obj
 0002:000067a0       ??_C@_15DKNDCGEA@?$AAt?$AAt@ 00000001800877a0     libucrt:lcidtoname_downlevel.obj
 0002:000067a8       ??_C@_15MGIFMDPL@?$AAp?$AAa@ 00000001800877a8     libucrt:lcidtoname_downlevel.obj
 0002:000067b0       ??_C@_15HCNDBBA@?$AAg?$AAu@ 00000001800877b0     libucrt:lcidtoname_downlevel.obj
 0002:000067b8       ??_C@_15FNBEIBON@?$AAt?$AAa@ 00000001800877b8     libucrt:lcidtoname_downlevel.obj
 0002:000067c0       ??_C@_15NCHGBGLK@?$AAt?$AAe@ 00000001800877c0     libucrt:lcidtoname_downlevel.obj
 0002:000067c8       ??_C@_15PHPHCBPF@?$AAk?$AAn@ 00000001800877c8     libucrt:lcidtoname_downlevel.obj
 0002:000067d0       ??_C@_15DLGBCKMP@?$AAm?$AAr@ 00000001800877d0     libucrt:lcidtoname_downlevel.obj
 0002:000067d8       ??_C@_15EABBLBFF@?$AAs?$AAa@ 00000001800877d8     libucrt:lcidtoname_downlevel.obj
 0002:000067e0       ??_C@_15CBKOMCOI@?$AAm?$AAn@ 00000001800877e0     libucrt:lcidtoname_downlevel.obj
 0002:000067e8       ??_C@_15CKDMCJAF@?$AAg?$AAl@ 00000001800877e8     libucrt:lcidtoname_downlevel.obj
 0002:000067f0       ??_C@_17CNJFBPG@?$AAk?$AAo?$AAk@ 00000001800877f0     libucrt:lcidtoname_downlevel.obj
 0002:00006800       ??_C@_17FFBJICPL@?$AAs?$AAy?$AAr@ 0000000180087800     libucrt:lcidtoname_downlevel.obj
 0002:00006810       ??_C@_17KPNDCPAF@?$AAd?$AAi?$AAv@ 0000000180087810     libucrt:lcidtoname_downlevel.obj
 0002:0000681c       ??_C@_11LOCGONAA@@         000000018008781c     libucrt:lcidtoname_downlevel.obj
 0002:00006820       ??_C@_1M@OKAHONE@?$AAa?$AAr?$AA?9?$AAS?$AAA@ 0000000180087820     libucrt:lcidtoname_downlevel.obj
 0002:00006830       ??_C@_1M@FFFIGIGK@?$AAb?$AAg?$AA?9?$AAB?$AAG@ 0000000180087830     libucrt:lcidtoname_downlevel.obj
 0002:00006840       ??_C@_1M@BJNKEDC@?$AAc?$AAa?$AA?9?$AAE?$AAS@ 0000000180087840     libucrt:lcidtoname_downlevel.obj
 0002:00006850       ??_C@_1M@IJJHFJHA@?$AAc?$AAs?$AA?9?$AAC?$AAZ@ 0000000180087850     libucrt:lcidtoname_downlevel.obj
 0002:00006860       ??_C@_1M@CLPEOBGI@?$AAd?$AAa?$AA?9?$AAD?$AAK@ 0000000180087860     libucrt:lcidtoname_downlevel.obj
 0002:00006870       ??_C@_1M@MCMADGCB@?$AAd?$AAe?$AA?9?$AAD?$AAE@ 0000000180087870     libucrt:lcidtoname_downlevel.obj
 0002:00006880       ??_C@_1M@OOCKEMAM@?$AAe?$AAl?$AA?9?$AAG?$AAR@ 0000000180087880     libucrt:lcidtoname_downlevel.obj
 0002:00006890       ??_C@_1M@DDNJFGID@?$AAf?$AAi?$AA?9?$AAF?$AAI@ 0000000180087890     libucrt:lcidtoname_downlevel.obj
 0002:000068a0       ??_C@_1M@GLIPPMAC@?$AAf?$AAr?$AA?9?$AAF?$AAR@ 00000001800878a0     libucrt:lcidtoname_downlevel.obj
 0002:000068b0       ??_C@_1M@GFMCHPE@?$AAh?$AAe?$AA?9?$AAI?$AAL@ 00000001800878b0     libucrt:lcidtoname_downlevel.obj
 0002:000068c0       ??_C@_1M@MHLPGNKM@?$AAh?$AAu?$AA?9?$AAH?$AAU@ 00000001800878c0     libucrt:lcidtoname_downlevel.obj
 0002:000068d0       ??_C@_1M@LPDDNNPN@?$AAi?$AAs?$AA?9?$AAI?$AAS@ 00000001800878d0     libucrt:lcidtoname_downlevel.obj
 0002:000068e0       ??_C@_1M@MADIPODN@?$AAi?$AAt?$AA?9?$AAI?$AAT@ 00000001800878e0     libucrt:lcidtoname_downlevel.obj
 0002:000068f0       ??_C@_1M@IHBJJGG@?$AAn?$AAl?$AA?9?$AAN?$AAL@ 00000001800878f0     libucrt:lcidtoname_downlevel.obj
 0002:00006900       ??_C@_1M@EANAGDL@?$AAn?$AAb?$AA?9?$AAN?$AAO@ 0000000180087900     libucrt:lcidtoname_downlevel.obj
 0002:00006910       ??_C@_1M@NEIEMEGP@?$AAp?$AAl?$AA?9?$AAP?$AAL@ 0000000180087910     libucrt:lcidtoname_downlevel.obj
 0002:00006920       ??_C@_1M@BOCFIGEP@?$AAp?$AAt?$AA?9?$AAB?$AAR@ 0000000180087920     libucrt:lcidtoname_downlevel.obj
 0002:00006930       ??_C@_1M@IMPFOPBG@?$AAr?$AAo?$AA?9?$AAR?$AAO@ 0000000180087930     libucrt:lcidtoname_downlevel.obj
 0002:00006940       ??_C@_1M@IDNNEJMM@?$AAr?$AAu?$AA?9?$AAR?$AAU@ 0000000180087940     libucrt:lcidtoname_downlevel.obj
 0002:00006950       ??_C@_1M@LILEEOGM@?$AAh?$AAr?$AA?9?$AAH?$AAR@ 0000000180087950     libucrt:lcidtoname_downlevel.obj
 0002:00006960       ??_C@_1M@FKIFEHPB@?$AAs?$AAk?$AA?9?$AAS?$AAK@ 0000000180087960     libucrt:lcidtoname_downlevel.obj
 0002:00006970       ??_C@_1M@LJMAMNPJ@?$AAs?$AAq?$AA?9?$AAA?$AAL@ 0000000180087970     libucrt:lcidtoname_downlevel.obj
 0002:00006980       ??_C@_1M@GIAKDKJK@?$AAs?$AAv?$AA?9?$AAS?$AAE@ 0000000180087980     libucrt:lcidtoname_downlevel.obj
 0002:00006990       ??_C@_1M@MKJKIKCL@?$AAt?$AAh?$AA?9?$AAT?$AAH@ 0000000180087990     libucrt:lcidtoname_downlevel.obj
 0002:000069a0       ??_C@_1M@MFLCCMPB@?$AAt?$AAr?$AA?9?$AAT?$AAR@ 00000001800879a0     libucrt:lcidtoname_downlevel.obj
 0002:000069b0       ??_C@_1M@OIJHDKJN@?$AAu?$AAr?$AA?9?$AAP?$AAK@ 00000001800879b0     libucrt:lcidtoname_downlevel.obj
 0002:000069c0       ??_C@_1M@LHIPCIEK@?$AAi?$AAd?$AA?9?$AAI?$AAD@ 00000001800879c0     libucrt:lcidtoname_downlevel.obj
 0002:000069d0       ??_C@_1M@MFMOBGI@?$AAu?$AAk?$AA?9?$AAU?$AAA@ 00000001800879d0     libucrt:lcidtoname_downlevel.obj
 0002:000069e0       ??_C@_1M@OBGLJIPL@?$AAb?$AAe?$AA?9?$AAB?$AAY@ 00000001800879e0     libucrt:lcidtoname_downlevel.obj
 0002:000069f0       ??_C@_1M@BCFAJEAD@?$AAs?$AAl?$AA?9?$AAS?$AAI@ 00000001800879f0     libucrt:lcidtoname_downlevel.obj
 0002:00006a00       ??_C@_1M@FKFFEDDN@?$AAe?$AAt?$AA?9?$AAE?$AAE@ 0000000180087a00     libucrt:lcidtoname_downlevel.obj
 0002:00006a10       ??_C@_1M@KGKKAACI@?$AAl?$AAv?$AA?9?$AAL?$AAV@ 0000000180087a10     libucrt:lcidtoname_downlevel.obj
 0002:00006a20       ??_C@_1M@IFGBIJO@?$AAl?$AAt?$AA?9?$AAL?$AAT@ 0000000180087a20     libucrt:lcidtoname_downlevel.obj
 0002:00006a30       ??_C@_1M@FGEAHEDM@?$AAf?$AAa?$AA?9?$AAI?$AAR@ 0000000180087a30     libucrt:lcidtoname_downlevel.obj
 0002:00006a40       ??_C@_1M@KBMAIBFN@?$AAv?$AAi?$AA?9?$AAV?$AAN@ 0000000180087a40     libucrt:lcidtoname_downlevel.obj
 0002:00006a50       ??_C@_1M@GPCBKDJK@?$AAh?$AAy?$AA?9?$AAA?$AAM@ 0000000180087a50     libucrt:lcidtoname_downlevel.obj
 0002:00006a60       ??_C@_1BG@BECMDDJB@?$AAa?$AAz?$AA?9?$AAA?$AAZ?$AA?9?$AAL?$AAa?$AAt?$AAn@ 0000000180087a60     libucrt:lcidtoname_downlevel.obj
 0002:00006a80       ??_C@_1M@MAOFCAEA@?$AAe?$AAu?$AA?9?$AAE?$AAS@ 0000000180087a80     libucrt:lcidtoname_downlevel.obj
 0002:00006a90       ??_C@_1M@IGHABKPI@?$AAm?$AAk?$AA?9?$AAM?$AAK@ 0000000180087a90     libucrt:lcidtoname_downlevel.obj
 0002:00006aa0       ??_C@_1M@IAIGNEJG@?$AAt?$AAn?$AA?9?$AAZ?$AAA@ 0000000180087aa0     libucrt:lcidtoname_downlevel.obj
 0002:00006ab0       ??_C@_1M@IIJCOJFA@?$AAx?$AAh?$AA?9?$AAZ?$AAA@ 0000000180087ab0     libucrt:lcidtoname_downlevel.obj
 0002:00006ac0       ??_C@_1M@LGPJHNJH@?$AAz?$AAu?$AA?9?$AAZ?$AAA@ 0000000180087ac0     libucrt:lcidtoname_downlevel.obj
 0002:00006ad0       ??_C@_1M@HOKAOIO@?$AAa?$AAf?$AA?9?$AAZ?$AAA@ 0000000180087ad0     libucrt:lcidtoname_downlevel.obj
 0002:00006ae0       ??_C@_1M@DPCLHLIE@?$AAk?$AAa?$AA?9?$AAG?$AAE@ 0000000180087ae0     libucrt:lcidtoname_downlevel.obj
 0002:00006af0       ??_C@_1M@BLKMHJBI@?$AAf?$AAo?$AA?9?$AAF?$AAO@ 0000000180087af0     libucrt:lcidtoname_downlevel.obj
 0002:00006b00       ??_C@_1M@LGGJAPPB@?$AAh?$AAi?$AA?9?$AAI?$AAN@ 0000000180087b00     libucrt:lcidtoname_downlevel.obj
 0002:00006b10       ??_C@_1M@FIKPIHFE@?$AAm?$AAt?$AA?9?$AAM?$AAT@ 0000000180087b10     libucrt:lcidtoname_downlevel.obj
 0002:00006b20       ??_C@_1M@HEGGPBFA@?$AAs?$AAe?$AA?9?$AAN?$AAO@ 0000000180087b20     libucrt:lcidtoname_downlevel.obj
 0002:00006b30       ??_C@_1M@EIBJEEPA@?$AAm?$AAs?$AA?9?$AAM?$AAY@ 0000000180087b30     libucrt:lcidtoname_downlevel.obj
 0002:00006b40       ??_C@_1M@FHLBGMPP@?$AAk?$AAk?$AA?9?$AAK?$AAZ@ 0000000180087b40     libucrt:lcidtoname_downlevel.obj
 0002:00006b50       ??_C@_1M@NGJJLCGI@?$AAk?$AAy?$AA?9?$AAK?$AAG@ 0000000180087b50     libucrt:lcidtoname_downlevel.obj
 0002:00006b60       ??_C@_1M@GIENNBFC@?$AAs?$AAw?$AA?9?$AAK?$AAE@ 0000000180087b60     libucrt:lcidtoname_downlevel.obj
 0002:00006b70       ??_C@_1BG@NDGMJIMJ@?$AAu?$AAz?$AA?9?$AAU?$AAZ?$AA?9?$AAL?$AAa?$AAt?$AAn@ 0000000180087b70     libucrt:lcidtoname_downlevel.obj
 0002:00006b90       ??_C@_1M@IDCCIHBC@?$AAt?$AAt?$AA?9?$AAR?$AAU@ 0000000180087b90     libucrt:lcidtoname_downlevel.obj
 0002:00006ba0       ??_C@_1M@LOICPMOJ@?$AAb?$AAn?$AA?9?$AAI?$AAN@ 0000000180087ba0     libucrt:lcidtoname_downlevel.obj
 0002:00006bb0       ??_C@_1M@KPKKNEAH@?$AAp?$AAa?$AA?9?$AAI?$AAN@ 0000000180087bb0     libucrt:lcidtoname_downlevel.obj
 0002:00006bc0       ??_C@_1M@PJGPPBOG@?$AAg?$AAu?$AA?9?$AAI?$AAN@ 0000000180087bc0     libucrt:lcidtoname_downlevel.obj
 0002:00006bd0       ??_C@_1M@KMKMOPHI@?$AAt?$AAa?$AA?9?$AAI?$AAN@ 0000000180087bd0     libucrt:lcidtoname_downlevel.obj
 0002:00006be0       ??_C@_1M@KFEHEPAC@?$AAt?$AAe?$AA?9?$AAI?$AAN@ 0000000180087be0     libucrt:lcidtoname_downlevel.obj
 0002:00006bf0       ??_C@_1M@CDCLMGHI@?$AAk?$AAn?$AA?9?$AAI?$AAN@ 0000000180087bf0     libucrt:lcidtoname_downlevel.obj
 0002:00006c00       ??_C@_1M@MIODLDKF@?$AAm?$AAl?$AA?9?$AAI?$AAN@ 0000000180087c00     libucrt:lcidtoname_downlevel.obj
 0002:00006c10       ??_C@_1M@PBIEACPO@?$AAm?$AAr?$AA?9?$AAI?$AAN@ 0000000180087c10     libucrt:lcidtoname_downlevel.obj
 0002:00006c20       ??_C@_1M@NIDEAGPH@?$AAs?$AAa?$AA?9?$AAI?$AAN@ 0000000180087c20     libucrt:lcidtoname_downlevel.obj
 0002:00006c30       ??_C@_1M@FHIHCBIO@?$AAm?$AAn?$AA?9?$AAM?$AAN@ 0000000180087c30     libucrt:lcidtoname_downlevel.obj
 0002:00006c40       ??_C@_1M@JAIJPENP@?$AAc?$AAy?$AA?9?$AAG?$AAB@ 0000000180087c40     libucrt:lcidtoname_downlevel.obj
 0002:00006c50       ??_C@_1M@PHGFBEPN@?$AAg?$AAl?$AA?9?$AAE?$AAS@ 0000000180087c50     libucrt:lcidtoname_downlevel.obj
 0002:00006c60       ??_C@_1O@KPIPDNCP@?$AAk?$AAo?$AAk?$AA?9?$AAI?$AAN@ 0000000180087c60     libucrt:lcidtoname_downlevel.obj
 0002:00006c70       ??_C@_1O@KNHJLDJA@?$AAs?$AAy?$AAr?$AA?9?$AAS?$AAY@ 0000000180087c70     libucrt:lcidtoname_downlevel.obj
 0002:00006c80       ??_C@_1O@MKEKBLAH@?$AAd?$AAi?$AAv?$AA?9?$AAM?$AAV@ 0000000180087c80     libucrt:lcidtoname_downlevel.obj
 0002:00006c90       ??_C@_1O@OHDCKDDF@?$AAq?$AAu?$AAz?$AA?9?$AAB?$AAO@ 0000000180087c90     libucrt:lcidtoname_downlevel.obj
 0002:00006ca0       ??_C@_1M@LEPJNLFD@?$AAn?$AAs?$AA?9?$AAZ?$AAA@ 0000000180087ca0     libucrt:lcidtoname_downlevel.obj
 0002:00006cb0       ??_C@_1M@OMLEIIJB@?$AAm?$AAi?$AA?9?$AAN?$AAZ@ 0000000180087cb0     libucrt:lcidtoname_downlevel.obj
 0002:00006cc0       ??_C@_1M@PMPEAILG@?$AAa?$AAr?$AA?9?$AAI?$AAQ@ 0000000180087cc0     libucrt:lcidtoname_downlevel.obj
 0002:00006cd0       ??_C@_1M@CNKPNOEE@?$AAd?$AAe?$AA?9?$AAC?$AAH@ 0000000180087cd0     libucrt:lcidtoname_downlevel.obj
 0002:00006ce0       ??_C@_1M@LKMGMLKO@?$AAe?$AAn?$AA?9?$AAG?$AAB@ 0000000180087ce0     libucrt:lcidtoname_downlevel.obj
 0002:00006cf0       ??_C@_1M@PGKJFFGL@?$AAe?$AAs?$AA?9?$AAM?$AAX@ 0000000180087cf0     libucrt:lcidtoname_downlevel.obj
 0002:00006d00       ??_C@_1M@DNNANBDC@?$AAf?$AAr?$AA?9?$AAB?$AAE@ 0000000180087d00     libucrt:lcidtoname_downlevel.obj
 0002:00006d10       ??_C@_1M@HLGMDFHM@?$AAi?$AAt?$AA?9?$AAC?$AAH@ 0000000180087d10     libucrt:lcidtoname_downlevel.obj
 0002:00006d20       ??_C@_1M@CLLBGJH@?$AAn?$AAl?$AA?9?$AAB?$AAE@ 0000000180087d20     libucrt:lcidtoname_downlevel.obj
 0002:00006d30       ??_C@_1M@BODBOGLF@?$AAn?$AAn?$AA?9?$AAN?$AAO@ 0000000180087d30     libucrt:lcidtoname_downlevel.obj
 0002:00006d40       ??_C@_1M@HFFAHKAD@?$AAp?$AAt?$AA?9?$AAP?$AAT@ 0000000180087d40     libucrt:lcidtoname_downlevel.obj
 0002:00006d50       ??_C@_1BG@LNOAKHIE@?$AAs?$AAr?$AA?9?$AAS?$AAP?$AA?9?$AAL?$AAa?$AAt?$AAn@ 0000000180087d50     libucrt:lcidtoname_downlevel.obj
 0002:00006d70       ??_C@_1M@HBMHBGAK@?$AAs?$AAv?$AA?9?$AAF?$AAI@ 0000000180087d70     libucrt:lcidtoname_downlevel.obj
 0002:00006d80       ??_C@_1BG@DGCJGJBE@?$AAa?$AAz?$AA?9?$AAA?$AAZ?$AA?9?$AAC?$AAy?$AAr?$AAl@ 0000000180087d80     libucrt:lcidtoname_downlevel.obj
 0002:00006da0       ??_C@_1M@KEJDAAHB@?$AAs?$AAe?$AA?9?$AAS?$AAE@ 0000000180087da0     libucrt:lcidtoname_downlevel.obj
 0002:00006db0       ??_C@_1M@HEIBJJAD@?$AAm?$AAs?$AA?9?$AAB?$AAN@ 0000000180087db0     libucrt:lcidtoname_downlevel.obj
 0002:00006dc0       ??_C@_1BG@PBGJMCEM@?$AAu?$AAz?$AA?9?$AAU?$AAZ?$AA?9?$AAC?$AAy?$AAr?$AAl@ 0000000180087dc0     libucrt:lcidtoname_downlevel.obj
 0002:00006de0       ??_C@_1O@LAOBCMDF@?$AAq?$AAu?$AAz?$AA?9?$AAE?$AAC@ 0000000180087de0     libucrt:lcidtoname_downlevel.obj
 0002:00006df0       ??_C@_1M@POEEMAIO@?$AAa?$AAr?$AA?9?$AAE?$AAG@ 0000000180087df0     libucrt:lcidtoname_downlevel.obj
 0002:00006e00       ??_C@_1M@EFAKDEDL@?$AAz?$AAh?$AA?9?$AAH?$AAK@ 0000000180087e00     libucrt:lcidtoname_downlevel.obj
 0002:00006e10       ??_C@_1M@HKKIJHGI@?$AAd?$AAe?$AA?9?$AAA?$AAT@ 0000000180087e10     libucrt:lcidtoname_downlevel.obj
 0002:00006e20       ??_C@_1M@KBFBEHJF@?$AAe?$AAn?$AA?9?$AAA?$AAU@ 0000000180087e20     libucrt:lcidtoname_downlevel.obj
 0002:00006e30       ??_C@_1M@MNPLFAAH@?$AAe?$AAs?$AA?9?$AAE?$AAS@ 0000000180087e30     libucrt:lcidtoname_downlevel.obj
 0002:00006e40       ??_C@_1M@HJOOJFMA@?$AAf?$AAr?$AA?9?$AAC?$AAA@ 0000000180087e40     libucrt:lcidtoname_downlevel.obj
 0002:00006e50       ??_C@_1BG@JPOFPNAB@?$AAs?$AAr?$AA?9?$AAS?$AAP?$AA?9?$AAC?$AAy?$AAr?$AAl@ 0000000180087e50     libucrt:lcidtoname_downlevel.obj
 0002:00006e70       ??_C@_1M@LNFOCMOB@?$AAs?$AAe?$AA?9?$AAF?$AAI@ 0000000180087e70     libucrt:lcidtoname_downlevel.obj
 0002:00006e80       ??_C@_1O@MGJBOAMB@?$AAq?$AAu?$AAz?$AA?9?$AAP?$AAE@ 0000000180087e80     libucrt:lcidtoname_downlevel.obj
 0002:00006e90       ??_C@_1M@GJINLBOK@?$AAa?$AAr?$AA?9?$AAL?$AAY@ 0000000180087e90     libucrt:lcidtoname_downlevel.obj
 0002:00006ea0       ??_C@_1M@GGMNHJNL@?$AAz?$AAh?$AA?9?$AAS?$AAG@ 0000000180087ea0     libucrt:lcidtoname_downlevel.obj
 0002:00006eb0       ??_C@_1M@HOIKODND@?$AAd?$AAe?$AA?9?$AAL?$AAU@ 0000000180087eb0     libucrt:lcidtoname_downlevel.obj
 0002:00006ec0       ??_C@_1M@DDOCCGFG@?$AAe?$AAn?$AA?9?$AAC?$AAA@ 0000000180087ec0     libucrt:lcidtoname_downlevel.obj
 0002:00006ed0       ??_C@_1M@BNOEMJLF@?$AAe?$AAs?$AA?9?$AAG?$AAT@ 0000000180087ed0     libucrt:lcidtoname_downlevel.obj
 0002:00006ee0       ??_C@_1M@EOGNKEK@?$AAf?$AAr?$AA?9?$AAC?$AAH@ 0000000180087ee0     libucrt:lcidtoname_downlevel.obj
 0002:00006ef0       ??_C@_1M@FLIDJFHL@?$AAh?$AAr?$AA?9?$AAB?$AAA@ 0000000180087ef0     libucrt:lcidtoname_downlevel.obj
 0002:00006f00       ??_C@_1O@FMCELNAJ@?$AAs?$AAm?$AAj?$AA?9?$AAN?$AAO@ 0000000180087f00     libucrt:lcidtoname_downlevel.obj
 0002:00006f10       ??_C@_1M@JHGLJMGJ@?$AAa?$AAr?$AA?9?$AAD?$AAZ@ 0000000180087f10     libucrt:lcidtoname_downlevel.obj
 0002:00006f20       ??_C@_1M@JKKFDCNP@?$AAz?$AAh?$AA?9?$AAM?$AAO@ 0000000180087f20     libucrt:lcidtoname_downlevel.obj
 0002:00006f30       ??_C@_1M@GEEFALPE@?$AAd?$AAe?$AA?9?$AAL?$AAI@ 0000000180087f30     libucrt:lcidtoname_downlevel.obj
 0002:00006f40       ??_C@_1M@IGEOFBG@?$AAe?$AAn?$AA?9?$AAN?$AAZ@ 0000000180087f40     libucrt:lcidtoname_downlevel.obj
 0002:00006f50       ??_C@_1M@KDBONEHP@?$AAe?$AAs?$AA?9?$AAC?$AAR@ 0000000180087f50     libucrt:lcidtoname_downlevel.obj
 0002:00006f60       ??_C@_1M@FHMDOHNN@?$AAf?$AAr?$AA?9?$AAL?$AAU@ 0000000180087f60     libucrt:lcidtoname_downlevel.obj
 0002:00006f70       ??_C@_1BG@NFKKMAFG@?$AAb?$AAs?$AA?9?$AAB?$AAA?$AA?9?$AAL?$AAa?$AAt?$AAn@ 0000000180087f70     libucrt:lcidtoname_downlevel.obj
 0002:00006f90       ??_C@_1O@IMNBEMCI@?$AAs?$AAm?$AAj?$AA?9?$AAS?$AAE@ 0000000180087f90     libucrt:lcidtoname_downlevel.obj
 0002:00006fa0       ??_C@_1M@DHHMBNDP@?$AAa?$AAr?$AA?9?$AAM?$AAA@ 0000000180087fa0     libucrt:lcidtoname_downlevel.obj
 0002:00006fb0       ??_C@_1M@BNBLJCGH@?$AAe?$AAn?$AA?9?$AAI?$AAE@ 0000000180087fb0     libucrt:lcidtoname_downlevel.obj
 0002:00006fc0       ??_C@_1M@GEPAFMDL@?$AAe?$AAs?$AA?9?$AAP?$AAA@ 0000000180087fc0     libucrt:lcidtoname_downlevel.obj
 0002:00006fd0       ??_C@_1M@OJONDMDL@?$AAf?$AAr?$AA?9?$AAM?$AAC@ 0000000180087fd0     libucrt:lcidtoname_downlevel.obj
 0002:00006fe0       ??_C@_1BG@OBCNFJB@?$AAs?$AAr?$AA?9?$AAB?$AAA?$AA?9?$AAL?$AAa?$AAt?$AAn@ 0000000180087fe0     libucrt:lcidtoname_downlevel.obj
 0002:00007000       ??_C@_1O@KEMEEGPO@?$AAs?$AAm?$AAa?$AA?9?$AAN?$AAO@ 0000000180088000     libucrt:lcidtoname_downlevel.obj
 0002:00007010       ??_C@_1M@ELMGFODK@?$AAa?$AAr?$AA?9?$AAT?$AAN@ 0000000180088010     libucrt:lcidtoname_downlevel.obj
 0002:00007020       ??_C@_1M@BHDLHFAF@?$AAe?$AAn?$AA?9?$AAZ?$AAA@ 0000000180088020     libucrt:lcidtoname_downlevel.obj
 0002:00007030       ??_C@_1M@BMGIGLIF@?$AAe?$AAs?$AA?9?$AAD?$AAO@ 0000000180088030     libucrt:lcidtoname_downlevel.obj
 0002:00007040       ??_C@_1BG@CMBHIPBE@?$AAs?$AAr?$AA?9?$AAB?$AAA?$AA?9?$AAC?$AAy?$AAr?$AAl@ 0000000180088040     libucrt:lcidtoname_downlevel.obj
 0002:00007060       ??_C@_1O@HEDBLHNP@?$AAs?$AAm?$AAa?$AA?9?$AAS?$AAE@ 0000000180088060     libucrt:lcidtoname_downlevel.obj
 0002:00007070       ??_C@_1M@DAGCADIM@?$AAa?$AAr?$AA?9?$AAO?$AAM@ 0000000180088070     libucrt:lcidtoname_downlevel.obj
 0002:00007080       ??_C@_1M@FODLMICG@?$AAe?$AAn?$AA?9?$AAJ?$AAM@ 0000000180088080     libucrt:lcidtoname_downlevel.obj
 0002:00007090       ??_C@_1M@DNMLCIHB@?$AAe?$AAs?$AA?9?$AAV?$AAE@ 0000000180088090     libucrt:lcidtoname_downlevel.obj
 0002:000070a0       ??_C@_1O@EOKHMKJK@?$AAs?$AAm?$AAs?$AA?9?$AAF?$AAI@ 00000001800880a0     libucrt:lcidtoname_downlevel.obj
 0002:000070b0       ??_C@_1M@CAFJMKOF@?$AAa?$AAr?$AA?9?$AAY?$AAE@ 00000001800880b0     libucrt:lcidtoname_downlevel.obj
 0002:000070c0       ??_C@_1M@CBFHIJLI@?$AAe?$AAn?$AA?9?$AAC?$AAB@ 00000001800880c0     libucrt:lcidtoname_downlevel.obj
 0002:000070d0       ??_C@_1M@BGNFLDN@?$AAe?$AAs?$AA?9?$AAC?$AAO@ 00000001800880d0     libucrt:lcidtoname_downlevel.obj
 0002:000070e0       ??_C@_1O@JMPHMAMC@?$AAs?$AAm?$AAn?$AA?9?$AAF?$AAI@ 00000001800880e0     libucrt:lcidtoname_downlevel.obj
 0002:000070f0       ??_C@_1M@JLANABKE@?$AAa?$AAr?$AA?9?$AAS?$AAY@ 00000001800880f0     libucrt:lcidtoname_downlevel.obj
 0002:00007100       ??_C@_1M@HPKGCFGN@?$AAe?$AAn?$AA?9?$AAB?$AAZ@ 0000000180088100     libucrt:lcidtoname_downlevel.obj
 0002:00007110       ??_C@_1M@OLJCMLGM@?$AAe?$AAs?$AA?9?$AAP?$AAE@ 0000000180088110     libucrt:lcidtoname_downlevel.obj
 0002:00007120       ??_C@_1M@MKKGFKLE@?$AAa?$AAr?$AA?9?$AAJ?$AAO@ 0000000180088120     libucrt:lcidtoname_downlevel.obj
 0002:00007130       ??_C@_1M@EKPGLDNI@?$AAe?$AAn?$AA?9?$AAT?$AAT@ 0000000180088130     libucrt:lcidtoname_downlevel.obj
 0002:00007140       ??_C@_1M@OONGHFHE@?$AAe?$AAs?$AA?9?$AAA?$AAR@ 0000000180088140     libucrt:lcidtoname_downlevel.obj
 0002:00007150       ??_C@_1M@OOJFGBHE@?$AAa?$AAr?$AA?9?$AAL?$AAB@ 0000000180088150     libucrt:lcidtoname_downlevel.obj
 0002:00007160       ??_C@_1M@GCEJHNEG@?$AAe?$AAn?$AA?9?$AAZ?$AAW@ 0000000180088160     libucrt:lcidtoname_downlevel.obj
 0002:00007170       ??_C@_1M@JNOCAHJI@?$AAe?$AAs?$AA?9?$AAE?$AAC@ 0000000180088170     libucrt:lcidtoname_downlevel.obj
 0002:00007180       ??_C@_1M@JEFHPGGB@?$AAa?$AAr?$AA?9?$AAK?$AAW@ 0000000180088180     libucrt:lcidtoname_downlevel.obj
 0002:00007190       ??_C@_1M@MLKIBJOJ@?$AAe?$AAn?$AA?9?$AAP?$AAH@ 0000000180088190     libucrt:lcidtoname_downlevel.obj
 0002:000071a0       ??_C@_1M@BDNIPEND@?$AAe?$AAs?$AA?9?$AAC?$AAL@ 00000001800881a0     libucrt:lcidtoname_downlevel.obj
 0002:000071b0       ??_C@_1M@MPNMEKBD@?$AAa?$AAr?$AA?9?$AAA?$AAE@ 00000001800881b0     libucrt:lcidtoname_downlevel.obj
 0002:000071c0       ??_C@_1M@KBJALCPI@?$AAe?$AAs?$AA?9?$AAU?$AAY@ 00000001800881c0     libucrt:lcidtoname_downlevel.obj
 0002:000071d0       ??_C@_1M@LLCCOAGA@?$AAa?$AAr?$AA?9?$AAB?$AAH@ 00000001800881d0     libucrt:lcidtoname_downlevel.obj
 0002:000071e0       ??_C@_1M@PBFNCDEL@?$AAe?$AAs?$AA?9?$AAP?$AAY@ 00000001800881e0     libucrt:lcidtoname_downlevel.obj
 0002:000071f0       ??_C@_1M@EDGINPNP@?$AAa?$AAr?$AA?9?$AAQ?$AAA@ 00000001800881f0     libucrt:lcidtoname_downlevel.obj
 0002:00007200       ??_C@_1M@MKDBIIJI@?$AAe?$AAs?$AA?9?$AAB?$AAO@ 0000000180088200     libucrt:lcidtoname_downlevel.obj
 0002:00007210       ??_C@_1M@CPKKEBLD@?$AAe?$AAs?$AA?9?$AAS?$AAV@ 0000000180088210     libucrt:lcidtoname_downlevel.obj
 0002:00007220       ??_C@_1M@NDBGMMJL@?$AAe?$AAs?$AA?9?$AAH?$AAN@ 0000000180088220     libucrt:lcidtoname_downlevel.obj
 0002:00007230       ??_C@_1M@JIJIBHDP@?$AAe?$AAs?$AA?9?$AAN?$AAI@ 0000000180088230     libucrt:lcidtoname_downlevel.obj
 0002:00007240       ??_C@_1M@CGFMKEEK@?$AAe?$AAs?$AA?9?$AAP?$AAR@ 0000000180088240     libucrt:lcidtoname_downlevel.obj
 0002:00007250       ??_C@_1O@ICJHKIIK@?$AAz?$AAh?$AA?9?$AAC?$AAH?$AAT@ 0000000180088250     libucrt:lcidtoname_downlevel.obj
 0002:00007260       ??_C@_15CLNEJCE@?$AAs?$AAr@ 0000000180088260     libucrt:lcidtoname_downlevel.obj
 0002:00008390       ??_C@_1M@KAHEKEIG@?$AAa?$AAf?$AA?9?$AAz?$AAa@ 0000000180089390     libucrt:lcidtoname_downlevel.obj
 0002:000083a0       ??_C@_1M@GIECOABL@?$AAa?$AAr?$AA?9?$AAa?$AAe@ 00000001800893a0     libucrt:lcidtoname_downlevel.obj
 0002:000083b0       ??_C@_1M@BMLMEKGI@?$AAa?$AAr?$AA?9?$AAb?$AAh@ 00000001800893b0     libucrt:lcidtoname_downlevel.obj
 0002:000083c0       ??_C@_1M@DAPFDGGB@?$AAa?$AAr?$AA?9?$AAd?$AAz@ 00000001800893c0     libucrt:lcidtoname_downlevel.obj
 0002:000083d0       ??_C@_1M@FJNKGKIG@?$AAa?$AAr?$AA?9?$AAe?$AAg@ 00000001800893d0     libucrt:lcidtoname_downlevel.obj
 0002:000083e0       ??_C@_1M@FLGKKCLO@?$AAa?$AAr?$AA?9?$AAi?$AAq@ 00000001800893e0     libucrt:lcidtoname_downlevel.obj
 0002:000083f0       ??_C@_1M@GNDIPALM@?$AAa?$AAr?$AA?9?$AAj?$AAo@ 00000001800893f0     libucrt:lcidtoname_downlevel.obj
 0002:00008400       ??_C@_1M@DDMJFMGJ@?$AAa?$AAr?$AA?9?$AAk?$AAw@ 0000000180089400     libucrt:lcidtoname_downlevel.obj
 0002:00008410       ??_C@_1M@EJALMLHM@?$AAa?$AAr?$AA?9?$AAl?$AAb@ 0000000180089410     libucrt:lcidtoname_downlevel.obj
 0002:00008420       ??_C@_1M@MOBDBLOC@?$AAa?$AAr?$AA?9?$AAl?$AAy@ 0000000180089420     libucrt:lcidtoname_downlevel.obj
 0002:00008430       ??_C@_1M@JAOCLHDH@?$AAa?$AAr?$AA?9?$AAm?$AAa@ 0000000180089430     libucrt:lcidtoname_downlevel.obj
 0002:00008440       ??_C@_1M@JHPMKJIE@?$AAa?$AAr?$AA?9?$AAo?$AAm@ 0000000180089440     libucrt:lcidtoname_downlevel.obj
 0002:00008450       ??_C@_1M@OEPGHFNH@?$AAa?$AAr?$AA?9?$AAq?$AAa@ 0000000180089450     libucrt:lcidtoname_downlevel.obj
 0002:00008460       ??_C@_1M@KJDONENM@?$AAa?$AAr?$AA?9?$AAs?$AAa@ 0000000180089460     libucrt:lcidtoname_downlevel.obj
 0002:00008470       ??_C@_1M@DMJDKLKM@?$AAa?$AAr?$AA?9?$AAs?$AAy@ 0000000180089470     libucrt:lcidtoname_downlevel.obj
 0002:00008480       ??_C@_1M@OMFIPEDC@?$AAa?$AAr?$AA?9?$AAt?$AAn@ 0000000180089480     libucrt:lcidtoname_downlevel.obj
 0002:00008490       ??_C@_1M@IHMHGAON@?$AAa?$AAr?$AA?9?$AAy?$AAe@ 0000000180089490     libucrt:lcidtoname_downlevel.obj
 0002:000084a0       ??_C@_1BG@KDCPGJGB@?$AAa?$AAz?$AA?9?$AAa?$AAz?$AA?9?$AAc?$AAy?$AAr?$AAl@ 00000001800894a0     libucrt:lcidtoname_downlevel.obj
 0002:000084c0       ??_C@_1BG@IBCKDDOE@?$AAa?$AAz?$AA?9?$AAa?$AAz?$AA?9?$AAl?$AAa?$AAt?$AAn@ 00000001800894c0     libucrt:lcidtoname_downlevel.obj
 0002:000084e0       ??_C@_1M@EGPFDCPD@?$AAb?$AAe?$AA?9?$AAb?$AAy@ 00000001800894e0     libucrt:lcidtoname_downlevel.obj
 0002:000084f0       ??_C@_1M@PCMGMCGC@?$AAb?$AAg?$AA?9?$AAb?$AAg@ 00000001800894f0     libucrt:lcidtoname_downlevel.obj
 0002:00008500       ??_C@_1M@BJBMFGOB@?$AAb?$AAn?$AA?9?$AAi?$AAn@ 0000000180089500     libucrt:lcidtoname_downlevel.obj
 0002:00008510       ??_C@_1BG@EAKMMACD@?$AAb?$AAs?$AA?9?$AAb?$AAa?$AA?9?$AAl?$AAa?$AAt?$AAn@ 0000000180089510     libucrt:lcidtoname_downlevel.obj
 0002:00008530       ??_C@_1M@KGADAODK@?$AAc?$AAa?$AA?9?$AAe?$AAs@ 0000000180089530     libucrt:lcidtoname_downlevel.obj
 0002:00008540       ??_C@_1M@COAJPDHI@?$AAc?$AAs?$AA?9?$AAc?$AAz@ 0000000180089540     libucrt:lcidtoname_downlevel.obj
 0002:00008550       ??_C@_1M@DHBHFONH@?$AAc?$AAy?$AA?9?$AAg?$AAb@ 0000000180089550     libucrt:lcidtoname_downlevel.obj
 0002:00008560       ??_C@_1M@IMGKELGA@?$AAd?$AAa?$AA?9?$AAd?$AAk@ 0000000180089560     libucrt:lcidtoname_downlevel.obj
 0002:00008570       ??_C@_1M@NNDGDNGA@?$AAd?$AAe?$AA?9?$AAa?$AAt@ 0000000180089570     libucrt:lcidtoname_downlevel.obj
 0002:00008580       ??_C@_1M@IKDBHEEM@?$AAd?$AAe?$AA?9?$AAc?$AAh@ 0000000180089580     libucrt:lcidtoname_downlevel.obj
 0002:00008590       ??_C@_1M@GFFOJMCJ@?$AAd?$AAe?$AA?9?$AAd?$AAe@ 0000000180089590     libucrt:lcidtoname_downlevel.obj
 0002:000085a0       ??_C@_1M@MDNLKBPM@?$AAd?$AAe?$AA?9?$AAl?$AAi@ 00000001800895a0     libucrt:lcidtoname_downlevel.obj
 0002:000085b0       ??_C@_1M@NJBEEJNL@?$AAd?$AAe?$AA?9?$AAl?$AAu@ 00000001800895b0     libucrt:lcidtoname_downlevel.obj
 0002:000085c0       ??_C@_1O@GNNELBAP@?$AAd?$AAi?$AAv?$AA?9?$AAm?$AAv@ 00000001800895c0     libucrt:lcidtoname_downlevel.obj
 0002:000085d0       ??_C@_1M@EJLEOGAE@?$AAe?$AAl?$AA?9?$AAg?$AAr@ 00000001800895d0     libucrt:lcidtoname_downlevel.obj
 0002:000085e0       ??_C@_1M@GMPONJN@?$AAe?$AAn?$AA?9?$AAa?$AAu@ 00000001800895e0     libucrt:lcidtoname_downlevel.obj
 0002:000085f0       ??_C@_1M@NIDIIPGF@?$AAe?$AAn?$AA?9?$AAb?$AAz@ 00000001800895f0     libucrt:lcidtoname_downlevel.obj
 0002:00008600       ??_C@_1M@JEHMIMFO@?$AAe?$AAn?$AA?9?$AAc?$AAa@ 0000000180089600     libucrt:lcidtoname_downlevel.obj
 0002:00008610       ??_C@_1M@IGMJCDLA@?$AAe?$AAn?$AA?9?$AAc?$AAb@ 0000000180089610     libucrt:lcidtoname_downlevel.obj
 0002:00008620       ??_C@_1M@BNFIGBKG@?$AAe?$AAn?$AA?9?$AAg?$AAb@ 0000000180089620     libucrt:lcidtoname_downlevel.obj
 0002:00008630       ??_C@_1M@LKIFDIGP@?$AAe?$AAn?$AA?9?$AAi?$AAe@ 0000000180089630     libucrt:lcidtoname_downlevel.obj
 0002:00008640       ??_C@_1M@PJKFGCCO@?$AAe?$AAn?$AA?9?$AAj?$AAm@ 0000000180089640     libucrt:lcidtoname_downlevel.obj
 0002:00008650       ??_C@_1M@KPPKEPBO@?$AAe?$AAn?$AA?9?$AAn?$AAz@ 0000000180089650     libucrt:lcidtoname_downlevel.obj
 0002:00008660       ??_C@_1M@GMDGLDOB@?$AAe?$AAn?$AA?9?$AAp?$AAh@ 0000000180089660     libucrt:lcidtoname_downlevel.obj
 0002:00008670       ??_C@_1M@ONGIBJNA@?$AAe?$AAn?$AA?9?$AAt?$AAt@ 0000000180089670     libucrt:lcidtoname_downlevel.obj
 0002:00008680       ??_C@_1M@LLODPCMM@?$AAe?$AAn?$AA?9?$AAu?$AAs@ 0000000180089680     libucrt:lcidtoname_downlevel.obj
 0002:00008690       ??_C@_1M@LAKFNPAN@?$AAe?$AAn?$AA?9?$AAz?$AAa@ 0000000180089690     libucrt:lcidtoname_downlevel.obj
 0002:000086a0       ??_C@_1M@MFNHNHEO@?$AAe?$AAn?$AA?9?$AAz?$AAw@ 00000001800896a0     libucrt:lcidtoname_downlevel.obj
 0002:000086b0       ??_C@_1M@EJEINPHM@?$AAe?$AAs?$AA?9?$AAa?$AAr@ 00000001800896b0     libucrt:lcidtoname_downlevel.obj
 0002:000086c0       ??_C@_1M@GNKPCCJA@?$AAe?$AAs?$AA?9?$AAb?$AAo@ 00000001800896c0     libucrt:lcidtoname_downlevel.obj
 0002:000086d0       ??_C@_1M@LEEGFONL@?$AAe?$AAs?$AA?9?$AAc?$AAl@ 00000001800896d0     libucrt:lcidtoname_downlevel.obj
 0002:000086e0       ??_C@_1M@KGPDPBDF@?$AAe?$AAs?$AA?9?$AAc?$AAo@ 00000001800896e0     libucrt:lcidtoname_downlevel.obj
 0002:000086f0       ??_C@_1M@EIAHOHH@?$AAe?$AAs?$AA?9?$AAc?$AAr@ 00000001800896f0     libucrt:lcidtoname_downlevel.obj
 0002:00008700       ??_C@_1M@LLPGMBIN@?$AAe?$AAs?$AA?9?$AAd?$AAo@ 0000000180089700     libucrt:lcidtoname_downlevel.obj
 0002:00008710       ??_C@_1M@DKHMKNJA@?$AAe?$AAs?$AA?9?$AAe?$AAc@ 0000000180089710     libucrt:lcidtoname_downlevel.obj
 0002:00008720       ??_C@_1M@GKGFPKAP@?$AAe?$AAs?$AA?9?$AAe?$AAs@ 0000000180089720     libucrt:lcidtoname_downlevel.obj
 0002:00008730       ??_C@_1M@LKHKGDLN@?$AAe?$AAs?$AA?9?$AAg?$AAt@ 0000000180089730     libucrt:lcidtoname_downlevel.obj
 0002:00008740       ??_C@_1M@HEIIGGJD@?$AAe?$AAs?$AA?9?$AAh?$AAn@ 0000000180089740     libucrt:lcidtoname_downlevel.obj
 0002:00008750       ??_C@_1M@FBDHPPGD@?$AAe?$AAs?$AA?9?$AAm?$AAx@ 0000000180089750     libucrt:lcidtoname_downlevel.obj
 0002:00008760       ??_C@_1M@DPAGLNDH@?$AAe?$AAs?$AA?9?$AAn?$AAi@ 0000000180089760     libucrt:lcidtoname_downlevel.obj
 0002:00008770       ??_C@_1M@MDGOPGDD@?$AAe?$AAs?$AA?9?$AAp?$AAa@ 0000000180089770     libucrt:lcidtoname_downlevel.obj
 0002:00008780       ??_C@_1M@EMAMGBGE@?$AAe?$AAs?$AA?9?$AAp?$AAe@ 0000000180089780     libucrt:lcidtoname_downlevel.obj
 0002:00008790       ??_C@_1M@IBMCAOEC@?$AAe?$AAs?$AA?9?$AAp?$AAr@ 0000000180089790     libucrt:lcidtoname_downlevel.obj
 0002:000087a0       ??_C@_1M@FGMDIJED@?$AAe?$AAs?$AA?9?$AAp?$AAy@ 00000001800897a0     libucrt:lcidtoname_downlevel.obj
 0002:000087b0       ??_C@_1M@IIDEOLLL@?$AAe?$AAs?$AA?9?$AAs?$AAv@ 00000001800897b0     libucrt:lcidtoname_downlevel.obj
 0002:000087c0       ??_C@_1M@GAOBIPA@?$AAe?$AAs?$AA?9?$AAu?$AAy@ 00000001800897c0     libucrt:lcidtoname_downlevel.obj
 0002:000087d0       ??_C@_1M@JKFFICHJ@?$AAe?$AAs?$AA?9?$AAv?$AAe@ 00000001800897d0     libucrt:lcidtoname_downlevel.obj
