 win32_handmade

 Timestamp is 67db3745 (Wed Mar 19 17:29:41 2025)

 Preferred load address is 0000000140000000

 Start         Length     Name                   Class
 0001:00000000 0007dd20H .text$mn                CODE
 0001:0007dd20 00001040H .text$mn$00             CODE
 0001:0007ed60 00001e50H .text$mn$21             CODE
 0001:00080bb0 00001cc3H .text$x                 CODE
 0002:00000000 00000110H .CRT$XCA                DATA
 0002:00000110 00000110H .CRT$XCAA               DATA
 0002:00000220 00000110H .CRT$XCZ                DATA
 0002:00000330 00000110H .CRT$XIA                DATA
 0002:00000440 00000110H .CRT$XIAA               DATA
 0002:00000550 00000110H .CRT$XIAC               DATA
 0002:00000660 00000140H .CRT$XIC                DATA
 0002:000007a0 00000110H .CRT$XIZ                DATA
 0002:000008b0 00000110H .CRT$XPA                DATA
 0002:000009c0 00000120H .CRT$XPX                DATA
 0002:00000ae0 00000110H .CRT$XPXA               DATA
 0002:00000bf0 00000110H .CRT$XPZ                DATA
 0002:00000d00 00000110H .CRT$XTA                DATA
 0002:00000e10 00000110H .CRT$XTZ                DATA
 0002:00000f20 0000cbe0H .rdata                  DATA
 0002:0000db00 00000300H .rdata$00               DATA
 0002:0000de00 00000200H .rdata$CastGuardVftablesA DATA
 0002:0000e000 000001a0H .rdata$CastGuardVftablesC DATA
 0002:0000e1a0 0000060cH .rdata$r                DATA
 0002:0000e7ac 0000015cH .rdata$zzzdbg           DATA
 0002:0000e908 00000110H .rtc$IAA                DATA
 0002:0000ea18 00000110H .rtc$IZZ                DATA
 0002:0000eb28 00000110H .rtc$TAA                DATA
 0002:0000ec38 00000110H .rtc$TZZ                DATA
 0002:0000ed48 000070e0H .xdata                  DATA
 0002:00015e28 00000196H .xdata$x                DATA
 0002:00015fbe 00000000H .edata                  DATA
 0003:00000000 00000e40H .data                   DATA
 0003:00000e40 00000190H .data$r                 DATA
 0003:00000fd0 00000230H .data$rs                DATA
 0003:00001200 000020c1H .bss                    DATA
 0004:00000000 0000513cH .pdata                  DATA
 0005:00000000 00000568H .idata$5                DATA
 0005:00000568 00000050H .idata$2                DATA
 0005:000005b8 00000018H .idata$3                DATA
 0005:000005d0 00000568H .idata$4                DATA
 0005:00000b38 000009a3H .idata$6                DATA
 0006:00000000 00000175H .00cfg                  DATA
 0007:00000000 0000035fH _RDATA                  DATA

  Address         Publics by Value              Rva+Base               Lib:Object

 0000:00000000       __AbsoluteZero             0000000000000000     <absolute>
 0000:00000000       ___safe_se_handler_count   0000000000000000     <absolute>
 0000:00000000       ___safe_se_handler_table   0000000000000000     <absolute>
 0000:00000000       __arm64x_extra_rfe_table   0000000000000000     <absolute>
 0000:00000000       __arm64x_extra_rfe_table_size 0000000000000000     <absolute>
 0000:00000000       __arm64x_native_entrypoint 0000000000000000     <absolute>
 0000:00000000       __arm64x_redirection_metadata 0000000000000000     <absolute>
 0000:00000000       __arm64x_redirection_metadata_count 0000000000000000     <absolute>
 0000:00000000       __dynamic_value_reloc_table 0000000000000000     <absolute>
 0000:00000000       __enclave_config           0000000000000000     <absolute>
 0000:00000000       __guard_check_icall_a64n_fptr 0000000000000000     <absolute>
 0000:00000000       __guard_eh_cont_count      0000000000000000     <absolute>
 0000:00000000       __guard_eh_cont_table      0000000000000000     <absolute>
 0000:00000000       __guard_fids_count         0000000000000000     <absolute>
 0000:00000000       __guard_fids_table         0000000000000000     <absolute>
 0000:00000000       __guard_iat_count          0000000000000000     <absolute>
 0000:00000000       __guard_iat_table          0000000000000000     <absolute>
 0000:00000000       __guard_longjmp_count      0000000000000000     <absolute>
 0000:00000000       __guard_longjmp_table      0000000000000000     <absolute>
 0000:00000000       __hybrid_auxiliary_delayload_iat 0000000000000000     <absolute>
 0000:00000000       __hybrid_auxiliary_delayload_iat_copy 0000000000000000     <absolute>
 0000:00000000       __hybrid_auxiliary_iat     0000000000000000     <absolute>
 0000:00000000       __hybrid_auxiliary_iat_copy 0000000000000000     <absolute>
 0000:00000000       __hybrid_code_map          0000000000000000     <absolute>
 0000:00000000       __hybrid_code_map_count    0000000000000000     <absolute>
 0000:00000000       __hybrid_image_info_bitfield 0000000000000000     <absolute>
 0000:00000000       __volatile_metadata        0000000000000000     <absolute>
 0000:00000000       __x64_code_ranges_to_entry_points 0000000000000000     <absolute>
 0000:00000000       __x64_code_ranges_to_entry_points_count 0000000000000000     <absolute>
 0000:00000100       __guard_flags              0000000000000100     <absolute>
 0000:00000000       __ImageBase                0000000140000000     <linker-defined>
 0001:00006220       ?GameUpdateAndRenderStub@@YAXPEAUgame_memory@@PEAUgame_input@@PEAUgame_offscreen_buffer@@@Z 0000000140007220 f   win32_handmade.obj
 0001:00006240       ?GameGetSoundSamplesStub@@YAXPEAUgame_memory@@PEAUgame_sound_output_buffer@@@Z 0000000140007240 f   win32_handmade.obj
 0001:00006260       WinMain                    0000000140007260 f   win32_handmade.obj
 0001:00007700       ?XInputGetStateStub@@YAKKPEAU_XINPUT_STATE@@@Z 0000000140008700 f   win32_handmade.obj
 0001:00007720       ?XInputSetStateStub@@YAKKPEAU_XINPUT_STATE@@@Z 0000000140008720 f   win32_handmade.obj
 0001:00007740       ?DEBUGPlatformFreeFileMemory@@YAXPEAX@Z 0000000140008740 f   win32_handmade.obj
 0001:00007770       ?DEBUGPlatformReadEntireFile@@YA?AUdebug_read_file_result@@PEAD@Z 0000000140008770 f   win32_handmade.obj
 0001:000078b0       ?DEBUGPlatformWriteEntireFile@@YAHPEADIPEAX@Z 00000001400088b0 f   win32_handmade.obj
 0001:00007fb0       ?Win32MainWindowProc@@YA_JPEAUHWND__@@I_K_J@Z 0000000140008fb0 f   win32_handmade.obj
 0001:00008fe1       CopyFileA                  0000000140009fe1 f   kernel32:KERNEL32.dll
 0001:000099a0       ??$sprintf_s@$0PK@@@YAHAEAY0PK@DPEBDZZ 000000014000a9a0 f i win32_handmade.obj
 0001:000099f0       ?GetController@@YAPEAUgame_controller_input@@PEAUgame_input@@I@Z 000000014000a9f0 f i win32_handmade.obj
 0001:00009a50       ?SafeTruncateUInt64@@YAI_K@Z 000000014000aa50 f i win32_handmade.obj
 0001:00009a90       ?Win32DrawSoundBufferMarker@@YAXPEAUwin32_offscreen_buffer@@PEAUwin32_sound_output@@MHHHKI@Z 000000014000aa90 f i win32_handmade.obj
 0001:00009b20       ?Win32GetSecondsElapsed@@YAMT_LARGE_INTEGER@@0@Z 000000014000ab20 f i win32_handmade.obj
 0001:00009b70       ?Win32GetWallClock@@YA?AT_LARGE_INTEGER@@XZ 000000014000ab70 f i win32_handmade.obj
 0001:00009b90       __local_stdio_printf_options 000000014000ab90 f i win32_handmade.obj
 0001:00009ba0       _vsprintf_s_l              000000014000aba0 f i win32_handmade.obj
 0001:00009c30       sprintf_s                  000000014000ac30 f i win32_handmade.obj
 0001:00009ca0       vsprintf_s                 000000014000aca0 f i win32_handmade.obj
 0001:00009ced       TranslateMessage           000000014000aced f   user32:USER32.dll
 0001:00009cf3       DispatchMessageA           000000014000acf3 f   user32:USER32.dll
 0001:00009cf9       PeekMessageA               000000014000acf9 f   user32:USER32.dll
 0001:00009cff       DefWindowProcA             000000014000acff f   user32:USER32.dll
 0001:00009d05       RegisterClassA             000000014000ad05 f   user32:USER32.dll
 0001:00009d0b       CreateWindowExA            000000014000ad0b f   user32:USER32.dll
 0001:00009d11       GetDC                      000000014000ad11 f   user32:USER32.dll
 0001:00009d17       BeginPaint                 000000014000ad17 f   user32:USER32.dll
 0001:00009d1d       EndPaint                   000000014000ad1d f   user32:USER32.dll
 0001:00009d23       GetClientRect              000000014000ad23 f   user32:USER32.dll
 0001:00009d29       StretchDIBits              000000014000ad29 f   gdi32:GDI32.dll
 0001:00009d2f       timeBeginPeriod            000000014000ad2f f   winmm:WINMM.dll
 0001:00009d38       __GSHandlerCheck           000000014000ad38 f   LIBCMT:gshandler.obj
 0001:00009d5c       __GSHandlerCheckCommon     000000014000ad5c f   LIBCMT:gshandler.obj
 0001:00009de0       __security_check_cookie    000000014000ade0 f   LIBCMT:amdsecgs.obj
 0001:0000a10c       ?configure_argv@__scrt_narrow_argv_policy@@SAHXZ 000000014000b10c f i LIBCMT:exe_winmain.obj
 0001:0000a128       ?initialize_environment@__scrt_narrow_environment_policy@@SAHXZ 000000014000b128 f i LIBCMT:exe_winmain.obj
 0001:0000a168       ?set_app_type@__scrt_winmain_policy@@SAXXZ 000000014000b168 f i LIBCMT:exe_winmain.obj
 0001:0000a174       ?set_commode@__scrt_file_policy@@SAXXZ 000000014000b174 f i LIBCMT:exe_winmain.obj
 0001:0000a194       ?set_fmode@__scrt_file_policy@@SAXXZ 000000014000b194 f i LIBCMT:exe_winmain.obj
 0001:0000a1b0       WinMainCRTStartup          000000014000b1b0 f   LIBCMT:exe_winmain.obj
 0001:0000a1c8       __raise_securityfailure    000000014000b1c8 f   LIBCMT:gs_report.obj
 0001:0000a20c       __report_gsfailure         000000014000b20c f   LIBCMT:gs_report.obj
 0001:0000a314       __report_rangecheckfailure 000000014000b314 f   LIBCMT:gs_report.obj
 0001:0000a32c       __report_securityfailure   000000014000b32c f   LIBCMT:gs_report.obj
 0001:0000a3f0       __report_securityfailureEx 000000014000b3f0 f   LIBCMT:gs_report.obj
 0001:0000a6f4       NtCurrentTeb               000000014000b6f4 f i LIBCMT:utility.obj
 0001:0000a700       __scrt_acquire_startup_lock 000000014000b700 f   LIBCMT:utility.obj
 0001:0000a748       __scrt_dllmain_after_initialize_c 000000014000b748 f   LIBCMT:utility.obj
 0001:0000a78c       __scrt_dllmain_before_initialize_c 000000014000b78c f   LIBCMT:utility.obj
 0001:0000a7a8       __scrt_dllmain_crt_thread_attach 000000014000b7a8 f   LIBCMT:utility.obj
 0001:0000a7dc       __scrt_dllmain_crt_thread_detach 000000014000b7dc f   LIBCMT:utility.obj
 0001:0000a7f8       __scrt_dllmain_exception_filter 000000014000b7f8 f   LIBCMT:utility.obj
 0001:0000a870       __scrt_dllmain_uninitialize_c 000000014000b870 f   LIBCMT:utility.obj
 0001:0000a8ac       __scrt_dllmain_uninitialize_critical 000000014000b8ac f   LIBCMT:utility.obj
 0001:0000a8c8       __scrt_initialize_crt      000000014000b8c8 f   LIBCMT:utility.obj
 0001:0000a910       __scrt_initialize_onexit_tables 000000014000b910 f   LIBCMT:utility.obj
 0001:0000a9c0       __scrt_is_nonwritable_in_current_image 000000014000b9c0 f   LIBCMT:utility.obj
 0001:0000aa80       __scrt_release_startup_lock 000000014000ba80 f   LIBCMT:utility.obj
 0001:0000aab0       __scrt_uninitialize_crt    000000014000bab0 f   LIBCMT:utility.obj
 0001:0000aae4       _onexit                    000000014000bae4 f   LIBCMT:utility.obj
 0001:0000ab2c       at_quick_exit              000000014000bb2c f   LIBCMT:utility.obj
 0001:0000ab50       atexit                     000000014000bb50 f   LIBCMT:utility.obj
 0001:0000abf4       __security_init_cookie     000000014000bbf4 f   LIBCMT:gs_support.obj
 0001:0000accc       _matherr                   000000014000bccc f   LIBCMT:matherr.obj
 0001:0000acd0       _get_startup_argv_mode     000000014000bcd0 f   LIBCMT:argv_mode.obj
 0001:0000acd8       _get_startup_commit_mode   000000014000bcd8 f   LIBCMT:commit_mode.obj
 0001:0000acdc       _get_startup_file_mode     000000014000bcdc f   LIBCMT:file_mode.obj
 0001:0000ace4       _get_startup_new_mode      000000014000bce4 f   LIBCMT:new_mode.obj
 0001:0000ace8       _get_startup_thread_locale_mode 000000014000bce8 f   LIBCMT:thread_locale.obj
 0001:0000acec       ?__scrt_initialize_type_info@@YAXXZ 000000014000bcec f   LIBCMT:tncleanup.obj
 0001:0000ad00       ?__scrt_uninitialize_type_info@@YAXXZ 000000014000bd00 f   LIBCMT:tncleanup.obj
 0001:0000ad10       _should_initialize_environment 000000014000bd10 f   LIBCMT:env_mode.obj
 0001:0000ad14       _initialize_invalid_parameter_handler 000000014000bd14 f   LIBCMT:invalid_parameter_handler.obj
 0001:0000ad18       _initialize_denormal_control 000000014000bd18 f   LIBCMT:denormal_control.obj
 0001:0000ad1c       __local_stdio_scanf_options 000000014000bd1c f i LIBCMT:default_local_stdio_options.obj
 0001:0000ad28       __scrt_initialize_default_local_stdio_options 000000014000bd28 f   LIBCMT:default_local_stdio_options.obj
 0001:0000ad4c       __scrt_is_user_matherr_present 000000014000bd4c f   LIBCMT:matherr_detection.obj
 0001:0000ad5c       __scrt_get_dyn_tls_init_callback 000000014000bd5c f   LIBCMT:dyn_tls_init.obj
 0001:0000ad68       __scrt_get_dyn_tls_dtor_callback 000000014000bd68 f   LIBCMT:dyn_tls_dtor.obj
 0001:0000ad74       __crt_debugger_hook        000000014000bd74 f   LIBCMT:utility_desktop.obj
 0001:0000ad80       __scrt_fastfail            000000014000bd80 f   LIBCMT:utility_desktop.obj
 0001:0000af1c       __scrt_get_show_window_mode 000000014000bf1c f   LIBCMT:utility_desktop.obj
 0001:0000af64       __scrt_initialize_mta      000000014000bf64 f   LIBCMT:utility_desktop.obj
 0001:0000af6c       __scrt_initialize_winrt    000000014000bf6c f   LIBCMT:utility_desktop.obj
 0001:0000af70       __scrt_is_managed_app      000000014000bf70 f   LIBCMT:utility_desktop.obj
 0001:0000afd8       __scrt_set_unhandled_exception_filter 000000014000bfd8 f   LIBCMT:utility_desktop.obj
 0001:0000afec       __scrt_exe_initialize_mta  000000014000bfec f   LIBCMT:utility_desktop.obj
 0001:0000afec       __scrt_stub_for_initialize_mta 000000014000bfec f   LIBCMT:utility_desktop.obj
 0001:0000aff0       __scrt_unhandled_exception_filter 000000014000bff0 f   LIBCMT:utility_desktop.obj
 0001:0000b064       _RTC_Initialize            000000014000c064 f   LIBCMT:initsect.obj
 0001:0000b0b0       _RTC_Terminate             000000014000c0b0 f   LIBCMT:initsect.obj
 0001:0000b0fc       _guard_check_icall_nop     000000014000c0fc f i LIBCMT:guard_support.obj
 0001:0000b100       ReadNoFence64              000000014000c100 f i LIBCMT:guard_support.obj
 0001:0000b104       ReadPointerNoFence         000000014000c104 f i LIBCMT:guard_support.obj
 0001:0000b108       __castguard_check_failure_debugbreak 000000014000c108 f i LIBCMT:guard_support.obj
 0001:0000b12c       __castguard_check_failure_fastfail 000000014000c12c f i LIBCMT:guard_support.obj
 0001:0000b158       __castguard_check_failure_nop 000000014000c158 f i LIBCMT:guard_support.obj
 0001:0000b15c       __castguard_check_failure_os_handled 000000014000c15c f i LIBCMT:guard_support.obj
 0001:0000b1b8       __castguard_check_failure_user_handled 000000014000c1b8 f i LIBCMT:guard_support.obj
 0001:0000b244       __castguard_set_user_handler 000000014000c244 f i LIBCMT:guard_support.obj
 0001:0000b254       __castguard_slow_path_check_debugbreak 000000014000c254 f i LIBCMT:guard_support.obj
 0001:0000b298       __castguard_slow_path_check_fastfail 000000014000c298 f i LIBCMT:guard_support.obj
 0001:0000b2e0       __castguard_slow_path_check_nop 000000014000c2e0 f i LIBCMT:guard_support.obj
 0001:0000b2e4       __castguard_slow_path_check_os_handled 000000014000c2e4 f i LIBCMT:guard_support.obj
 0001:0000b344       __castguard_slow_path_check_user_handled 000000014000c344 f i LIBCMT:guard_support.obj
 0001:0000b3c8       _guard_icall_checks_enforced 000000014000c3c8 f i LIBCMT:guard_support.obj
 0001:0000b3e4       _guard_rf_checks_enforced  000000014000c3e4 f i LIBCMT:guard_support.obj
 0001:0000b3e8       __isa_available_init       000000014000c3e8 f   LIBCMT:cpu_disp.obj
 0001:0000b600       __scrt_is_ucrt_dll_in_use  000000014000c600 f   LIBCMT:ucrt_detection.obj
 0001:0000b610       CreateFileA                000000014000c610 f   kernel32:KERNEL32.dll
 0001:0000b616       GetFileSizeEx              000000014000c616 f   kernel32:KERNEL32.dll
 0001:0000b61c       ReadFile                   000000014000c61c f   kernel32:KERNEL32.dll
 0001:0000b622       WriteFile                  000000014000c622 f   kernel32:KERNEL32.dll
 0001:0000b628       OutputDebugStringA         000000014000c628 f   kernel32:KERNEL32.dll
 0001:0000b62e       CloseHandle                000000014000c62e f   kernel32:KERNEL32.dll
 0001:0000b634       QueryPerformanceCounter    000000014000c634 f   kernel32:KERNEL32.dll
 0001:0000b63a       QueryPerformanceFrequency  000000014000c63a f   kernel32:KERNEL32.dll
 0001:0000b640       Sleep                      000000014000c640 f   kernel32:KERNEL32.dll
 0001:0000b646       VirtualAlloc               000000014000c646 f   kernel32:KERNEL32.dll
 0001:0000b64c       VirtualFree                000000014000c64c f   kernel32:KERNEL32.dll
 0001:0000b652       GetProcAddress             000000014000c652 f   kernel32:KERNEL32.dll
 0001:0000b658       LoadLibraryA               000000014000c658 f   kernel32:KERNEL32.dll
 0001:0000b65e       RtlCaptureContext          000000014000c65e f   kernel32:KERNEL32.dll
 0001:0000b664       RtlLookupFunctionEntry     000000014000c664 f   kernel32:KERNEL32.dll
 0001:0000b66a       RtlVirtualUnwind           000000014000c66a f   kernel32:KERNEL32.dll
 0001:0000b670       UnhandledExceptionFilter   000000014000c670 f   kernel32:KERNEL32.dll
 0001:0000b676       SetUnhandledExceptionFilter 000000014000c676 f   kernel32:KERNEL32.dll
 0001:0000b67c       GetCurrentProcess          000000014000c67c f   kernel32:KERNEL32.dll
 0001:0000b682       TerminateProcess           000000014000c682 f   kernel32:KERNEL32.dll
 0001:0000b688       IsProcessorFeaturePresent  000000014000c688 f   kernel32:KERNEL32.dll
 0001:0000b68e       GetCurrentProcessId        000000014000c68e f   kernel32:KERNEL32.dll
 0001:0000b694       GetCurrentThreadId         000000014000c694 f   kernel32:KERNEL32.dll
 0001:0000b69a       GetSystemTimeAsFileTime    000000014000c69a f   kernel32:KERNEL32.dll
 0001:0000b6a0       InitializeSListHead        000000014000c6a0 f   kernel32:KERNEL32.dll
 0001:0000b6a6       IsDebuggerPresent          000000014000c6a6 f   kernel32:KERNEL32.dll
 0001:0000b6ac       GetStartupInfoW            000000014000c6ac f   kernel32:KERNEL32.dll
 0001:0000b6b2       GetModuleHandleW           000000014000c6b2 f   kernel32:KERNEL32.dll
 0001:0000b6b8       __C_specific_handler       000000014000c6b8 f   libvcruntime:riscchandler.obj
 0001:0000b954       __vcrt_initialize          000000014000c954 f   libvcruntime:initialization.obj
 0001:0000b988       __vcrt_thread_attach       000000014000c988 f   libvcruntime:initialization.obj
 0001:0000b9a4       __vcrt_thread_detach       000000014000c9a4 f   libvcruntime:initialization.obj
 0001:0000b9b8       __vcrt_uninitialize        000000014000c9b8 f   libvcruntime:initialization.obj
 0001:0000b9d8       __vcrt_uninitialize_critical 000000014000c9d8 f   libvcruntime:initialization.obj
 0001:0000ba00       ??$?RD@__crt_internal_free_policy@@QEBAXQEBD@Z 000000014000ca00 f i libvcruntime:std_type_info.obj
 0001:0000ba0c       ??$?RX@__crt_internal_free_policy@@QEBAXQEBX@Z 000000014000ca0c f i libvcruntime:std_type_info.obj
 0001:0000ba18       ??$__crt_interlocked_compare_exchange_pointer@$$CBDPEAD$$T@@YAPEBDPEDSEBDQEAD$$T@Z 000000014000ca18 f i libvcruntime:std_type_info.obj
 0001:0000ba24       ??$__crt_interlocked_read_pointer@$$CBD@@YAPEBDPEDSEBD@Z 000000014000ca24 f i libvcruntime:std_type_info.obj
 0001:0000ba2c       ??0?$__crt_unique_heap_ptr@DU__crt_internal_free_policy@@@@QEAA@QEAD@Z 000000014000ca2c f i libvcruntime:std_type_info.obj
 0001:0000ba34       ??0?$__crt_unique_heap_ptr@XU__crt_internal_free_policy@@@@QEAA@QEAX@Z 000000014000ca34 f i libvcruntime:std_type_info.obj
 0001:0000ba3c       ??1?$__crt_unique_heap_ptr@DU__crt_internal_free_policy@@@@QEAA@XZ 000000014000ca3c f i libvcruntime:std_type_info.obj
 0001:0000ba60       ??1?$__crt_unique_heap_ptr@XU__crt_internal_free_policy@@@@QEAA@XZ 000000014000ca60 f i libvcruntime:std_type_info.obj
 0001:0000ba84       ??B?$__crt_unique_heap_ptr@DU__crt_internal_free_policy@@@@QEBA_NXZ 000000014000ca84 f i libvcruntime:std_type_info.obj
 0001:0000ba90       ??B?$__crt_unique_heap_ptr@XU__crt_internal_free_policy@@@@QEBA_NXZ 000000014000ca90 f i libvcruntime:std_type_info.obj
 0001:0000bab4       ?__crt_interlocked_read_64@@YA_JPED_J@Z 000000014000cab4 f i libvcruntime:std_type_info.obj
 0001:0000babc       ?detach@?$__crt_unique_heap_ptr@XU__crt_internal_free_policy@@@@QEAAPEAXXZ 000000014000cabc f i libvcruntime:std_type_info.obj
 0001:0000bac8       ?get@?$__crt_unique_heap_ptr@DU__crt_internal_free_policy@@@@QEBAPEADXZ 000000014000cac8 f i libvcruntime:std_type_info.obj
 0001:0000bacc       ?get@?$__crt_unique_heap_ptr@XU__crt_internal_free_policy@@@@QEBAPEAXXZ 000000014000cacc f i libvcruntime:std_type_info.obj
 0001:0000bad0       ?is_valid@?$__crt_unique_heap_ptr@DU__crt_internal_free_policy@@@@QEBA_NXZ 000000014000cad0 f i libvcruntime:std_type_info.obj
 0001:0000badc       ?is_valid@?$__crt_unique_heap_ptr@XU__crt_internal_free_policy@@@@QEBA_NXZ 000000014000cadc f i libvcruntime:std_type_info.obj
 0001:0000bae8       ?release@?$__crt_unique_heap_ptr@DU__crt_internal_free_policy@@@@QEAAXXZ 000000014000cae8 f i libvcruntime:std_type_info.obj
 0001:0000bb0c       ?release@?$__crt_unique_heap_ptr@XU__crt_internal_free_policy@@@@QEAAXXZ 000000014000cb0c f i libvcruntime:std_type_info.obj
 0001:0000bb30       __std_type_info_compare    000000014000cb30 f   libvcruntime:std_type_info.obj
 0001:0000bb60       __std_type_info_destroy_list 000000014000cb60 f   libvcruntime:std_type_info.obj
 0001:0000bb94       __std_type_info_hash       000000014000cb94 f   libvcruntime:std_type_info.obj
 0001:0000bbdc       __std_type_info_name       000000014000cbdc f   libvcruntime:std_type_info.obj
 0001:0000bd38       __DestructExceptionObject  000000014000cd38 f   libvcruntime:ehhelpers.obj
 0001:0000bdc0       ?_CallMemberFunction0@@YAXQEAX0@Z 000000014000cdc0 f i libvcruntime:ehhelpers.obj
 0001:0000be34       ?raw_name@type_info@@QEBAPEBDXZ 000000014000ce34 f i libvcruntime:ehhelpers.obj
 0001:0000be3c       _IsExceptionObjectToBeDestroyed 000000014000ce3c f   libvcruntime:ehhelpers.obj
 0001:0000be78       _SetWinRTOutOfMemoryExceptionCallback 000000014000ce78 f   libvcruntime:ehhelpers.obj
 0001:0000be84       __AdjustPointer            000000014000ce84 f   libvcruntime:ehhelpers.obj
 0001:0000beb0       __FrameUnwindFilter        000000014000ceb0 f   libvcruntime:ehhelpers.obj
 0001:0000bf30       __GetPlatformExceptionInfo 000000014000cf30 f   libvcruntime:ehhelpers.obj
 0001:0000bfa4       __current_exception        000000014000cfa4 f   libvcruntime:ehhelpers.obj
 0001:0000bfbc       __current_exception_context 000000014000cfbc f   libvcruntime:ehhelpers.obj
 0001:0000bfd4       __processing_throw         000000014000cfd4 f   libvcruntime:ehhelpers.obj
 0001:0000bfec       __std_terminate            000000014000cfec f   libvcruntime:ehhelpers.obj
 0001:0000bff8       _is_exception_typeof       000000014000cff8 f   libvcruntime:ehhelpers.obj
 0001:0000c110       _NLG_Notify                000000014000d110 f   libvcruntime:notify.obj
 0001:0000c140       __NLG_Dispatch2            000000014000d140 f   libvcruntime:notify.obj
 0001:0000c150       __NLG_Return2              000000014000d150 f   libvcruntime:notify.obj
 0001:0000c15c       __except_validate_context_record 000000014000d15c f   libvcruntime:jbcxrval.obj
 0001:0000c1a0       __except_validate_jump_buffer 000000014000d1a0 f   libvcruntime:jbcxrval.obj
 0001:0000c1f0       __except_validate_jump_buffer_common 000000014000d1f0 f i libvcruntime:jbcxrval.obj
 0001:0000c264       ??$?RU__vcrt_ptd@@@__crt_internal_free_policy@@QEBAXQEBU__vcrt_ptd@@@Z 000000014000d264 f i libvcruntime:per_thread_data.obj
 0001:0000c270       ??0?$__crt_unique_heap_ptr@U__vcrt_ptd@@U__crt_internal_free_policy@@@@QEAA@QEAU__vcrt_ptd@@@Z 000000014000d270 f i libvcruntime:per_thread_data.obj
 0001:0000c298       ??1?$__crt_unique_heap_ptr@U__vcrt_ptd@@U__crt_internal_free_policy@@@@QEAA@XZ 000000014000d298 f i libvcruntime:per_thread_data.obj
 0001:0000c2c8       ??B?$__crt_unique_heap_ptr@U__vcrt_ptd@@U__crt_internal_free_policy@@@@QEBA_NXZ 000000014000d2c8 f i libvcruntime:per_thread_data.obj
 0001:0000c2d4       ?detach@?$__crt_unique_heap_ptr@U__vcrt_ptd@@U__crt_internal_free_policy@@@@QEAAPEAU__vcrt_ptd@@XZ 000000014000d2d4 f i libvcruntime:per_thread_data.obj
 0001:0000c2e0       ?get@?$__crt_unique_heap_ptr@U__vcrt_ptd@@U__crt_internal_free_policy@@@@QEBAPEAU__vcrt_ptd@@XZ 000000014000d2e0 f i libvcruntime:per_thread_data.obj
 0001:0000c2e4       ?is_valid@?$__crt_unique_heap_ptr@U__vcrt_ptd@@U__crt_internal_free_policy@@@@QEBA_NXZ 000000014000d2e4 f i libvcruntime:per_thread_data.obj
 0001:0000c2f0       ?release@?$__crt_unique_heap_ptr@U__vcrt_ptd@@U__crt_internal_free_policy@@@@QEAAXXZ 000000014000d2f0 f i libvcruntime:per_thread_data.obj
 0001:0000c348       __vcrt_freefls             000000014000d348 f   libvcruntime:per_thread_data.obj
 0001:0000c370       __vcrt_freeptd_for_this_thread 000000014000d370 f   libvcruntime:per_thread_data.obj
 0001:0000c3c8       __vcrt_getptd              000000014000d3c8 f   libvcruntime:per_thread_data.obj
 0001:0000c3e8       __vcrt_getptd_noexit       000000014000d3e8 f   libvcruntime:per_thread_data.obj
 0001:0000c4d8       __vcrt_getptd_noinit       000000014000d4d8 f   libvcruntime:per_thread_data.obj
 0001:0000c538       __vcrt_initialize_ptd      000000014000d538 f   libvcruntime:per_thread_data.obj
 0001:0000c590       __vcrt_uninitialize_ptd    000000014000d590 f   libvcruntime:per_thread_data.obj
 0001:0000c5bc       __vcrt_initialize_locks    000000014000d5bc f   libvcruntime:locks.obj
 0001:0000c614       __vcrt_lock                000000014000d614 f   libvcruntime:locks.obj
 0001:0000c634       __vcrt_uninitialize_locks  000000014000d634 f   libvcruntime:locks.obj
 0001:0000c678       __vcrt_unlock              000000014000d678 f   libvcruntime:locks.obj
 0001:0000c698       ??$?0$00@DName@@QEAA@PEBDU?$StringLifeSelector@$00@@@Z 000000014000d698 f i libvcruntime:undname.obj
 0001:0000c6e8       ??$?0$00@pcharNode@@QEAA@PEBDHU?$StringLifeSelector@$00@@@Z 000000014000d6e8 f i libvcruntime:undname.obj
 0001:0000c704       ??$?0$01@DName@@QEAA@PEBDU?$StringLifeSelector@$01@@@Z 000000014000d704 f i libvcruntime:undname.obj
 0001:0000c754       ??$?0$01@pcharNode@@QEAA@PEBDHU?$StringLifeSelector@$01@@@Z 000000014000d754 f i libvcruntime:undname.obj
 0001:0000c7e4       ??$?0$0A@@DName@@QEAA@PEBDU?$StringLifeSelector@$0A@@@@Z 000000014000d7e4 f i libvcruntime:undname.obj
 0001:0000c834       ??$?0$0A@@pcharNode@@QEAA@PEBDHU?$StringLifeSelector@$0A@@@@Z 000000014000d834 f i libvcruntime:undname.obj
 0001:0000c8c4       ??$?0_K$0A@@?$optional@_K@std@@QEAA@$$QEA_K@Z 000000014000d8c4 f i libvcruntime:undname.obj
 0001:0000c8d8       ??$?0_K@?$_Optional_construct_base@_K@std@@QEAA@Uin_place_t@1@$$QEA_K@Z 000000014000d8d8 f i libvcruntime:undname.obj
 0001:0000c8ec       ??$?0_K@?$_Optional_destruct_base@_K$00@std@@QEAA@Uin_place_t@1@$$QEA_K@Z 000000014000d8ec f i libvcruntime:undname.obj
 0001:0000c900       ??$append@VDNameNode@@@DName@@AEAAXPEBVDNameNode@@@Z 000000014000d900 f i libvcruntime:undname.obj
 0001:0000c97c       ??$append@VDNameStatusNode@@@DName@@AEAAXPEBVDNameStatusNode@@@Z 000000014000d97c f i libvcruntime:undname.obj
 0001:0000c9f8       ??$append@VcharNode@@@DName@@AEAAXPEBVcharNode@@@Z 000000014000d9f8 f i libvcruntime:undname.obj
 0001:0000ca74       ??$append@VpDNameNode@@@DName@@AEAAXPEBVpDNameNode@@@Z 000000014000da74 f i libvcruntime:undname.obj
 0001:0000caf0       ??$append@VpcharNode@@@DName@@AEAAXPEBVpcharNode@@@Z 000000014000daf0 f i libvcruntime:undname.obj
 0001:0000cb6c       ??$doPchar@$00@DName@@AEAAXPEBDH@Z 000000014000db6c f i libvcruntime:undname.obj
 0001:0000cc38       ??$doPchar@$01@DName@@AEAAXPEBDH@Z 000000014000dc38 f i libvcruntime:undname.obj
 0001:0000ccf4       ??$doPchar@$0A@@DName@@AEAAXPEBDH@Z 000000014000dcf4 f i libvcruntime:undname.obj
 0001:0000cdb0       ??$forward@_K@std@@YA$$QEA_KAEA_K@Z 000000014000ddb0 f i libvcruntime:undname.obj
 0001:0000cf14       ??$size@D$04@std@@YA_KAEAY04$$CBD@Z 000000014000df14 f i libvcruntime:undname.obj
 0001:0000cf1c       ??0?$_Optional_construct_base@_K@std@@QEAA@XZ 000000014000df1c f i libvcruntime:undname.obj
 0001:0000cf28       ??0?$_Optional_destruct_base@_K$00@std@@QEAA@XZ 000000014000df28 f i libvcruntime:undname.obj
 0001:0000cf34       ??0?$optional@_K@std@@QEAA@XZ 000000014000df34 f i libvcruntime:undname.obj
 0001:0000cf40       ??0Block@_HeapManager@@QEAA@XZ 000000014000df40 f i libvcruntime:undname.obj
 0001:0000cf4c       ??0DName@@QEAA@AEAPEBDD@Z  000000014000df4c f   libvcruntime:undname.obj
 0001:0000d028       ??0DName@@QEAA@AEBUStringLiteral@@@Z 000000014000e028 f   libvcruntime:undname.obj
 0001:0000d060       ??0DName@@QEAA@AEBV0@@Z    000000014000e060 f i libvcruntime:undname.obj
 0001:0000d074       ??0DName@@QEAA@D@Z         000000014000e074 f   libvcruntime:undname.obj
 0001:0000d09c       ??0DName@@QEAA@PEAV0@@Z    000000014000e09c f   libvcruntime:undname.obj
 0001:0000d140       ??0DName@@QEAA@W4DNameStatus@@@Z 000000014000e140 f   libvcruntime:undname.obj
 0001:0000d17c       ??0DName@@QEAA@XZ          000000014000e17c f i libvcruntime:undname.obj
 0001:0000d18c       ??0DName@@QEAA@_J@Z        000000014000e18c f   libvcruntime:undname.obj
 0001:0000d25c       ??0DName@@QEAA@_K@Z        000000014000e25c f   libvcruntime:undname.obj
 0001:0000d308       ??0DNameNode@@IEAA@XZ      000000014000e308 f i libvcruntime:undname.obj
 0001:0000d31c       ??0Replicator@@QEAA@XZ     000000014000e31c f i libvcruntime:undname.obj
 0001:0000d358       ??0UnDecorator@@QEAA@PEBDP6APEADJ@ZK@Z 000000014000e358 f i libvcruntime:undname.obj
 0001:0000d42c       ??0_Nontrivial_dummy_type@std@@QEAA@XZ 000000014000e42c f i libvcruntime:undname.obj
 0001:0000d430       ??0charNode@@QEAA@D@Z      000000014000e430 f i libvcruntime:undname.obj
 0001:0000d448       ??0pDNameNode@@QEAA@PEAVDName@@@Z 000000014000e448 f   libvcruntime:undname.obj
 0001:0000d478       ??0pairNode@@QEAA@PEBVDNameNode@@0@Z 000000014000e478 f i libvcruntime:undname.obj
 0001:0000d4a0       ??2@YAPEAX_KAEAV_HeapManager@@H@Z 000000014000e4a0 f   libvcruntime:undname.obj
 0001:0000d4d4       ??4DName@@QEAAAEAV0@AEBUStringLiteral@@@Z 000000014000e4d4 f   libvcruntime:undname.obj
 0001:0000d504       ??4DName@@QEAAAEAV0@AEBV0@@Z 000000014000e504 f   libvcruntime:undname.obj
 0001:0000d518       ??4DName@@QEAAAEAV0@D@Z    000000014000e518 f i libvcruntime:undname.obj
 0001:0000d540       ??4DName@@QEAAAEAV0@PEAV0@@Z 000000014000e540 f   libvcruntime:undname.obj
 0001:0000d5d4       ??4DName@@QEAAAEAV0@W4DNameStatus@@@Z 000000014000e5d4 f   libvcruntime:undname.obj
 0001:0000d610       ??AReplicator@@QEBA?AVDName@@H@Z 000000014000e610 f   libvcruntime:undname.obj
 0001:0000d660       ??B?$optional@_K@std@@QEBA_NXZ 000000014000e660 f i libvcruntime:undname.obj
 0001:0000d664       ??D?$_Optional_construct_base@_K@std@@QEGAAAEA_KXZ 000000014000e664 f i libvcruntime:undname.obj
 0001:0000d668       ??H@YA?AVDName@@AEBUStringLiteral@@AEBV0@@Z 000000014000e668 f i libvcruntime:undname.obj
 0001:0000d6ac       ??H@YA?AVDName@@DAEBV0@@Z  000000014000e6ac f i libvcruntime:undname.obj
 0001:0000d700       ??H@YA?AVDName@@W4DNameStatus@@AEBV0@@Z 000000014000e700 f i libvcruntime:undname.obj
 0001:0000d744       ??HDName@@QEBA?AV0@AEBUStringLiteral@@@Z 000000014000e744 f   libvcruntime:undname.obj
 0001:0000d778       ??HDName@@QEBA?AV0@AEBV0@@Z 000000014000e778 f   libvcruntime:undname.obj
 0001:0000d7ac       ??HDName@@QEBA?AV0@D@Z     000000014000e7ac f   libvcruntime:undname.obj
 0001:0000d7e0       ??HDName@@QEBA?AV0@PEAV0@@Z 000000014000e7e0 f   libvcruntime:undname.obj
 0001:0000d814       ??HDName@@QEBA?AV0@W4DNameStatus@@@Z 000000014000e814 f   libvcruntime:undname.obj
 0001:0000d848       ??HStringLiteral@@QEBA?AU0@H@Z 000000014000e848 f i libvcruntime:undname.obj
 0001:0000d864       ??YDName@@QEAAAEAV0@AEBUStringLiteral@@@Z 000000014000e864 f   libvcruntime:undname.obj
 0001:0000d904       ??YDName@@QEAAAEAV0@AEBV0@@Z 000000014000e904 f   libvcruntime:undname.obj
 0001:0000d974       ??YDName@@QEAAAEAV0@D@Z    000000014000e974 f   libvcruntime:undname.obj
 0001:0000d9fc       ??YDName@@QEAAAEAV0@PEAV0@@Z 000000014000e9fc f   libvcruntime:undname.obj
 0001:0000dab4       ??YDName@@QEAAAEAV0@W4DNameStatus@@@Z 000000014000eab4 f   libvcruntime:undname.obj
 0001:0000db20       ??YReplicator@@QEAAAEAV0@AEBVDName@@@Z 000000014000eb20 f   libvcruntime:undname.obj
 0001:0000db90       ??_5DName@@QEAAAEAV0@AEBV0@@Z 000000014000eb90 f   libvcruntime:undname.obj
 0001:0000dbb0       ??__K_l@@YA?AUStringLiteral@@PEBD_K@Z 000000014000ebb0 f i libvcruntime:undname.obj
 0001:0000dbc0       ?Constructor@_HeapManager@@QEAAXP6APEAX_K@ZP6AXPEAX@Z@Z 000000014000ebc0 f i libvcruntime:undname.obj
 0001:0000dbdc       ?Destructor@_HeapManager@@QEAAXXZ 000000014000ebdc f i libvcruntime:undname.obj
 0001:0000dc38       ?UScore@UnDecorator@@SA?AUStringLiteral@@W4Tokens@@@Z 000000014000ec38 f   libvcruntime:undname.obj
 0001:0000dc98       ?composeDeclaration@UnDecorator@@CA?AVDName@@AEBV2@@Z 000000014000ec98 f i libvcruntime:undname.obj
 0001:0000f04c       ?doAccessSpecifiers@UnDecorator@@SAHXZ 000000014001004c f i libvcruntime:undname.obj
 0001:0000f060       ?doAllocationLanguage@UnDecorator@@SAHXZ 0000000140010060 f i libvcruntime:undname.obj
 0001:0000f074       ?doAllocationModel@UnDecorator@@SAHXZ 0000000140010074 f i libvcruntime:undname.obj
 0001:0000f088       ?doEcsu@UnDecorator@@SAHXZ 0000000140010088 f i libvcruntime:undname.obj
 0001:0000f09c       ?doEllipsis@UnDecorator@@SAHXZ 000000014001009c f i libvcruntime:undname.obj
 0001:0000f0b0       ?doFunctionReturns@UnDecorator@@SAHXZ 00000001400100b0 f i libvcruntime:undname.obj
 0001:0000f0c4       ?doMSKeywords@UnDecorator@@SAHXZ 00000001400100c4 f i libvcruntime:undname.obj
 0001:0000f0d8       ?doMemberTypes@UnDecorator@@SAHXZ 00000001400100d8 f i libvcruntime:undname.obj
 0001:0000f0ec       ?doNameOnly@UnDecorator@@SAHXZ 00000001400100ec f i libvcruntime:undname.obj
 0001:0000f0fc       ?doNoIdentCharCheck@UnDecorator@@SAHXZ 00000001400100fc f i libvcruntime:undname.obj
 0001:0000f10c       ?doPchar@DName@@AEAAXD@Z   000000014001010c f   libvcruntime:undname.obj
 0001:0000f170       ?doPtr64@UnDecorator@@SAHXZ 0000000140010170 f i libvcruntime:undname.obj
 0001:0000f184       ?doRestrictionSpec@UnDecorator@@SAHXZ 0000000140010184 f i libvcruntime:undname.obj
 0001:0000f198       ?doThisTypes@UnDecorator@@SAHXZ 0000000140010198 f i libvcruntime:undname.obj
 0001:0000f1b0       ?doThrowTypes@UnDecorator@@SAHXZ 00000001400101b0 f i libvcruntime:undname.obj
 0001:0000f1c4       ?doTypeOnly@UnDecorator@@SAHXZ 00000001400101c4 f i libvcruntime:undname.obj
 0001:0000f1d4       ?doUnderScore@UnDecorator@@SAHXZ 00000001400101d4 f i libvcruntime:undname.obj
 0001:0000f1e4       ?getAddressOf@UnDecorator@@CA?AVDName@@XZ 00000001400101e4 f   libvcruntime:undname.obj
 0001:0000f298       ?getArgumentList@UnDecorator@@CA?AVDName@@XZ 0000000140010298 f   libvcruntime:undname.obj
 0001:0000f47c       ?getArgumentTypes@UnDecorator@@CA?AVDName@@XZ 000000014001047c f   libvcruntime:undname.obj
 0001:0000f61c       ?getArrayAccess@UnDecorator@@CA?AVDName@@XZ 000000014001061c f   libvcruntime:undname.obj
 0001:0000f6dc       ?getArrayObject@UnDecorator@@CA?AVDName@@XZ 00000001400106dc f   libvcruntime:undname.obj
 0001:0000f7e0       ?getArrayType@UnDecorator@@CA?AVDName@@AEBV2@@Z 00000001400107e0 f i libvcruntime:undname.obj
 0001:0000fad4       ?getBasedType@UnDecorator@@CA?AVDName@@XZ 0000000140010ad4 f   libvcruntime:undname.obj
 0001:0000fc08       ?getBasicDataType@UnDecorator@@CA?AVDName@@AEBV2@@Z 0000000140010c08 f   libvcruntime:undname.obj
 0001:0001038c       ?getCHPEName@UnDecorator@@QEAAPEADPEADH@Z 000000014001138c f i libvcruntime:undname.obj
 0001:000104f0       ?getCallIndex@UnDecorator@@CA?AVDName@@XZ 00000001400114f0 f i libvcruntime:undname.obj
 0001:00010510       ?getCallingConvention@UnDecorator@@CA?AVDName@@XZ 0000000140011510 f   libvcruntime:undname.obj
 0001:00010678       ?getDataIndirectType@UnDecorator@@CA?AVDName@@AEBV2@W4IndirectionKind@@0H@Z 0000000140011678 f   libvcruntime:undname.obj
 0001:00011210       ?getDataIndirectType@UnDecorator@@CA?AVDName@@XZ 0000000140012210 f i libvcruntime:undname.obj
 0001:00011258       ?getDataType@UnDecorator@@CA?AVDName@@PEAV2@@Z 0000000140012258 f   libvcruntime:undname.obj
 0001:000113b0       ?getDecoratedName@UnDecorator@@CA?AVDName@@XZ 00000001400123b0 f   libvcruntime:undname.obj
 0001:00011750       ?getDimension@UnDecorator@@CA?AVDName@@_N@Z 0000000140012750 f   libvcruntime:undname.obj
 0001:000118ec       ?getDispatchTarget@UnDecorator@@CA?AVDName@@XZ 00000001400128ec f   libvcruntime:undname.obj
 0001:00011960       ?getDisplacement@UnDecorator@@CA?AVDName@@XZ 0000000140012960 f i libvcruntime:undname.obj
 0001:00011980       ?getECSUDataType@UnDecorator@@CA?AVDName@@XZ 0000000140012980 f   libvcruntime:undname.obj
 0001:00011bf8       ?getECSUName@UnDecorator@@CA?AVDName@@XZ 0000000140012bf8 f i libvcruntime:undname.obj
 0001:00011c14       ?getEnumType@UnDecorator@@CA?AVDName@@XZ 0000000140012c14 f i libvcruntime:undname.obj
 0001:00011d84       ?getExtendedDataIndirectType@UnDecorator@@CA?AVDName@@AEAW4IndirectionKind@@AEA_NH@Z 0000000140012d84 f   libvcruntime:undname.obj
 0001:00012088       ?getExternalDataType@UnDecorator@@CA?AVDName@@AEBV2@@Z 0000000140013088 f i libvcruntime:undname.obj
 0001:00012178       ?getFloatingPoint@UnDecorator@@CA?AVDName@@H@Z 0000000140013178 f   libvcruntime:undname.obj
 0001:00012338       ?getFunctionIndirectType@UnDecorator@@CA?AVDName@@AEBV2@@Z 0000000140013338 f   libvcruntime:undname.obj
 0001:000129bc       ?getGuardNumber@UnDecorator@@CA?AVDName@@XZ 00000001400139bc f i libvcruntime:undname.obj
 0001:000129dc       ?getLastChar@DName@@QEBADXZ 00000001400139dc f i libvcruntime:undname.obj
 0001:000129fc       ?getLastChar@DNameStatusNode@@UEBADXZ 00000001400139fc f i libvcruntime:undname.obj
 0001:00012a0c       ?getLastChar@charNode@@UEBADXZ 0000000140013a0c f i libvcruntime:undname.obj
 0001:00012a10       ?getLastChar@pDNameNode@@UEBADXZ 0000000140013a10 f i libvcruntime:undname.obj
 0001:00012a44       ?getLastChar@pairNode@@UEBADXZ 0000000140013a44 f i libvcruntime:undname.obj
 0001:00012a88       ?getLastChar@pcharNode@@UEBADXZ 0000000140013a88 f i libvcruntime:undname.obj
 0001:00012aa4       ?getLexicalFrame@UnDecorator@@CA?AVDName@@XZ 0000000140013aa4 f i libvcruntime:undname.obj
 0001:00012b20       ?getMemberAccess@UnDecorator@@CA?AVDName@@XZ 0000000140013b20 f   libvcruntime:undname.obj
 0001:00012bd8       ?getMemoryWithBuffer@_HeapManager@@QEAAPEAX_K@Z 0000000140013bd8 f   libvcruntime:undname.obj
 0001:00012c8c       ?getMemoryWithoutBuffer@_HeapManager@@QEAAPEAX_K@Z 0000000140013c8c f   libvcruntime:undname.obj
 0001:00012ca4       ?getNoexcept@UnDecorator@@CA?AVDName@@XZ 0000000140013ca4 f   libvcruntime:undname.obj
 0001:00012d20       ?getNumberOfDimensions@UnDecorator@@CAHXZ 0000000140013d20 f   libvcruntime:undname.obj
 0001:00012d90       ?getOperatorName@UnDecorator@@CA?AVDName@@_NPEA_N@Z 0000000140013d90 f i libvcruntime:undname.obj
 0001:00013994       ?getPointerToMember@UnDecorator@@CA?AVDName@@XZ 0000000140014994 f   libvcruntime:undname.obj
 0001:00013ac8       ?getPointerType@UnDecorator@@CA?AVDName@@AEBV2@0@Z 0000000140014ac8 f i libvcruntime:undname.obj
 0001:00013aec       ?getPointerTypeArray@UnDecorator@@CA?AVDName@@AEBV2@0@Z 0000000140014aec f i libvcruntime:undname.obj
 0001:00013b0c       ?getPrimaryDataType@UnDecorator@@CA?AVDName@@AEBV2@@Z 0000000140014b0c f   libvcruntime:undname.obj
 0001:00013e74       ?getPtrRefDataType@UnDecorator@@CA?AVDName@@AEBV2@H@Z 0000000140014e74 f   libvcruntime:undname.obj
 0001:000140b4       ?getPtrRefType@UnDecorator@@CA?AVDName@@AEBV2@0W4IndirectionKind@@@Z 00000001400150b4 f   libvcruntime:undname.obj
 0001:00014314       ?getReferenceType@UnDecorator@@CA?AVDName@@AEBV2@0W4IndirectionKind@@@Z 0000000140015314 f i libvcruntime:undname.obj
 0001:00014330       ?getRestrictionSpec@UnDecorator@@CA?AVDName@@XZ 0000000140015330 f   libvcruntime:undname.obj
 0001:00014580       ?getReturnType@UnDecorator@@CA?AVDName@@PEAV2@@Z 0000000140015580 f   libvcruntime:undname.obj
 0001:000145c4       ?getScope@UnDecorator@@CA?AVDName@@XZ 00000001400155c4 f   libvcruntime:undname.obj
 0001:00014ba8       ?getScopedName@UnDecorator@@CA?AVDName@@XZ 0000000140015ba8 f   libvcruntime:undname.obj
 0001:00014d3c       ?getSignedDimension@UnDecorator@@CA?AVDName@@XZ 0000000140015d3c f   libvcruntime:undname.obj
 0001:00014de4       ?getStorageConvention@UnDecorator@@CA?AVDName@@XZ 0000000140015de4 f i libvcruntime:undname.obj
 0001:00014e2c       ?getString@DName@@QEBAPEADPEAD0@Z 0000000140015e2c f i libvcruntime:undname.obj
 0001:00014e4c       ?getString@DName@@QEBAPEADPEADH@Z 0000000140015e4c f i libvcruntime:undname.obj
 0001:00014f04       ?getString@DNameStatusNode@@UEBAPEADPEAD0@Z 0000000140015f04 f i libvcruntime:undname.obj
 0001:00014f5c       ?getString@charNode@@UEBAPEADPEAD0@Z 0000000140015f5c f i libvcruntime:undname.obj
 0001:00014f74       ?getString@pDNameNode@@UEBAPEADPEAD0@Z 0000000140015f74 f i libvcruntime:undname.obj
 0001:00014fac       ?getString@pairNode@@UEBAPEADPEAD0@Z 0000000140015fac f i libvcruntime:undname.obj
 0001:0001500c       ?getString@pcharNode@@UEBAPEADPEAD0@Z 000000014001600c f i libvcruntime:undname.obj
 0001:00015050       ?getStringEncoding@UnDecorator@@CA?AVDName@@W4PrefixKind@@H@Z 0000000140016050 f   libvcruntime:undname.obj
 0001:000151a0       ?getStringHelper@@YAPEADPEADPEBD1H@Z 00000001400161a0 f i libvcruntime:undname.obj
 0001:000151d8       ?getStringObject@UnDecorator@@CA?AVDName@@XZ 00000001400161d8 f   libvcruntime:undname.obj
 0001:0001528c       ?getSymbolName@UnDecorator@@CA?AVDName@@XZ 000000014001628c f i libvcruntime:undname.obj
 0001:000152ec       ?getTemplateArgumentList@UnDecorator@@CA?AVDName@@XZ 00000001400162ec f   libvcruntime:undname.obj
 0001:00015590       ?getTemplateName@UnDecorator@@CA?AVDName@@_N@Z 0000000140016590 f   libvcruntime:undname.obj
 0001:000158e8       ?getTemplateNonTypeArgument@UnDecorator@@CA?AVDName@@XZ 00000001400168e8 f   libvcruntime:undname.obj
 0001:00015f8c       ?getTemplateTypeArgument@UnDecorator@@CA?AVDName@@XZ 0000000140016f8c f   libvcruntime:undname.obj
 0001:00016150       ?getThisType@UnDecorator@@CA?AVDName@@XZ 0000000140017150 f i libvcruntime:undname.obj
 0001:000161a0       ?getThrowTypes@UnDecorator@@CA?AVDName@@XZ 00000001400171a0 f   libvcruntime:undname.obj
 0001:000161cc       ?getTypeEncoding@UnDecorator@@CAHXZ 00000001400171cc f i libvcruntime:undname.obj
 0001:00016678       ?getUndecoratedName@UnDecorator@@QEAAPEADPEADH@Z 0000000140017678 f i libvcruntime:undname.obj
 0001:00016820       ?getUnionObject@UnDecorator@@CA?AVDName@@XZ 0000000140017820 f   libvcruntime:undname.obj
 0001:0001692c       ?getVCallThunkType@UnDecorator@@CA?AVDName@@XZ 000000014001792c f i libvcruntime:undname.obj
 0001:000169c0       ?getValue@UnDecorator@@CA?AV?$optional@_K@std@@XZ 00000001400179c0 f   libvcruntime:undname.obj
 0001:00016a14       ?getValueObject@UnDecorator@@CA?AVDName@@XZ 0000000140017a14 f   libvcruntime:undname.obj
 0001:00016bf8       ?getVbTableType@UnDecorator@@CA?AVDName@@AEBV2@@Z 0000000140017bf8 f i libvcruntime:undname.obj
 0001:00016c14       ?getVdispMapType@UnDecorator@@CA?AVDName@@AEBV2@@Z 0000000140017c14 f i libvcruntime:undname.obj
 0001:00016cb0       ?getVfTableType@UnDecorator@@CA?AVDName@@AEBV2@@Z 0000000140017cb0 f i libvcruntime:undname.obj
 0001:00016f3c       ?getZName@UnDecorator@@CA?AVDName@@_N0@Z 0000000140017f3c f   libvcruntime:undname.obj
 0001:000172c8       ?get_current_character_and_increment_buffer@UnDecorator@@CADXZ 00000001400182c8 f i libvcruntime:undname.obj
 0001:000172e8       ?haveTemplateParameters@UnDecorator@@SAHXZ 00000001400182e8 f i libvcruntime:undname.obj
 0001:000172f8       ?increment_buffer@UnDecorator@@CA_N_K@Z 00000001400182f8 f i libvcruntime:undname.obj
 0001:00017330       ?increment_buffer_no_check@UnDecorator@@CAXXZ 0000000140018330 f i libvcruntime:undname.obj
 0001:0001733c       ?increment_buffer_no_check@UnDecorator@@CAX_K@Z 000000014001833c f i libvcruntime:undname.obj
 0001:00017348       ?isArray@DName@@QEBAHXZ    0000000140018348 f i libvcruntime:undname.obj
 0001:00017354       ?isComArray@DName@@QEBAHXZ 0000000140018354 f i libvcruntime:undname.obj
 0001:00017360       ?isEmpty@DName@@QEBAHXZ    0000000140018360 f i libvcruntime:undname.obj
 0001:0001736c       ?isFull@Replicator@@QEBAHXZ 000000014001836c f i libvcruntime:undname.obj
 0001:00017378       ?isNoTE@DName@@QEBAHXZ     0000000140018378 f i libvcruntime:undname.obj
 0001:00017384       ?isPinPtr@DName@@QEBAHXZ   0000000140018384 f i libvcruntime:undname.obj
 0001:00017390       ?isPtrRef@DName@@QEBAHXZ   0000000140018390 f i libvcruntime:undname.obj
 0001:0001739c       ?isUDC@DName@@QEBAHXZ      000000014001839c f i libvcruntime:undname.obj
 0001:000173b8       ?isUDTThunk@DName@@QEBAHXZ 00000001400183b8 f i libvcruntime:undname.obj
 0001:000173d4       ?isVCallThunk@DName@@QEBAHXZ 00000001400183d4 f i libvcruntime:undname.obj
 0001:000173e0       ?isValid@DName@@QEBAHXZ    00000001400183e0 f i libvcruntime:undname.obj
 0001:000173ec       ?length@DName@@QEBAHXZ     00000001400183ec f i libvcruntime:undname.obj
 0001:0001740c       ?length@DNameStatusNode@@UEBAHXZ 000000014001840c f i libvcruntime:undname.obj
 0001:00017410       ?length@charNode@@UEBAHXZ  0000000140018410 f i libvcruntime:undname.obj
 0001:00017418       ?length@pDNameNode@@UEBAHXZ 0000000140018418 f i libvcruntime:undname.obj
 0001:0001744c       ?length@pairNode@@UEBAHXZ  000000014001844c f i libvcruntime:undname.obj
 0001:000174a4       ?length@pcharNode@@UEBAHXZ 00000001400184a4 f i libvcruntime:undname.obj
 0001:000174a8       ?make@DNameStatusNode@@SAPEBV1@W4DNameStatus@@@Z 00000001400184a8 f i libvcruntime:undname.obj
 0001:000174d0       ?parseDecoratedName@UnDecorator@@CA?AVDName@@XZ 00000001400184d0 f   libvcruntime:undname.obj
 0001:0001762c       ?raw_length@DNameStatusNode@@UEBAHXZ 000000014001862c f i libvcruntime:undname.obj
 0001:00017630       ?raw_length@charNode@@UEBAHXZ 0000000140018630 f i libvcruntime:undname.obj
 0001:00017638       ?raw_length@pDNameNode@@UEBAHXZ 0000000140018638 f i libvcruntime:undname.obj
 0001:0001763c       ?raw_length@pairNode@@UEBAHXZ 000000014001863c f i libvcruntime:undname.obj
 0001:00017640       ?raw_length@pcharNode@@UEBAHXZ 0000000140018640 f i libvcruntime:undname.obj
 0001:00017644       ?setIsArray@DName@@QEAAXXZ 0000000140018644 f i libvcruntime:undname.obj
 0001:0001764c       ?setIsComArray@DName@@QEAAXXZ 000000014001864c f i libvcruntime:undname.obj
 0001:00017654       ?setIsNoTE@DName@@QEAAXXZ  0000000140018654 f i libvcruntime:undname.obj
 0001:0001765c       ?setIsPinPtr@DName@@QEAAXXZ 000000014001865c f i libvcruntime:undname.obj
 0001:00017664       ?setIsUDC@DName@@QEAAXXZ   0000000140018664 f i libvcruntime:undname.obj
 0001:00017674       ?setIsVCallThunk@DName@@QEAAXXZ 0000000140018674 f i libvcruntime:undname.obj
 0001:0001767c       ?setPtrRef@DName@@QEAAAEAV1@XZ 000000014001867c f i libvcruntime:undname.obj
 0001:00017688       ?status@DName@@QEBA?AW4DNameStatus@@XZ 0000000140018688 f i libvcruntime:undname.obj
 0001:00017700       __unDName                  0000000140018700 f   libvcruntime:undname.obj
 0001:00017730       __unDNameEx                0000000140018730 f   libvcruntime:undname.obj
 0001:00017858       snprintf                   0000000140018858 f i libvcruntime:undname.obj
 0001:000178c4       unDNameGenerateCHPE        00000001400188c4 f   libvcruntime:undname.obj
 0001:00017a60       vsnprintf                  0000000140018a60 f i libvcruntime:undname.obj
 0001:00017adc       ??$__crt_interlocked_exchange_pointer@UHINSTANCE__@@PEAU1@@@YAPEAUHINSTANCE__@@PEDSEAU0@QEAU0@@Z 0000000140018adc f i libvcruntime:winapi_downlevel.obj
 0001:00017ae4       ??$__crt_interlocked_exchange_pointer@UHINSTANCE__@@PEAX@@YAPEAUHINSTANCE__@@PEDSEAU0@QEAX@Z 0000000140018ae4 f i libvcruntime:winapi_downlevel.obj
 0001:00017aec       ??$__crt_interlocked_exchange_pointer@XPEAX@@YAPEAXPEDSEAXQEAX@Z 0000000140018aec f i libvcruntime:winapi_downlevel.obj
 0001:00017af4       ??$__crt_interlocked_read_pointer@UHINSTANCE__@@@@YAPEAUHINSTANCE__@@PEDSEAU0@@Z 0000000140018af4 f i libvcruntime:winapi_downlevel.obj
 0001:00017afc       ??$__crt_interlocked_read_pointer@X@@YAPEAXPEDSEAX@Z 0000000140018afc f i libvcruntime:winapi_downlevel.obj
 0001:00018184       __vcrt_FlsAlloc            0000000140019184 f   libvcruntime:winapi_downlevel.obj
 0001:000181dc       __vcrt_FlsFree             00000001400191dc f   libvcruntime:winapi_downlevel.obj
 0001:00018234       __vcrt_FlsGetValue         0000000140019234 f   libvcruntime:winapi_downlevel.obj
 0001:0001828c       __vcrt_FlsSetValue         000000014001928c f   libvcruntime:winapi_downlevel.obj
 0001:000182f4       __vcrt_InitializeCriticalSectionEx 00000001400192f4 f   libvcruntime:winapi_downlevel.obj
 0001:00018370       ??$__crt_interlocked_exchange_pointer@$$A6AXXZP6AXXZ@@YAP6AXXZPEDS6AXXZQ6AXXZ@Z 0000000140019370 f i libvcruntime:purevirt.obj
 0001:00018378       ??$__crt_interlocked_read_pointer@$$A6AXXZ@@YAP6AXXZPEDS6AXXZ@Z 0000000140019378 f i libvcruntime:purevirt.obj
 0001:00018380       _get_purecall_handler      0000000140019380 f   libvcruntime:purevirt.obj
 0001:0001838c       _purecall                  000000014001938c f   libvcruntime:purevirt.obj
 0001:000183ac       _set_purecall_handler      00000001400193ac f   libvcruntime:purevirt.obj
 0001:000183bc       ??$?0AEAViterator@TryBlockMap4@FH4@@AEAV012@$0A@@?$pair@Viterator@TryBlockMap4@FH4@@V123@@std@@QEAA@AEAViterator@TryBlockMap4@FH4@@0@Z 00000001400193bc f i libvcruntime:risctrnsctrl.obj
 0001:000183d8       ??$?0AEAViterator@TryBlockMap@__FrameHandler3@@AEAV012@$0A@@?$pair@Viterator@TryBlockMap@__FrameHandler3@@V123@@std@@QEAA@AEAViterator@TryBlockMap@__FrameHandler3@@0@Z 00000001400193d8 f i libvcruntime:risctrnsctrl.obj
 0001:000185c0       ??$_CallSETranslator@V__FrameHandler3@@@@YAHPEAUEHExceptionRecord@@PEA_KPEAU_CONTEXT@@PEAU_xDISPATCHER_CONTEXT@@PEBU_s_FuncInfo@@K1H@Z 00000001400195c0 f i libvcruntime:risctrnsctrl.obj
 0001:00018628       ??$_CallSETranslator@V__FrameHandler4@@@@YAHPEAUEHExceptionRecord@@PEA_KPEAU_CONTEXT@@PEAU_xDISPATCHER_CONTEXT@@PEAUFuncInfo4@FH4@@K1H@Z 0000000140019628 f i libvcruntime:risctrnsctrl.obj
 0001:00018690       ??$forward@AEAViterator@TryBlockMap4@FH4@@@std@@YAAEAViterator@TryBlockMap4@FH4@@AEAV123@@Z 0000000140019690 f i libvcruntime:risctrnsctrl.obj
 0001:00018694       ??$forward@AEAViterator@TryBlockMap@__FrameHandler3@@@std@@YAAEAViterator@TryBlockMap@__FrameHandler3@@AEAV123@@Z 0000000140019694 f i libvcruntime:risctrnsctrl.obj
 0001:00018698       ??0FuncInfo4@FH4@@QEAA@XZ  0000000140019698 f i libvcruntime:risctrnsctrl.obj
 0001:000186b0       ??0FuncInfoHeader@FH4@@QEAA@XZ 00000001400196b0 f i libvcruntime:risctrnsctrl.obj
 0001:000186b8       ??0iterator@TryBlockMap4@FH4@@QEAA@AEAV12@I@Z 00000001400196b8 f i libvcruntime:risctrnsctrl.obj
 0001:000186c8       ??0iterator@TryBlockMap@__FrameHandler3@@QEAA@AEAV12@I@Z 00000001400196c8 f i libvcruntime:risctrnsctrl.obj
 0001:000186d8       ??4iterator@TryBlockMap4@FH4@@QEAAAEAV012@AEBV012@@Z 00000001400196d8 f i libvcruntime:risctrnsctrl.obj
 0001:000186e4       ??9iterator@TryBlockMap4@FH4@@QEBA_NAEBV012@@Z 00000001400196e4 f i libvcruntime:risctrnsctrl.obj
 0001:000186f0       ??Diterator@TryBlockMap4@FH4@@QEAA?AUTryBlockMapEntry4@2@XZ 00000001400196f0 f i libvcruntime:risctrnsctrl.obj
 0001:00018704       ??Eiterator@TryBlockMap4@FH4@@QEAAAEAV012@XZ 0000000140019704 f i libvcruntime:risctrnsctrl.obj
 0001:000187c8       ?CatchTryBlock@__FrameHandler3@@SAPEBU_s_TryBlockMapEntry@@PEBU_s_FuncInfo@@H@Z 00000001400197c8 f   libvcruntime:risctrnsctrl.obj
 0001:00018844       ?DecompFuncInfo@FH4@@YA_JPEAEAEAUFuncInfo4@1@_KH@Z 0000000140019844 f i libvcruntime:risctrnsctrl.obj
 0001:0001885c       ?DecompFuncInfo@FH4@@YA_JPEAEAEAUFuncInfo4@1@_KH_N@Z 000000014001985c f i libvcruntime:risctrnsctrl.obj
 0001:000189dc       ?DecompTryBlock@TryBlockMap4@FH4@@AEAAXXZ 00000001400199dc f i libvcruntime:risctrnsctrl.obj
 0001:00018a94       ?ExecutionInCatch@__FrameHandler3@@SA_NPEAU_xDISPATCHER_CONTEXT@@PEBU_s_FuncInfo@@@Z 0000000140019a94 f   libvcruntime:risctrnsctrl.obj
 0001:00018ac8       ?ExecutionInCatch@__FrameHandler4@@SA_NPEAU_xDISPATCHER_CONTEXT@@PEAUFuncInfo4@FH4@@@Z 0000000140019ac8 f   libvcruntime:risctrnsctrl.obj
 0001:00018ad0       ?FrameUnwindToEmptyState@__FrameHandler3@@SAXPEA_KPEAU_xDISPATCHER_CONTEXT@@PEBU_s_FuncInfo@@@Z 0000000140019ad0 f   libvcruntime:risctrnsctrl.obj
 0001:00018b50       ?FrameUnwindToEmptyState@__FrameHandler4@@SAXPEA_KPEAU_xDISPATCHER_CONTEXT@@PEAUFuncInfo4@FH4@@@Z 0000000140019b50 f   libvcruntime:risctrnsctrl.obj
 0001:00018b90       ?GetEstablisherFrame@__FrameHandler3@@SAPEA_KPEA_KPEAU_xDISPATCHER_CONTEXT@@PEBU_s_FuncInfo@@0@Z 0000000140019b90 f   libvcruntime:risctrnsctrl.obj
 0001:00018c94       ?GetEstablisherFrame@__FrameHandler4@@SAPEA_KPEA_KPEAU_xDISPATCHER_CONTEXT@@PEAUFuncInfo4@FH4@@0@Z 0000000140019c94 f   libvcruntime:risctrnsctrl.obj
 0001:00018cc0       ?GetRangeOfTrysToCheck@__FrameHandler3@@SA?AU?$pair@Viterator@TryBlockMap@__FrameHandler3@@V123@@std@@AEAVTryBlockMap@1@HPEAU_xDISPATCHER_CONTEXT@@PEBU_s_FuncInfo@@H@Z 0000000140019cc0 f   libvcruntime:risctrnsctrl.obj
 0001:00018e40       ?GetRangeOfTrysToCheck@__FrameHandler4@@SA?AU?$pair@Viterator@TryBlockMap4@FH4@@V123@@std@@AEAVTryBlockMap4@FH4@@HPEAU_xDISPATCHER_CONTEXT@@PEAUFuncInfo4@5@H@Z 0000000140019e40 f   libvcruntime:risctrnsctrl.obj
 0001:00019004       ?ReadInt@FH4@@YAHPEAPEAE@Z 000000014001a004 f i libvcruntime:risctrnsctrl.obj
 0001:00019014       ?ReadUnsigned@FH4@@YAIPEAPEAE@Z 000000014001a014 f i libvcruntime:risctrnsctrl.obj
 0001:00019050       ?UnwindNestedFrames@__FrameHandler3@@SAXPEA_KPEAUEHExceptionRecord@@PEAU_CONTEXT@@0PEAXPEBU_s_FuncInfo@@HHPEBU_s_HandlerType@@PEAU_xDISPATCHER_CONTEXT@@E@Z 000000014001a050 f   libvcruntime:risctrnsctrl.obj
 0001:00019194       ?UnwindNestedFrames@__FrameHandler4@@SAXPEA_KPEAUEHExceptionRecord@@PEAU_CONTEXT@@0PEAXPEAUFuncInfo4@FH4@@HHPEAUHandlerType4@5@PEAU_xDISPATCHER_CONTEXT@@E@Z 000000014001a194 f   libvcruntime:risctrnsctrl.obj
 0001:000192fc       ?begin@TryBlockMap4@FH4@@QEAA?AViterator@12@XZ 000000014001a2fc f i libvcruntime:risctrnsctrl.obj
 0001:0001930c       ?end@TryBlockMap4@FH4@@QEAA?AViterator@12@XZ 000000014001a30c f i libvcruntime:risctrnsctrl.obj
 0001:0001931c       ?imageRelToByteBuffer@FH4@@YAPEAE_KH@Z 000000014001a31c f i libvcruntime:risctrnsctrl.obj
 0001:00019324       ?incrementToSentinel@iterator@TryBlockMap4@FH4@@QEAAXXZ 000000014001a324 f i libvcruntime:risctrnsctrl.obj
 0001:00019328       ?setBuffer@TryBlockMap4@FH4@@QEAAXViterator@12@@Z 000000014001a328 f i libvcruntime:risctrnsctrl.obj
 0001:0001955c       _CreateFrameInfo           000000014001a55c f   libvcruntime:risctrnsctrl.obj
 0001:000195a4       _FindAndUnlinkFrame        000000014001a5a4 f   libvcruntime:risctrnsctrl.obj
 0001:0001960c       _GetImageBase              000000014001a60c f   libvcruntime:risctrnsctrl.obj
 0001:00019624       _GetThrowImageBase         000000014001a624 f   libvcruntime:risctrnsctrl.obj
 0001:0001963c       _SetImageBase              000000014001a63c f   libvcruntime:risctrnsctrl.obj
 0001:0001965c       _SetThrowImageBase         000000014001a65c f   libvcruntime:risctrnsctrl.obj
 0001:0001967c       __CxxFrameHandler          000000014001a67c f   libvcruntime:risctrnsctrl.obj
 0001:00019684       __CxxFrameHandler2         000000014001a684 f   libvcruntime:risctrnsctrl.obj
 0001:0001968c       __CxxFrameHandler3         000000014001a68c f   libvcruntime:risctrnsctrl.obj
 0001:00019734       __CxxFrameHandler4         000000014001a734 f   libvcruntime:risctrnsctrl.obj
 0001:00019830       ?GetCurrentState@__FrameHandler3@@SAHPEA_KPEAU_xDISPATCHER_CONTEXT@@PEBU_s_FuncInfo@@@Z 000000014001a830 f   libvcruntime:ehstate.obj
 0001:00019860       ?GetUnwindTryBlock@__FrameHandler3@@SAHPEA_KPEAU_xDISPATCHER_CONTEXT@@PEBU_s_FuncInfo@@@Z 000000014001a860 f   libvcruntime:ehstate.obj
 0001:00019894       ?SetState@__FrameHandler3@@SAXPEA_KPEBU_s_FuncInfo@@H@Z 000000014001a894 f   libvcruntime:ehstate.obj
 0001:000198a4       ?SetUnwindTryBlock@__FrameHandler3@@SAXPEA_KPEAU_xDISPATCHER_CONTEXT@@PEBU_s_FuncInfo@@H@Z 000000014001a8a4 f   libvcruntime:ehstate.obj
 0001:000198f0       ?StateFromControlPc@__FrameHandler3@@SAHPEBU_s_FuncInfo@@PEAU_xDISPATCHER_CONTEXT@@@Z 000000014001a8f0 f   libvcruntime:ehstate.obj
 0001:000198fc       ?StateFromControlPc@__FrameHandler4@@SAHPEAUFuncInfo4@FH4@@PEAU_xDISPATCHER_CONTEXT@@@Z 000000014001a8fc f   libvcruntime:ehstate.obj
 0001:00019908       ?StateFromIp@__FrameHandler3@@SAHPEBU_s_FuncInfo@@PEAU_xDISPATCHER_CONTEXT@@_K@Z 000000014001a908 f   libvcruntime:ehstate.obj
 0001:00019988       ?StateFromIp@__FrameHandler4@@SAHPEAUFuncInfo4@FH4@@PEAU_xDISPATCHER_CONTEXT@@_K@Z 000000014001a988 f   libvcruntime:ehstate.obj
 0001:00019ab0       ?__FuncRelToRealOffset@@YA_KPEAU_xDISPATCHER_CONTEXT@@I@Z 000000014001aab0 f i libvcruntime:ehstate.obj
 0001:00019ac4       ?__RVAtoRealOffset@@YA_KPEAU_xDISPATCHER_CONTEXT@@H@Z 000000014001aac4 f i libvcruntime:ehstate.obj
 0001:0001b6d0       ??$TypeMatchHelper@V__FrameHandler3@@@@YAHPEBU_s_HandlerType@@PEBU_s_CatchableType@@PEBU_s_ThrowInfo@@@Z 000000014001c6d0 f i libvcruntime:frame.obj
 0001:0001b85c       ??$TypeMatchHelper@V__FrameHandler4@@@@YAHPEAUHandlerType4@FH4@@PEBU_s_CatchableType@@PEBU_s_ThrowInfo@@@Z 000000014001c85c f i libvcruntime:frame.obj
 0001:0001b9fc       ??$__InternalCxxFrameHandler@V__FrameHandler3@@@@YA?AW4_EXCEPTION_DISPOSITION@@PEAUEHExceptionRecord@@PEA_KPEAU_CONTEXT@@PEAU_xDISPATCHER_CONTEXT@@PEBU_s_FuncInfo@@H1E@Z 000000014001c9fc f i libvcruntime:frame.obj
 0001:0001bcc0       ??$__InternalCxxFrameHandler@V__FrameHandler4@@@@YA?AW4_EXCEPTION_DISPOSITION@@PEAUEHExceptionRecord@@PEA_KPEAU_CONTEXT@@PEAU_xDISPATCHER_CONTEXT@@PEAUFuncInfo4@FH4@@H1E@Z 000000014001ccc0 f i libvcruntime:frame.obj
 0001:0001bffc       ??$__InternalCxxFrameHandlerWrapper@V__FrameHandler3@@@@YA?AW4_EXCEPTION_DISPOSITION@@PEAUEHExceptionRecord@@PEA_KPEAU_CONTEXT@@PEAU_xDISPATCHER_CONTEXT@@PEBU_s_FuncInfo@@H1E@Z 000000014001cffc f i libvcruntime:frame.obj
 0001:0001c004       ??$__InternalCxxFrameHandlerWrapper@V__FrameHandler4@@@@YA?AW4_EXCEPTION_DISPOSITION@@PEAUEHExceptionRecord@@PEA_KPEAU_CONTEXT@@PEAU_xDISPATCHER_CONTEXT@@PEAUFuncInfo4@FH4@@H1E@Z 000000014001d004 f i libvcruntime:frame.obj
 0001:0001c064       ??0HandlerMap4@FH4@@QEAA@PEBUTryBlockMapEntry4@1@_KH@Z 000000014001d064 f i libvcruntime:frame.obj
 0001:0001c108       ??0HandlerMap@__FrameHandler3@@QEAA@PEBU_s_TryBlockMapEntry@@_KI@Z 000000014001d108 f i libvcruntime:frame.obj
 0001:0001c124       ??0HandlerType4@FH4@@QEAA@XZ 000000014001d124 f i libvcruntime:frame.obj
 0001:0001c140       ??0TryBlockMap4@FH4@@QEAA@PEBUFuncInfo4@1@_K@Z 000000014001d140 f i libvcruntime:frame.obj
 0001:0001c260       ??0TryBlockMap@__FrameHandler3@@QEAA@PEBU_s_FuncInfo@@_K@Z 000000014001d260 f i libvcruntime:frame.obj
 0001:0001c270       ??0UWMap4@FH4@@QEAA@PEBUFuncInfo4@1@_K@Z 000000014001d270 f i libvcruntime:frame.obj
 0001:0001c2d0       ??0bad_exception@std@@QEAA@AEBV01@@Z 000000014001d2d0 f i libvcruntime:frame.obj
 0001:0001c31c       ??0bad_exception@std@@QEAA@XZ 000000014001d31c f i libvcruntime:frame.obj
 0001:0001c344       ??0exception@std@@QEAA@AEBV01@@Z 000000014001d344 f i libvcruntime:frame.obj
 0001:0001c384       ??0exception@std@@QEAA@QEBDH@Z 000000014001d384 f i libvcruntime:frame.obj
 0001:0001c3a0       ??0iterator@HandlerMap4@FH4@@QEAA@AEAV12@I@Z 000000014001d3a0 f i libvcruntime:frame.obj
 0001:0001c3b0       ??0iterator@HandlerMap@__FrameHandler3@@QEAA@AEAV12@I@Z 000000014001d3b0 f i libvcruntime:frame.obj
 0001:0001c3c0       ??0iterator@UWMap4@FH4@@QEAA@AEAV12@PEAE@Z 000000014001d3c0 f i libvcruntime:frame.obj
 0001:0001c3d0       ??1bad_exception@std@@UEAA@XZ 000000014001d3d0 f i libvcruntime:frame.obj
 0001:0001c3e8       ??1exception@std@@UEAA@XZ  000000014001d3e8 f i libvcruntime:frame.obj
 0001:0001c400       ??4iterator@UWMap4@FH4@@QEAAAEAV012@AEBV012@@Z 000000014001d400 f i libvcruntime:frame.obj
 0001:0001c428       ??8iterator@HandlerMap4@FH4@@QEBA_NAEBV012@@Z 000000014001d428 f i libvcruntime:frame.obj
 0001:0001c434       ??8iterator@HandlerMap@__FrameHandler3@@QEBA_NAEBV012@@Z 000000014001d434 f i libvcruntime:frame.obj
 0001:0001c440       ??8type_info@@QEBA_NAEBV0@@Z 000000014001d440 f i libvcruntime:frame.obj
 0001:0001c464       ??9iterator@HandlerMap4@FH4@@QEBA_NAEBV012@@Z 000000014001d464 f i libvcruntime:frame.obj
 0001:0001c470       ??9iterator@HandlerMap@__FrameHandler3@@QEBA_NAEBV012@@Z 000000014001d470 f i libvcruntime:frame.obj
 0001:0001c47c       ??Diterator@HandlerMap4@FH4@@QEAA?AUHandlerType4@2@XZ 000000014001d47c f i libvcruntime:frame.obj
 0001:0001c4a4       ??Diterator@HandlerMap@__FrameHandler3@@QEAA?BU_s_HandlerType@@XZ 000000014001d4a4 f i libvcruntime:frame.obj
 0001:0001c4d0       ??Diterator@TryBlockMap@__FrameHandler3@@QEAA?BU_s_TryBlockMapEntry@@XZ 000000014001d4d0 f i libvcruntime:frame.obj
 0001:0001c508       ??Diterator@UWMap4@FH4@@QEAA?AUUnwindMapEntry4@2@XZ 000000014001d508 f i libvcruntime:frame.obj
 0001:0001c570       ??Eiterator@HandlerMap4@FH4@@QEAAAEAV012@XZ 000000014001d570 f i libvcruntime:frame.obj
 0001:0001c594       ??Eiterator@HandlerMap@__FrameHandler3@@QEAAAEAV012@XZ 000000014001d594 f i libvcruntime:frame.obj
 0001:0001c59c       ??Eiterator@TryBlockMap@__FrameHandler3@@QEAAAEAV012@XZ 000000014001d59c f i libvcruntime:frame.obj
 0001:0001c5a4       ??Eiterator@UWMap4@FH4@@QEAAAEAV012@XZ 000000014001d5a4 f i libvcruntime:frame.obj
 0001:0001c5cc       ??Giterator@UWMap4@FH4@@QEBA_JAEBV012@@Z 000000014001d5cc f i libvcruntime:frame.obj
 0001:0001c5d8       ??Miterator@TryBlockMap4@FH4@@QEBA_NAEBV012@@Z 000000014001d5d8 f i libvcruntime:frame.obj
 0001:0001c5e4       ??Miterator@TryBlockMap@__FrameHandler3@@QEBA_NAEBV012@@Z 000000014001d5e4 f i libvcruntime:frame.obj
 0001:0001c5f0       ??Oiterator@UWMap4@FH4@@QEBA_NAEBV012@@Z 000000014001d5f0 f i libvcruntime:frame.obj
 0001:0001c600       ??Piterator@UWMap4@FH4@@QEBA_NAEBV012@@Z 000000014001d600 f i libvcruntime:frame.obj
 0001:0001c610       ??_Ebad_exception@std@@UEAAPEAXI@Z 000000014001d610 f i libvcruntime:frame.obj
 0001:0001c610       ??_Gbad_exception@std@@UEAAPEAXI@Z 000000014001d610 f i libvcruntime:frame.obj
 0001:0001c664       ??_Eexception@std@@UEAAPEAXI@Z 000000014001d664 f i libvcruntime:frame.obj
 0001:0001c664       ??_Gexception@std@@UEAAPEAXI@Z 000000014001d664 f i libvcruntime:frame.obj
 0001:0001c6b8       ?BuildCatchObject@__FrameHandler3@@SAXPEAUEHExceptionRecord@@PEAXPEBU_s_HandlerType@@PEBU_s_CatchableType@@@Z 000000014001d6b8 f   libvcruntime:frame.obj
 0001:0001c6c0       ?BuildCatchObject@__FrameHandler4@@SAXPEAUEHExceptionRecord@@PEAXPEAUHandlerType4@FH4@@PEBU_s_CatchableType@@@Z 000000014001d6c0 f   libvcruntime:frame.obj
 0001:0001c6c8       ?BuildCatchObjectHelper@__FrameHandler3@@SAHPEAUEHExceptionRecord@@PEAXPEBU_s_HandlerType@@PEBU_s_CatchableType@@@Z 000000014001d6c8 f   libvcruntime:frame.obj
 0001:0001c6d0       ?BuildCatchObjectHelper@__FrameHandler4@@SAHPEAUEHExceptionRecord@@PEAXPEAUHandlerType4@FH4@@PEBU_s_CatchableType@@@Z 000000014001d6d0 f   libvcruntime:frame.obj
 0001:0001c6d8       ?CxxCallCatchBlock@__FrameHandler3@@SAPEAXPEAU_EXCEPTION_RECORD@@@Z 000000014001d6d8 f   libvcruntime:frame.obj
 0001:0001c93c       ?CxxCallCatchBlock@__FrameHandler4@@SAPEAXPEAU_EXCEPTION_RECORD@@@Z 000000014001d93c f   libvcruntime:frame.obj
 0001:0001cc20       ?DecompHandler@HandlerMap4@FH4@@AEAAXXZ 000000014001dc20 f i libvcruntime:frame.obj
 0001:0001cefc       ?FrameUnwindToState@__FrameHandler3@@SAXPEA_KPEAU_xDISPATCHER_CONTEXT@@PEBU_s_FuncInfo@@H@Z 000000014001defc f   libvcruntime:frame.obj
 0001:0001d0e8       ?FrameUnwindToState@__FrameHandler4@@SAXPEA_KPEAU_xDISPATCHER_CONTEXT@@PEAUFuncInfo4@FH4@@H@Z 000000014001e0e8 f   libvcruntime:frame.obj
 0001:0001d4b0       ?GetHandlerSearchState@__FrameHandler3@@SAHPEA_KPEAU_xDISPATCHER_CONTEXT@@PEBU_s_FuncInfo@@@Z 000000014001e4b0 f i libvcruntime:frame.obj
 0001:0001d56c       ?GetHandlerSearchState@__FrameHandler4@@SAHPEA_KPEAU_xDISPATCHER_CONTEXT@@PEAUFuncInfo4@FH4@@@Z 000000014001e56c f i libvcruntime:frame.obj
 0001:0001d5e8       ?GetMaxState@__FrameHandler3@@SAHPEAU_xDISPATCHER_CONTEXT@@PEBU_s_FuncInfo@@@Z 000000014001e5e8 f i libvcruntime:frame.obj
 0001:0001d5ec       ?GetMaxState@__FrameHandler4@@SAHPEAU_xDISPATCHER_CONTEXT@@PEAUFuncInfo4@FH4@@@Z 000000014001e5ec f i libvcruntime:frame.obj
 0001:0001d808       ?ReadEntry@UWMap4@FH4@@AEAAXPEAPEAE@Z 000000014001e808 f i libvcruntime:frame.obj
 0001:0001d8cc       ?TypeMatch@__FrameHandler3@@SAHPEBU_s_HandlerType@@PEBU_s_CatchableType@@PEBU_s_ThrowInfo@@@Z 000000014001e8cc f   libvcruntime:frame.obj
 0001:0001d8d4       ?TypeMatch@__FrameHandler4@@SAHPEAUHandlerType4@FH4@@PEBU_s_CatchableType@@PEBU_s_ThrowInfo@@@Z 000000014001e8d4 f   libvcruntime:frame.obj
 0001:0001d8dc       ?WalkBack@UWMap4@FH4@@AEAAXPEAPEAE@Z 000000014001e8dc f i libvcruntime:frame.obj
 0001:0001d920       ?WalkBack@iterator@UWMap4@FH4@@QEAAXXZ 000000014001e920 f i libvcruntime:frame.obj
 0001:0001d96c       ?WalkForward@UWMap4@FH4@@AEAAXPEAPEAE@Z 000000014001e96c f i libvcruntime:frame.obj
 0001:0001d974       ?_CallMemberFunction1@@YAXQEAX00@Z 000000014001e974 f i libvcruntime:frame.obj
 0001:0001d980       ?_CallMemberFunction2@@YAXQEAX00H@Z 000000014001e980 f i libvcruntime:frame.obj
 0001:0001d9b0       ?begin@HandlerMap4@FH4@@QEAA?AViterator@12@XZ 000000014001e9b0 f i libvcruntime:frame.obj
 0001:0001d9c0       ?begin@HandlerMap@__FrameHandler3@@QEAA?AViterator@12@XZ 000000014001e9c0 f i libvcruntime:frame.obj
 0001:0001d9d0       ?begin@UWMap4@FH4@@QEAA?AViterator@12@XZ 000000014001e9d0 f i libvcruntime:frame.obj
 0001:0001d9e4       ?end@HandlerMap4@FH4@@QEAA?AViterator@12@XZ 000000014001e9e4 f i libvcruntime:frame.obj
 0001:0001d9f4       ?end@HandlerMap@__FrameHandler3@@QEAA?AViterator@12@XZ 000000014001e9f4 f i libvcruntime:frame.obj
 0001:0001da04       ?getESTypes@__FrameHandler3@@SAPEBU_s_ESTypeList@@PEBU_s_FuncInfo@@@Z 000000014001ea04 f i libvcruntime:frame.obj
 0001:0001da38       ?getESTypes@__FrameHandler4@@SAPEBU_s_ESTypeList@@PEAUFuncInfo4@FH4@@@Z 000000014001ea38 f i libvcruntime:frame.obj
 0001:0001da3c       ?getLastEntry@HandlerMap4@FH4@@QEAAPEAUHandlerType4@2@XZ 000000014001ea3c f i libvcruntime:frame.obj
 0001:0001daa0       ?getLastEntry@HandlerMap@__FrameHandler3@@QEAAPEBU_s_HandlerType@@XZ 000000014001eaa0 f i libvcruntime:frame.obj
 0001:0001dab8       ?getMagicNum@__FrameHandler3@@SAIPEBU_s_FuncInfo@@@Z 000000014001eab8 f i libvcruntime:frame.obj
 0001:0001dac4       ?getMagicNum@__FrameHandler4@@SAIPEAUFuncInfo4@FH4@@@Z 000000014001eac4 f i libvcruntime:frame.obj
 0001:0001dacc       ?getNumTryBlocks@TryBlockMap4@FH4@@QEAAIXZ 000000014001eacc f i libvcruntime:frame.obj
 0001:0001dad0       ?getNumTryBlocks@TryBlockMap@__FrameHandler3@@QEAAIXZ 000000014001ead0 f i libvcruntime:frame.obj
 0001:0001dad8       ?getStartStop@UWMap4@FH4@@QEAAXHHAEAViterator@12@0@Z 000000014001ead8 f i libvcruntime:frame.obj
 0001:0001dbdc       ?getStateFromIterators@UWMap4@FH4@@SAHAEBViterator@12@H0H0@Z 000000014001ebdc f i libvcruntime:frame.obj
 0001:0001dcb8       ?isEHs@__FrameHandler3@@SA_NPEBU_s_FuncInfo@@@Z 000000014001ecb8 f i libvcruntime:frame.obj
 0001:0001dcc0       ?isEHs@__FrameHandler4@@SA_NPEAUFuncInfo4@FH4@@@Z 000000014001ecc0 f i libvcruntime:frame.obj
 0001:0001dccc       ?isNoExcept@__FrameHandler3@@SA_NPEBU_s_FuncInfo@@@Z 000000014001eccc f i libvcruntime:frame.obj
 0001:0001dcd8       ?isNoExcept@__FrameHandler4@@SA_NPEAUFuncInfo4@FH4@@@Z 000000014001ecd8 f i libvcruntime:frame.obj
 0001:0001dce4       ?reset@HandlerType4@FH4@@QEAAXXZ 000000014001ece4 f i libvcruntime:frame.obj
 0001:0001dd00       ?resetBuffer@HandlerMap4@FH4@@QEAAXXZ 000000014001ed00 f i libvcruntime:frame.obj
 0001:0001dd10       ?setBuffer@HandlerMap4@FH4@@QEAAXI@Z 000000014001ed10 f i libvcruntime:frame.obj
 0001:0001dd58       ?what@exception@std@@UEBAPEBDXZ 000000014001ed58 f i libvcruntime:frame.obj
 0001:0001dd70       __BuildCatchObject         000000014001ed70 f   libvcruntime:frame.obj
 0001:0001dd78       __BuildCatchObjectHelper   000000014001ed78 f   libvcruntime:frame.obj
 0001:0001dd80       __TypeMatch                000000014001ed80 f   libvcruntime:frame.obj
 0001:0001dd88       __vcrt_EncodePointer       000000014001ed88 f i libvcruntime:frame.obj
 0001:0001dde0       _CallSettingFrame          000000014001ede0 f   libvcruntime:handlers.obj
 0001:0001de30       _CallSettingFrame_LookupContinuationIndex 000000014001ee30 f   libvcruntime:handlers.obj
 0001:0001de70       _CallSettingFrame_NotifyContinuationAddr 000000014001ee70 f   libvcruntime:handlers.obj
 0001:0001dea0       _CallSettingFrameEncoded   000000014001eea0 f   libvcruntime:handlers.obj
 0001:0001def8       ??$?RD@__crt_public_free_policy@@QEBAXQEBD@Z 000000014001eef8 f i libvcruntime:std_exception.obj
 0001:0001df04       ??0?$__crt_unique_heap_ptr@DU__crt_public_free_policy@@@@QEAA@QEAD@Z 000000014001ef04 f i libvcruntime:std_exception.obj
 0001:0001df0c       ??1?$__crt_unique_heap_ptr@DU__crt_public_free_policy@@@@QEAA@XZ 000000014001ef0c f i libvcruntime:std_exception.obj
 0001:0001df30       ??B?$__crt_unique_heap_ptr@DU__crt_public_free_policy@@@@QEBA_NXZ 000000014001ef30 f i libvcruntime:std_exception.obj
 0001:0001df3c       ?detach@?$__crt_unique_heap_ptr@DU__crt_public_free_policy@@@@QEAAPEADXZ 000000014001ef3c f i libvcruntime:std_exception.obj
 0001:0001df48       ?get@?$__crt_unique_heap_ptr@DU__crt_public_free_policy@@@@QEBAPEADXZ 000000014001ef48 f i libvcruntime:std_exception.obj
 0001:0001df4c       ?is_valid@?$__crt_unique_heap_ptr@DU__crt_public_free_policy@@@@QEBA_NXZ 000000014001ef4c f i libvcruntime:std_exception.obj
 0001:0001df58       ?release@?$__crt_unique_heap_ptr@DU__crt_public_free_policy@@@@QEAAXXZ 000000014001ef58 f i libvcruntime:std_exception.obj
 0001:0001df7c       __std_exception_copy       000000014001ef7c f   libvcruntime:std_exception.obj
 0001:0001e02c       __std_exception_destroy    000000014001f02c f   libvcruntime:std_exception.obj
 0001:0001e05c       _CxxThrowException         000000014001f05c f   libvcruntime:throw.obj
 0001:0001e150       memcpy_avx_ermsb_Intel     000000014001f150 f   libvcruntime:memcpy_avx_ermsb_aligned.obj
 0001:0001e690       memcpy_avx_ermsb_amd       000000014001f690 f   libvcruntime:memcpy_avx_ermsb_aligned_amd.obj
 0001:0001ebd0       memcpy_sse2_ermsb_Intel    000000014001fbd0 f   libvcruntime:memcpy_sse2_ermsb_aligned.obj
 0001:0001ef30       memcpy_sse2_ermsb_amd      000000014001ff30 f   libvcruntime:memcpy_sse2_ermsb_aligned_amd.obj
 0001:0001f290       memcpy_repmovs_Intel       0000000140020290 f   libvcruntime:memcpy_repmovs.obj
 0001:0001f2d0       memcpy_CopyDown_Intel      00000001400202d0 f   libvcruntime:memcpy_CopyDown.obj
 0001:0001f410       memcpy_repmovs_amd         0000000140020410 f   libvcruntime:memcpy_repmovs_amd.obj
 0001:0001f450       memcpy_CopyDown_amd        0000000140020450 f   libvcruntime:memcpy_CopyDown_amd.obj
 0001:0001f564       ??$?0AEBV?$stream_output_adapter@D@__crt_stdio_output@@AEB_KAEBQEBDAEAV__crt_cached_ptd_host@@AEBQEAD@?$format_validation_base@DV?$stream_output_adapter@D@__crt_stdio_output@@@__crt_stdio_output@@IEAA@AEBV?$stream_output_adapter@D@1@AEB_KAEBQEBDAEAV__crt_cached_ptd_host@@AEBQEAD@Z 0000000140020564 f i libucrt:output.obj
 0001:0001f5f0       ??$?0AEBV?$stream_output_adapter@D@__crt_stdio_output@@AEB_KAEBQEBDAEAV__crt_cached_ptd_host@@AEBQEAD@?$positional_parameter_base@DV?$stream_output_adapter@D@__crt_stdio_output@@@__crt_stdio_output@@IEAA@AEBV?$stream_output_adapter@D@1@AEB_KAEBQEBDAEAV__crt_cached_ptd_host@@AEBQEAD@Z 00000001400205f0 f i libucrt:output.obj
 0001:0001f6a0       ??$?0AEBV?$stream_output_adapter@D@__crt_stdio_output@@AEB_KAEBQEBDAEAV__crt_cached_ptd_host@@AEBQEAD@?$standard_base@DV?$stream_output_adapter@D@__crt_stdio_output@@@__crt_stdio_output@@IEAA@AEBV?$stream_output_adapter@D@1@AEB_KAEBQEBDAEAV__crt_cached_ptd_host@@AEBQEAD@Z 00000001400206a0 f i libucrt:output.obj
 0001:0001f72c       ??$?0AEBV?$stream_output_adapter@_W@__crt_stdio_output@@AEB_KAEBQEB_WAEAV__crt_cached_ptd_host@@AEBQEAD@?$format_validation_base@_WV?$stream_output_adapter@_W@__crt_stdio_output@@@__crt_stdio_output@@IEAA@AEBV?$stream_output_adapter@_W@1@AEB_KAEBQEB_WAEAV__crt_cached_ptd_host@@AEBQEAD@Z 000000014002072c f i libucrt:output.obj
 0001:0001f7c0       ??$?0AEBV?$stream_output_adapter@_W@__crt_stdio_output@@AEB_KAEBQEB_WAEAV__crt_cached_ptd_host@@AEBQEAD@?$positional_parameter_base@_WV?$stream_output_adapter@_W@__crt_stdio_output@@@__crt_stdio_output@@IEAA@AEBV?$stream_output_adapter@_W@1@AEB_KAEBQEB_WAEAV__crt_cached_ptd_host@@AEBQEAD@Z 00000001400207c0 f i libucrt:output.obj
 0001:0001f878       ??$?0AEBV?$stream_output_adapter@_W@__crt_stdio_output@@AEB_KAEBQEB_WAEAV__crt_cached_ptd_host@@AEBQEAD@?$standard_base@_WV?$stream_output_adapter@_W@__crt_stdio_output@@@__crt_stdio_output@@IEAA@AEBV?$stream_output_adapter@_W@1@AEB_KAEBQEB_WAEAV__crt_cached_ptd_host@@AEBQEAD@Z 0000000140020878 f i libucrt:output.obj
 0001:0001f90c       ??$?0AEBV?$string_output_adapter@D@__crt_stdio_output@@AEB_KAEBQEBDAEAV__crt_cached_ptd_host@@AEBQEAD@?$format_validation_base@DV?$string_output_adapter@D@__crt_stdio_output@@@__crt_stdio_output@@IEAA@AEBV?$string_output_adapter@D@1@AEB_KAEBQEBDAEAV__crt_cached_ptd_host@@AEBQEAD@Z 000000014002090c f i libucrt:output.obj
 0001:0001f998       ??$?0AEBV?$string_output_adapter@D@__crt_stdio_output@@AEB_KAEBQEBDAEAV__crt_cached_ptd_host@@AEBQEAD@?$positional_parameter_base@DV?$string_output_adapter@D@__crt_stdio_output@@@__crt_stdio_output@@IEAA@AEBV?$string_output_adapter@D@1@AEB_KAEBQEBDAEAV__crt_cached_ptd_host@@AEBQEAD@Z 0000000140020998 f i libucrt:output.obj
 0001:0001fa48       ??$?0AEBV?$string_output_adapter@D@__crt_stdio_output@@AEB_KAEBQEBDAEAV__crt_cached_ptd_host@@AEBQEAD@?$standard_base@DV?$string_output_adapter@D@__crt_stdio_output@@@__crt_stdio_output@@IEAA@AEBV?$string_output_adapter@D@1@AEB_KAEBQEBDAEAV__crt_cached_ptd_host@@AEBQEAD@Z 0000000140020a48 f i libucrt:output.obj
 0001:0001fad4       ??$?0AEBV?$string_output_adapter@_W@__crt_stdio_output@@AEB_KAEBQEB_WAEAV__crt_cached_ptd_host@@AEBQEAD@?$format_validation_base@_WV?$string_output_adapter@_W@__crt_stdio_output@@@__crt_stdio_output@@IEAA@AEBV?$string_output_adapter@_W@1@AEB_KAEBQEB_WAEAV__crt_cached_ptd_host@@AEBQEAD@Z 0000000140020ad4 f i libucrt:output.obj
 0001:0001fb68       ??$?0AEBV?$string_output_adapter@_W@__crt_stdio_output@@AEB_KAEBQEB_WAEAV__crt_cached_ptd_host@@AEBQEAD@?$positional_parameter_base@_WV?$string_output_adapter@_W@__crt_stdio_output@@@__crt_stdio_output@@IEAA@AEBV?$string_output_adapter@_W@1@AEB_KAEBQEB_WAEAV__crt_cached_ptd_host@@AEBQEAD@Z 0000000140020b68 f i libucrt:output.obj
 0001:0001fc20       ??$?0AEBV?$string_output_adapter@_W@__crt_stdio_output@@AEB_KAEBQEB_WAEAV__crt_cached_ptd_host@@AEBQEAD@?$standard_base@_WV?$string_output_adapter@_W@__crt_stdio_output@@@__crt_stdio_output@@IEAA@AEBV?$string_output_adapter@_W@1@AEB_KAEBQEB_WAEAV__crt_cached_ptd_host@@AEBQEAD@Z 0000000140020c20 f i libucrt:output.obj
 0001:0001ffb4       ??$__crt_interlocked_read@J@@YAJPEDJ@Z 0000000140020fb4 f i libucrt:output.obj
 0001:0001ffb8       ??$_tcstol_internal@DPEAPEAD$0A@@@YAJAEAV__crt_cached_ptd_host@@QEBDQEAPEADH@Z 0000000140020fb8 f i libucrt:output.obj
 0001:0001fff4       ??$_tcstol_internal@_WPEAPEA_W$0A@@@YAJAEAV__crt_cached_ptd_host@@QEB_WQEAPEA_WH@Z 0000000140020ff4 f i libucrt:output.obj
 0001:00021590       ??$count@D@formatting_buffer@__crt_stdio_output@@QEBA_KXZ 0000000140022590 f i libucrt:output.obj
 0001:000215b4       ??$count@_W@formatting_buffer@__crt_stdio_output@@QEBA_KXZ 00000001400225b4 f i libucrt:output.obj
 0001:000215d8       ??$data@D@formatting_buffer@__crt_stdio_output@@QEAAPEADXZ 00000001400225d8 f i libucrt:output.obj
 0001:000215ec       ??$data@_W@formatting_buffer@__crt_stdio_output@@QEAAPEA_WXZ 00000001400225ec f i libucrt:output.obj
 0001:00021600       ??$ensure_buffer_is_big_enough@D@formatting_buffer@__crt_stdio_output@@QEAA_N_KAEAV__crt_cached_ptd_host@@@Z 0000000140022600 f i libucrt:output.obj
 0001:000216d4       ??$ensure_buffer_is_big_enough@_W@formatting_buffer@__crt_stdio_output@@QEAA_N_KAEAV__crt_cached_ptd_host@@@Z 00000001400226d4 f i libucrt:output.obj
 0001:000217ac       ??$extract_argument_from_va_list@C_J@?$positional_parameter_base@DV?$stream_output_adapter@D@__crt_stdio_output@@@__crt_stdio_output@@IEAA_NAEA_J@Z 00000001400227ac f i libucrt:output.obj
 0001:000218f8       ??$extract_argument_from_va_list@C_J@?$positional_parameter_base@DV?$string_output_adapter@D@__crt_stdio_output@@@__crt_stdio_output@@IEAA_NAEA_J@Z 00000001400228f8 f i libucrt:output.obj
 0001:00021a44       ??$extract_argument_from_va_list@C_J@?$positional_parameter_base@_WV?$stream_output_adapter@_W@__crt_stdio_output@@@__crt_stdio_output@@IEAA_NAEA_J@Z 0000000140022a44 f i libucrt:output.obj
 0001:00021b94       ??$extract_argument_from_va_list@C_J@?$positional_parameter_base@_WV?$string_output_adapter@_W@__crt_stdio_output@@@__crt_stdio_output@@IEAA_NAEA_J@Z 0000000140022b94 f i libucrt:output.obj
 0001:00021ce4       ??$extract_argument_from_va_list@C_J@?$standard_base@DV?$stream_output_adapter@D@__crt_stdio_output@@@__crt_stdio_output@@IEAA_NAEA_J@Z 0000000140022ce4 f i libucrt:output.obj
 0001:00021d00       ??$extract_argument_from_va_list@C_J@?$standard_base@DV?$string_output_adapter@D@__crt_stdio_output@@@__crt_stdio_output@@IEAA_NAEA_J@Z 0000000140022d00 f i libucrt:output.obj
 0001:00021d1c       ??$extract_argument_from_va_list@C_J@?$standard_base@_WV?$stream_output_adapter@_W@__crt_stdio_output@@@__crt_stdio_output@@IEAA_NAEA_J@Z 0000000140022d1c f i libucrt:output.obj
 0001:00021d38       ??$extract_argument_from_va_list@C_J@?$standard_base@_WV?$string_output_adapter@_W@__crt_stdio_output@@@__crt_stdio_output@@IEAA_NAEA_J@Z 0000000140022d38 f i libucrt:output.obj
 0001:00021d54       ??$extract_argument_from_va_list@E_J@?$positional_parameter_base@DV?$stream_output_adapter@D@__crt_stdio_output@@@__crt_stdio_output@@IEAA_NAEA_J@Z 0000000140022d54 f i libucrt:output.obj
 0001:00021ea0       ??$extract_argument_from_va_list@E_J@?$positional_parameter_base@DV?$string_output_adapter@D@__crt_stdio_output@@@__crt_stdio_output@@IEAA_NAEA_J@Z 0000000140022ea0 f i libucrt:output.obj
 0001:00021fec       ??$extract_argument_from_va_list@E_J@?$positional_parameter_base@_WV?$stream_output_adapter@_W@__crt_stdio_output@@@__crt_stdio_output@@IEAA_NAEA_J@Z 0000000140022fec f i libucrt:output.obj
 0001:00022138       ??$extract_argument_from_va_list@E_J@?$positional_parameter_base@_WV?$string_output_adapter@_W@__crt_stdio_output@@@__crt_stdio_output@@IEAA_NAEA_J@Z 0000000140023138 f i libucrt:output.obj
 0001:00022284       ??$extract_argument_from_va_list@E_J@?$standard_base@DV?$stream_output_adapter@D@__crt_stdio_output@@@__crt_stdio_output@@IEAA_NAEA_J@Z 0000000140023284 f i libucrt:output.obj
 0001:000222a0       ??$extract_argument_from_va_list@E_J@?$standard_base@DV?$string_output_adapter@D@__crt_stdio_output@@@__crt_stdio_output@@IEAA_NAEA_J@Z 00000001400232a0 f i libucrt:output.obj
 0001:000222bc       ??$extract_argument_from_va_list@E_J@?$standard_base@_WV?$stream_output_adapter@_W@__crt_stdio_output@@@__crt_stdio_output@@IEAA_NAEA_J@Z 00000001400232bc f i libucrt:output.obj
 0001:000222d8       ??$extract_argument_from_va_list@E_J@?$standard_base@_WV?$string_output_adapter@_W@__crt_stdio_output@@@__crt_stdio_output@@IEAA_NAEA_J@Z 00000001400232d8 f i libucrt:output.obj
 0001:000222f4       ??$extract_argument_from_va_list@F_J@?$positional_parameter_base@DV?$stream_output_adapter@D@__crt_stdio_output@@@__crt_stdio_output@@IEAA_NAEA_J@Z 00000001400232f4 f i libucrt:output.obj
 0001:00022440       ??$extract_argument_from_va_list@F_J@?$positional_parameter_base@DV?$string_output_adapter@D@__crt_stdio_output@@@__crt_stdio_output@@IEAA_NAEA_J@Z 0000000140023440 f i libucrt:output.obj
 0001:0002258c       ??$extract_argument_from_va_list@F_J@?$positional_parameter_base@_WV?$stream_output_adapter@_W@__crt_stdio_output@@@__crt_stdio_output@@IEAA_NAEA_J@Z 000000014002358c f i libucrt:output.obj
 0001:000226dc       ??$extract_argument_from_va_list@F_J@?$positional_parameter_base@_WV?$string_output_adapter@_W@__crt_stdio_output@@@__crt_stdio_output@@IEAA_NAEA_J@Z 00000001400236dc f i libucrt:output.obj
 0001:0002282c       ??$extract_argument_from_va_list@F_J@?$standard_base@DV?$stream_output_adapter@D@__crt_stdio_output@@@__crt_stdio_output@@IEAA_NAEA_J@Z 000000014002382c f i libucrt:output.obj
 0001:00022848       ??$extract_argument_from_va_list@F_J@?$standard_base@DV?$string_output_adapter@D@__crt_stdio_output@@@__crt_stdio_output@@IEAA_NAEA_J@Z 0000000140023848 f i libucrt:output.obj
 0001:00022864       ??$extract_argument_from_va_list@F_J@?$standard_base@_WV?$stream_output_adapter@_W@__crt_stdio_output@@@__crt_stdio_output@@IEAA_NAEA_J@Z 0000000140023864 f i libucrt:output.obj
 0001:00022880       ??$extract_argument_from_va_list@F_J@?$standard_base@_WV?$string_output_adapter@_W@__crt_stdio_output@@@__crt_stdio_output@@IEAA_NAEA_J@Z 0000000140023880 f i libucrt:output.obj
 0001:0002289c       ??$extract_argument_from_va_list@GD@?$positional_parameter_base@DV?$stream_output_adapter@D@__crt_stdio_output@@@__crt_stdio_output@@IEAA_NAEAD@Z 000000014002389c f i libucrt:output.obj
 0001:000229e4       ??$extract_argument_from_va_list@GD@?$positional_parameter_base@DV?$string_output_adapter@D@__crt_stdio_output@@@__crt_stdio_output@@IEAA_NAEAD@Z 00000001400239e4 f i libucrt:output.obj
 0001:00022b2c       ??$extract_argument_from_va_list@GD@?$standard_base@DV?$stream_output_adapter@D@__crt_stdio_output@@@__crt_stdio_output@@IEAA_NAEAD@Z 0000000140023b2c f i libucrt:output.obj
 0001:00022b48       ??$extract_argument_from_va_list@GD@?$standard_base@DV?$string_output_adapter@D@__crt_stdio_output@@@__crt_stdio_output@@IEAA_NAEAD@Z 0000000140023b48 f i libucrt:output.obj
 0001:00022b64       ??$extract_argument_from_va_list@G_J@?$positional_parameter_base@DV?$stream_output_adapter@D@__crt_stdio_output@@@__crt_stdio_output@@IEAA_NAEA_J@Z 0000000140023b64 f i libucrt:output.obj
 0001:00022cb0       ??$extract_argument_from_va_list@G_J@?$positional_parameter_base@DV?$string_output_adapter@D@__crt_stdio_output@@@__crt_stdio_output@@IEAA_NAEA_J@Z 0000000140023cb0 f i libucrt:output.obj
 0001:00022dfc       ??$extract_argument_from_va_list@G_J@?$positional_parameter_base@_WV?$stream_output_adapter@_W@__crt_stdio_output@@@__crt_stdio_output@@IEAA_NAEA_J@Z 0000000140023dfc f i libucrt:output.obj
 0001:00022f48       ??$extract_argument_from_va_list@G_J@?$positional_parameter_base@_WV?$string_output_adapter@_W@__crt_stdio_output@@@__crt_stdio_output@@IEAA_NAEA_J@Z 0000000140023f48 f i libucrt:output.obj
 0001:00023094       ??$extract_argument_from_va_list@G_J@?$standard_base@DV?$stream_output_adapter@D@__crt_stdio_output@@@__crt_stdio_output@@IEAA_NAEA_J@Z 0000000140024094 f i libucrt:output.obj
 0001:000230b0       ??$extract_argument_from_va_list@G_J@?$standard_base@DV?$string_output_adapter@D@__crt_stdio_output@@@__crt_stdio_output@@IEAA_NAEA_J@Z 00000001400240b0 f i libucrt:output.obj
 0001:000230cc       ??$extract_argument_from_va_list@G_J@?$standard_base@_WV?$stream_output_adapter@_W@__crt_stdio_output@@@__crt_stdio_output@@IEAA_NAEA_J@Z 00000001400240cc f i libucrt:output.obj
 0001:000230e8       ??$extract_argument_from_va_list@G_J@?$standard_base@_WV?$string_output_adapter@_W@__crt_stdio_output@@@__crt_stdio_output@@IEAA_NAEA_J@Z 00000001400240e8 f i libucrt:output.obj
 0001:00023104       ??$extract_argument_from_va_list@H_J@?$positional_parameter_base@DV?$stream_output_adapter@D@__crt_stdio_output@@@__crt_stdio_output@@IEAA_NAEA_J@Z 0000000140024104 f i libucrt:output.obj
 0001:0002324c       ??$extract_argument_from_va_list@H_J@?$positional_parameter_base@DV?$string_output_adapter@D@__crt_stdio_output@@@__crt_stdio_output@@IEAA_NAEA_J@Z 000000014002424c f i libucrt:output.obj
 0001:00023394       ??$extract_argument_from_va_list@H_J@?$positional_parameter_base@_WV?$stream_output_adapter@_W@__crt_stdio_output@@@__crt_stdio_output@@IEAA_NAEA_J@Z 0000000140024394 f i libucrt:output.obj
 0001:000234e0       ??$extract_argument_from_va_list@H_J@?$positional_parameter_base@_WV?$string_output_adapter@_W@__crt_stdio_output@@@__crt_stdio_output@@IEAA_NAEA_J@Z 00000001400244e0 f i libucrt:output.obj
 0001:0002362c       ??$extract_argument_from_va_list@H_J@?$standard_base@DV?$stream_output_adapter@D@__crt_stdio_output@@@__crt_stdio_output@@IEAA_NAEA_J@Z 000000014002462c f i libucrt:output.obj
 0001:00023648       ??$extract_argument_from_va_list@H_J@?$standard_base@DV?$string_output_adapter@D@__crt_stdio_output@@@__crt_stdio_output@@IEAA_NAEA_J@Z 0000000140024648 f i libucrt:output.obj
 0001:00023664       ??$extract_argument_from_va_list@H_J@?$standard_base@_WV?$stream_output_adapter@_W@__crt_stdio_output@@@__crt_stdio_output@@IEAA_NAEA_J@Z 0000000140024664 f i libucrt:output.obj
 0001:00023680       ??$extract_argument_from_va_list@H_J@?$standard_base@_WV?$string_output_adapter@_W@__crt_stdio_output@@@__crt_stdio_output@@IEAA_NAEA_J@Z 0000000140024680 f i libucrt:output.obj
 0001:0002369c       ??$extract_argument_from_va_list@I_J@?$positional_parameter_base@DV?$stream_output_adapter@D@__crt_stdio_output@@@__crt_stdio_output@@IEAA_NAEA_J@Z 000000014002469c f i libucrt:output.obj
 0001:000237e4       ??$extract_argument_from_va_list@I_J@?$positional_parameter_base@DV?$string_output_adapter@D@__crt_stdio_output@@@__crt_stdio_output@@IEAA_NAEA_J@Z 00000001400247e4 f i libucrt:output.obj
 0001:0002392c       ??$extract_argument_from_va_list@I_J@?$positional_parameter_base@_WV?$stream_output_adapter@_W@__crt_stdio_output@@@__crt_stdio_output@@IEAA_NAEA_J@Z 000000014002492c f i libucrt:output.obj
 0001:00023a78       ??$extract_argument_from_va_list@I_J@?$positional_parameter_base@_WV?$string_output_adapter@_W@__crt_stdio_output@@@__crt_stdio_output@@IEAA_NAEA_J@Z 0000000140024a78 f i libucrt:output.obj
 0001:00023bc4       ??$extract_argument_from_va_list@I_J@?$standard_base@DV?$stream_output_adapter@D@__crt_stdio_output@@@__crt_stdio_output@@IEAA_NAEA_J@Z 0000000140024bc4 f i libucrt:output.obj
 0001:00023be0       ??$extract_argument_from_va_list@I_J@?$standard_base@DV?$string_output_adapter@D@__crt_stdio_output@@@__crt_stdio_output@@IEAA_NAEA_J@Z 0000000140024be0 f i libucrt:output.obj
 0001:00023bfc       ??$extract_argument_from_va_list@I_J@?$standard_base@_WV?$stream_output_adapter@_W@__crt_stdio_output@@@__crt_stdio_output@@IEAA_NAEA_J@Z 0000000140024bfc f i libucrt:output.obj
 0001:00023c18       ??$extract_argument_from_va_list@I_J@?$standard_base@_WV?$string_output_adapter@_W@__crt_stdio_output@@@__crt_stdio_output@@IEAA_NAEA_J@Z 0000000140024c18 f i libucrt:output.obj
 0001:00023c34       ??$extract_argument_from_va_list@PEADPEAD@?$positional_parameter_base@DV?$stream_output_adapter@D@__crt_stdio_output@@@__crt_stdio_output@@IEAA_NAEAPEAD@Z 0000000140024c34 f i libucrt:output.obj
 0001:00023d7c       ??$extract_argument_from_va_list@PEADPEAD@?$positional_parameter_base@DV?$string_output_adapter@D@__crt_stdio_output@@@__crt_stdio_output@@IEAA_NAEAPEAD@Z 0000000140024d7c f i libucrt:output.obj
 0001:00023ec4       ??$extract_argument_from_va_list@PEADPEAD@?$positional_parameter_base@_WV?$stream_output_adapter@_W@__crt_stdio_output@@@__crt_stdio_output@@IEAA_NAEAPEAD@Z 0000000140024ec4 f i libucrt:output.obj
 0001:00024010       ??$extract_argument_from_va_list@PEADPEAD@?$positional_parameter_base@_WV?$string_output_adapter@_W@__crt_stdio_output@@@__crt_stdio_output@@IEAA_NAEAPEAD@Z 0000000140025010 f i libucrt:output.obj
 0001:0002415c       ??$extract_argument_from_va_list@PEADPEAD@?$standard_base@DV?$stream_output_adapter@D@__crt_stdio_output@@@__crt_stdio_output@@IEAA_NAEAPEAD@Z 000000014002515c f i libucrt:output.obj
 0001:00024178       ??$extract_argument_from_va_list@PEADPEAD@?$standard_base@DV?$string_output_adapter@D@__crt_stdio_output@@@__crt_stdio_output@@IEAA_NAEAPEAD@Z 0000000140025178 f i libucrt:output.obj
 0001:00024194       ??$extract_argument_from_va_list@PEADPEAD@?$standard_base@_WV?$stream_output_adapter@_W@__crt_stdio_output@@@__crt_stdio_output@@IEAA_NAEAPEAD@Z 0000000140025194 f i libucrt:output.obj
 0001:000241b0       ??$extract_argument_from_va_list@PEADPEAD@?$standard_base@_WV?$string_output_adapter@_W@__crt_stdio_output@@@__crt_stdio_output@@IEAA_NAEAPEAD@Z 00000001400251b0 f i libucrt:output.obj
 0001:000241cc       ??$extract_argument_from_va_list@PEAUansi_string@?1??type_case_Z@?$output_processor@DV?$stream_output_adapter@D@__crt_stdio_output@@V?$format_validation_base@DV?$stream_output_adapter@D@__crt_stdio_output@@@2@@__crt_stdio_output@@AEAA_NXZ@PEAU1?1??234@AEAA_NXZ@@?$standard_base@DV?$stream_output_adapter@D@__crt_stdio_output@@@__crt_stdio_output@@IEAA_NAEAPEAUansi_string@?1??type_case_Z@?$output_processor@DV?$stream_output_adapter@D@__crt_stdio_output@@V?$format_validation_base@DV?$stream_output_adapter@D@__crt_stdio_output@@@2@@1@AEAA_NXZ@@Z 00000001400251cc f i libucrt:output.obj
 0001:000241e8       ??$extract_argument_from_va_list@PEAUansi_string@?1??type_case_Z@?$output_processor@DV?$stream_output_adapter@D@__crt_stdio_output@@V?$positional_parameter_base@DV?$stream_output_adapter@D@__crt_stdio_output@@@2@@__crt_stdio_output@@AEAA_NXZ@PEAU1?1??234@AEAA_NXZ@@?$positional_parameter_base@DV?$stream_output_adapter@D@__crt_stdio_output@@@__crt_stdio_output@@IEAA_NAEAPEAUansi_string@?1??type_case_Z@?$output_processor@DV?$stream_output_adapter@D@__crt_stdio_output@@V?$positional_parameter_base@DV?$stream_output_adapter@D@__crt_stdio_output@@@2@@1@AEAA_NXZ@@Z 00000001400251e8 f i libucrt:output.obj
 0001:00024330       ??$extract_argument_from_va_list@PEAUansi_string@?1??type_case_Z@?$output_processor@DV?$stream_output_adapter@D@__crt_stdio_output@@V?$positional_parameter_base@DV?$stream_output_adapter@D@__crt_stdio_output@@@2@@__crt_stdio_output@@AEAA_NXZ@PEAU1?1??234@AEAA_NXZ@@?$standard_base@DV?$stream_output_adapter@D@__crt_stdio_output@@@__crt_stdio_output@@IEAA_NAEAPEAUansi_string@?1??type_case_Z@?$output_processor@DV?$stream_output_adapter@D@__crt_stdio_output@@V?$positional_parameter_base@DV?$stream_output_adapter@D@__crt_stdio_output@@@2@@1@AEAA_NXZ@@Z 0000000140025330 f i libucrt:output.obj
 0001:0002434c       ??$extract_argument_from_va_list@PEAUansi_string@?1??type_case_Z@?$output_processor@DV?$stream_output_adapter@D@__crt_stdio_output@@V?$standard_base@DV?$stream_output_adapter@D@__crt_stdio_output@@@2@@__crt_stdio_output@@AEAA_NXZ@PEAU1?1??234@AEAA_NXZ@@?$standard_base@DV?$stream_output_adapter@D@__crt_stdio_output@@@__crt_stdio_output@@IEAA_NAEAPEAUansi_string@?1??type_case_Z@?$output_processor@DV?$stream_output_adapter@D@__crt_stdio_output@@V?$standard_base@DV?$stream_output_adapter@D@__crt_stdio_output@@@2@@1@AEAA_NXZ@@Z 000000014002534c f i libucrt:output.obj
 0001:00024368       ??$extract_argument_from_va_list@PEAUansi_string@?1??type_case_Z@?$output_processor@DV?$string_output_adapter@D@__crt_stdio_output@@V?$format_validation_base@DV?$string_output_adapter@D@__crt_stdio_output@@@2@@__crt_stdio_output@@AEAA_NXZ@PEAU1?1??234@AEAA_NXZ@@?$standard_base@DV?$string_output_adapter@D@__crt_stdio_output@@@__crt_stdio_output@@IEAA_NAEAPEAUansi_string@?1??type_case_Z@?$output_processor@DV?$string_output_adapter@D@__crt_stdio_output@@V?$format_validation_base@DV?$string_output_adapter@D@__crt_stdio_output@@@2@@1@AEAA_NXZ@@Z 0000000140025368 f i libucrt:output.obj
 0001:00024384       ??$extract_argument_from_va_list@PEAUansi_string@?1??type_case_Z@?$output_processor@DV?$string_output_adapter@D@__crt_stdio_output@@V?$positional_parameter_base@DV?$string_output_adapter@D@__crt_stdio_output@@@2@@__crt_stdio_output@@AEAA_NXZ@PEAU1?1??234@AEAA_NXZ@@?$positional_parameter_base@DV?$string_output_adapter@D@__crt_stdio_output@@@__crt_stdio_output@@IEAA_NAEAPEAUansi_string@?1??type_case_Z@?$output_processor@DV?$string_output_adapter@D@__crt_stdio_output@@V?$positional_parameter_base@DV?$string_output_adapter@D@__crt_stdio_output@@@2@@1@AEAA_NXZ@@Z 0000000140025384 f i libucrt:output.obj
 0001:000244cc       ??$extract_argument_from_va_list@PEAUansi_string@?1??type_case_Z@?$output_processor@DV?$string_output_adapter@D@__crt_stdio_output@@V?$positional_parameter_base@DV?$string_output_adapter@D@__crt_stdio_output@@@2@@__crt_stdio_output@@AEAA_NXZ@PEAU1?1??234@AEAA_NXZ@@?$standard_base@DV?$string_output_adapter@D@__crt_stdio_output@@@__crt_stdio_output@@IEAA_NAEAPEAUansi_string@?1??type_case_Z@?$output_processor@DV?$string_output_adapter@D@__crt_stdio_output@@V?$positional_parameter_base@DV?$string_output_adapter@D@__crt_stdio_output@@@2@@1@AEAA_NXZ@@Z 00000001400254cc f i libucrt:output.obj
 0001:000244e8       ??$extract_argument_from_va_list@PEAUansi_string@?1??type_case_Z@?$output_processor@DV?$string_output_adapter@D@__crt_stdio_output@@V?$standard_base@DV?$string_output_adapter@D@__crt_stdio_output@@@2@@__crt_stdio_output@@AEAA_NXZ@PEAU1?1??234@AEAA_NXZ@@?$standard_base@DV?$string_output_adapter@D@__crt_stdio_output@@@__crt_stdio_output@@IEAA_NAEAPEAUansi_string@?1??type_case_Z@?$output_processor@DV?$string_output_adapter@D@__crt_stdio_output@@V?$standard_base@DV?$string_output_adapter@D@__crt_stdio_output@@@2@@1@AEAA_NXZ@@Z 00000001400254e8 f i libucrt:output.obj
 0001:00024504       ??$extract_argument_from_va_list@PEAUansi_string@?1??type_case_Z@?$output_processor@_WV?$stream_output_adapter@_W@__crt_stdio_output@@V?$format_validation_base@_WV?$stream_output_adapter@_W@__crt_stdio_output@@@2@@__crt_stdio_output@@AEAA_NXZ@PEAU1?1??234@AEAA_NXZ@@?$standard_base@_WV?$stream_output_adapter@_W@__crt_stdio_output@@@__crt_stdio_output@@IEAA_NAEAPEAUansi_string@?1??type_case_Z@?$output_processor@_WV?$stream_output_adapter@_W@__crt_stdio_output@@V?$format_validation_base@_WV?$stream_output_adapter@_W@__crt_stdio_output@@@2@@1@AEAA_NXZ@@Z 0000000140025504 f i libucrt:output.obj
 0001:00024520       ??$extract_argument_from_va_list@PEAUansi_string@?1??type_case_Z@?$output_processor@_WV?$stream_output_adapter@_W@__crt_stdio_output@@V?$positional_parameter_base@_WV?$stream_output_adapter@_W@__crt_stdio_output@@@2@@__crt_stdio_output@@AEAA_NXZ@PEAU1?1??234@AEAA_NXZ@@?$positional_parameter_base@_WV?$stream_output_adapter@_W@__crt_stdio_output@@@__crt_stdio_output@@IEAA_NAEAPEAUansi_string@?1??type_case_Z@?$output_processor@_WV?$stream_output_adapter@_W@__crt_stdio_output@@V?$positional_parameter_base@_WV?$stream_output_adapter@_W@__crt_stdio_output@@@2@@1@AEAA_NXZ@@Z 0000000140025520 f i libucrt:output.obj
 0001:0002466c       ??$extract_argument_from_va_list@PEAUansi_string@?1??type_case_Z@?$output_processor@_WV?$stream_output_adapter@_W@__crt_stdio_output@@V?$positional_parameter_base@_WV?$stream_output_adapter@_W@__crt_stdio_output@@@2@@__crt_stdio_output@@AEAA_NXZ@PEAU1?1??234@AEAA_NXZ@@?$standard_base@_WV?$stream_output_adapter@_W@__crt_stdio_output@@@__crt_stdio_output@@IEAA_NAEAPEAUansi_string@?1??type_case_Z@?$output_processor@_WV?$stream_output_adapter@_W@__crt_stdio_output@@V?$positional_parameter_base@_WV?$stream_output_adapter@_W@__crt_stdio_output@@@2@@1@AEAA_NXZ@@Z 000000014002566c f i libucrt:output.obj
 0001:00024688       ??$extract_argument_from_va_list@PEAUansi_string@?1??type_case_Z@?$output_processor@_WV?$stream_output_adapter@_W@__crt_stdio_output@@V?$standard_base@_WV?$stream_output_adapter@_W@__crt_stdio_output@@@2@@__crt_stdio_output@@AEAA_NXZ@PEAU1?1??234@AEAA_NXZ@@?$standard_base@_WV?$stream_output_adapter@_W@__crt_stdio_output@@@__crt_stdio_output@@IEAA_NAEAPEAUansi_string@?1??type_case_Z@?$output_processor@_WV?$stream_output_adapter@_W@__crt_stdio_output@@V?$standard_base@_WV?$stream_output_adapter@_W@__crt_stdio_output@@@2@@1@AEAA_NXZ@@Z 0000000140025688 f i libucrt:output.obj
 0001:000246a4       ??$extract_argument_from_va_list@PEAUansi_string@?1??type_case_Z@?$output_processor@_WV?$string_output_adapter@_W@__crt_stdio_output@@V?$format_validation_base@_WV?$string_output_adapter@_W@__crt_stdio_output@@@2@@__crt_stdio_output@@AEAA_NXZ@PEAU1?1??234@AEAA_NXZ@@?$standard_base@_WV?$string_output_adapter@_W@__crt_stdio_output@@@__crt_stdio_output@@IEAA_NAEAPEAUansi_string@?1??type_case_Z@?$output_processor@_WV?$string_output_adapter@_W@__crt_stdio_output@@V?$format_validation_base@_WV?$string_output_adapter@_W@__crt_stdio_output@@@2@@1@AEAA_NXZ@@Z 00000001400256a4 f i libucrt:output.obj
 0001:000246c0       ??$extract_argument_from_va_list@PEAUansi_string@?1??type_case_Z@?$output_processor@_WV?$string_output_adapter@_W@__crt_stdio_output@@V?$positional_parameter_base@_WV?$string_output_adapter@_W@__crt_stdio_output@@@2@@__crt_stdio_output@@AEAA_NXZ@PEAU1?1??234@AEAA_NXZ@@?$positional_parameter_base@_WV?$string_output_adapter@_W@__crt_stdio_output@@@__crt_stdio_output@@IEAA_NAEAPEAUansi_string@?1??type_case_Z@?$output_processor@_WV?$string_output_adapter@_W@__crt_stdio_output@@V?$positional_parameter_base@_WV?$string_output_adapter@_W@__crt_stdio_output@@@2@@1@AEAA_NXZ@@Z 00000001400256c0 f i libucrt:output.obj
 0001:0002480c       ??$extract_argument_from_va_list@PEAUansi_string@?1??type_case_Z@?$output_processor@_WV?$string_output_adapter@_W@__crt_stdio_output@@V?$positional_parameter_base@_WV?$string_output_adapter@_W@__crt_stdio_output@@@2@@__crt_stdio_output@@AEAA_NXZ@PEAU1?1??234@AEAA_NXZ@@?$standard_base@_WV?$string_output_adapter@_W@__crt_stdio_output@@@__crt_stdio_output@@IEAA_NAEAPEAUansi_string@?1??type_case_Z@?$output_processor@_WV?$string_output_adapter@_W@__crt_stdio_output@@V?$positional_parameter_base@_WV?$string_output_adapter@_W@__crt_stdio_output@@@2@@1@AEAA_NXZ@@Z 000000014002580c f i libucrt:output.obj
 0001:00024828       ??$extract_argument_from_va_list@PEAUansi_string@?1??type_case_Z@?$output_processor@_WV?$string_output_adapter@_W@__crt_stdio_output@@V?$standard_base@_WV?$string_output_adapter@_W@__crt_stdio_output@@@2@@__crt_stdio_output@@AEAA_NXZ@PEAU1?1??234@AEAA_NXZ@@?$standard_base@_WV?$string_output_adapter@_W@__crt_stdio_output@@@__crt_stdio_output@@IEAA_NAEAPEAUansi_string@?1??type_case_Z@?$output_processor@_WV?$string_output_adapter@_W@__crt_stdio_output@@V?$standard_base@_WV?$string_output_adapter@_W@__crt_stdio_output@@@2@@1@AEAA_NXZ@@Z 0000000140025828 f i libucrt:output.obj
 0001:00024844       ??$extract_argument_from_va_list@PEAXPEAX@?$positional_parameter_base@DV?$stream_output_adapter@D@__crt_stdio_output@@@__crt_stdio_output@@IEAA_NAEAPEAX@Z 0000000140025844 f i libucrt:output.obj
 0001:0002498c       ??$extract_argument_from_va_list@PEAXPEAX@?$positional_parameter_base@DV?$string_output_adapter@D@__crt_stdio_output@@@__crt_stdio_output@@IEAA_NAEAPEAX@Z 000000014002598c f i libucrt:output.obj
 0001:00024ad4       ??$extract_argument_from_va_list@PEAXPEAX@?$positional_parameter_base@_WV?$stream_output_adapter@_W@__crt_stdio_output@@@__crt_stdio_output@@IEAA_NAEAPEAX@Z 0000000140025ad4 f i libucrt:output.obj
 0001:00024c20       ??$extract_argument_from_va_list@PEAXPEAX@?$positional_parameter_base@_WV?$string_output_adapter@_W@__crt_stdio_output@@@__crt_stdio_output@@IEAA_NAEAPEAX@Z 0000000140025c20 f i libucrt:output.obj
 0001:00024d6c       ??$extract_argument_from_va_list@PEAXPEAX@?$standard_base@DV?$stream_output_adapter@D@__crt_stdio_output@@@__crt_stdio_output@@IEAA_NAEAPEAX@Z 0000000140025d6c f i libucrt:output.obj
 0001:00024d88       ??$extract_argument_from_va_list@PEAXPEAX@?$standard_base@DV?$string_output_adapter@D@__crt_stdio_output@@@__crt_stdio_output@@IEAA_NAEAPEAX@Z 0000000140025d88 f i libucrt:output.obj
 0001:00024da4       ??$extract_argument_from_va_list@PEAXPEAX@?$standard_base@_WV?$stream_output_adapter@_W@__crt_stdio_output@@@__crt_stdio_output@@IEAA_NAEAPEAX@Z 0000000140025da4 f i libucrt:output.obj
 0001:00024dc0       ??$extract_argument_from_va_list@PEAXPEAX@?$standard_base@_WV?$string_output_adapter@_W@__crt_stdio_output@@@__crt_stdio_output@@IEAA_NAEAPEAX@Z 0000000140025dc0 f i libucrt:output.obj
 0001:00024ddc       ??$extract_argument_from_va_list@U_CRT_DOUBLE@@U1@@?$positional_parameter_base@DV?$stream_output_adapter@D@__crt_stdio_output@@@__crt_stdio_output@@IEAA_NAEAU_CRT_DOUBLE@@@Z 0000000140025ddc f i libucrt:output.obj
 0001:00024f28       ??$extract_argument_from_va_list@U_CRT_DOUBLE@@U1@@?$positional_parameter_base@DV?$string_output_adapter@D@__crt_stdio_output@@@__crt_stdio_output@@IEAA_NAEAU_CRT_DOUBLE@@@Z 0000000140025f28 f i libucrt:output.obj
 0001:00025074       ??$extract_argument_from_va_list@U_CRT_DOUBLE@@U1@@?$positional_parameter_base@_WV?$stream_output_adapter@_W@__crt_stdio_output@@@__crt_stdio_output@@IEAA_NAEAU_CRT_DOUBLE@@@Z 0000000140026074 f i libucrt:output.obj
 0001:000251c0       ??$extract_argument_from_va_list@U_CRT_DOUBLE@@U1@@?$positional_parameter_base@_WV?$string_output_adapter@_W@__crt_stdio_output@@@__crt_stdio_output@@IEAA_NAEAU_CRT_DOUBLE@@@Z 00000001400261c0 f i libucrt:output.obj
 0001:0002530c       ??$extract_argument_from_va_list@U_CRT_DOUBLE@@U1@@?$standard_base@DV?$stream_output_adapter@D@__crt_stdio_output@@@__crt_stdio_output@@IEAA_NAEAU_CRT_DOUBLE@@@Z 000000014002630c f i libucrt:output.obj
 0001:0002532c       ??$extract_argument_from_va_list@U_CRT_DOUBLE@@U1@@?$standard_base@DV?$string_output_adapter@D@__crt_stdio_output@@@__crt_stdio_output@@IEAA_NAEAU_CRT_DOUBLE@@@Z 000000014002632c f i libucrt:output.obj
 0001:0002534c       ??$extract_argument_from_va_list@U_CRT_DOUBLE@@U1@@?$standard_base@_WV?$stream_output_adapter@_W@__crt_stdio_output@@@__crt_stdio_output@@IEAA_NAEAU_CRT_DOUBLE@@@Z 000000014002634c f i libucrt:output.obj
 0001:0002536c       ??$extract_argument_from_va_list@U_CRT_DOUBLE@@U1@@?$standard_base@_WV?$string_output_adapter@_W@__crt_stdio_output@@@__crt_stdio_output@@IEAA_NAEAU_CRT_DOUBLE@@@Z 000000014002636c f i libucrt:output.obj
 0001:0002538c       ??$extract_argument_from_va_list@_J_J@?$positional_parameter_base@DV?$stream_output_adapter@D@__crt_stdio_output@@@__crt_stdio_output@@IEAA_NAEA_J@Z 000000014002638c f i libucrt:output.obj
 0001:000254d4       ??$extract_argument_from_va_list@_J_J@?$positional_parameter_base@DV?$string_output_adapter@D@__crt_stdio_output@@@__crt_stdio_output@@IEAA_NAEA_J@Z 00000001400264d4 f i libucrt:output.obj
 0001:0002561c       ??$extract_argument_from_va_list@_J_J@?$positional_parameter_base@_WV?$stream_output_adapter@_W@__crt_stdio_output@@@__crt_stdio_output@@IEAA_NAEA_J@Z 000000014002661c f i libucrt:output.obj
 0001:00025768       ??$extract_argument_from_va_list@_J_J@?$positional_parameter_base@_WV?$string_output_adapter@_W@__crt_stdio_output@@@__crt_stdio_output@@IEAA_NAEA_J@Z 0000000140026768 f i libucrt:output.obj
 0001:000258b4       ??$extract_argument_from_va_list@_J_J@?$standard_base@DV?$stream_output_adapter@D@__crt_stdio_output@@@__crt_stdio_output@@IEAA_NAEA_J@Z 00000001400268b4 f i libucrt:output.obj
 0001:000258d0       ??$extract_argument_from_va_list@_J_J@?$standard_base@DV?$string_output_adapter@D@__crt_stdio_output@@@__crt_stdio_output@@IEAA_NAEA_J@Z 00000001400268d0 f i libucrt:output.obj
 0001:000258ec       ??$extract_argument_from_va_list@_J_J@?$standard_base@_WV?$stream_output_adapter@_W@__crt_stdio_output@@@__crt_stdio_output@@IEAA_NAEA_J@Z 00000001400268ec f i libucrt:output.obj
 0001:00025908       ??$extract_argument_from_va_list@_J_J@?$standard_base@_WV?$string_output_adapter@_W@__crt_stdio_output@@@__crt_stdio_output@@IEAA_NAEA_J@Z 0000000140026908 f i libucrt:output.obj
 0001:00025924       ??$extract_argument_from_va_list@_K_J@?$positional_parameter_base@DV?$stream_output_adapter@D@__crt_stdio_output@@@__crt_stdio_output@@IEAA_NAEA_J@Z 0000000140026924 f i libucrt:output.obj
 0001:00025a6c       ??$extract_argument_from_va_list@_K_J@?$positional_parameter_base@DV?$string_output_adapter@D@__crt_stdio_output@@@__crt_stdio_output@@IEAA_NAEA_J@Z 0000000140026a6c f i libucrt:output.obj
 0001:00025bb4       ??$extract_argument_from_va_list@_K_J@?$positional_parameter_base@_WV?$stream_output_adapter@_W@__crt_stdio_output@@@__crt_stdio_output@@IEAA_NAEA_J@Z 0000000140026bb4 f i libucrt:output.obj
 0001:00025d00       ??$extract_argument_from_va_list@_K_J@?$positional_parameter_base@_WV?$string_output_adapter@_W@__crt_stdio_output@@@__crt_stdio_output@@IEAA_NAEA_J@Z 0000000140026d00 f i libucrt:output.obj
 0001:00025e4c       ??$extract_argument_from_va_list@_K_J@?$standard_base@DV?$stream_output_adapter@D@__crt_stdio_output@@@__crt_stdio_output@@IEAA_NAEA_J@Z 0000000140026e4c f i libucrt:output.obj
 0001:00025e68       ??$extract_argument_from_va_list@_K_J@?$standard_base@DV?$string_output_adapter@D@__crt_stdio_output@@@__crt_stdio_output@@IEAA_NAEA_J@Z 0000000140026e68 f i libucrt:output.obj
 0001:00025e84       ??$extract_argument_from_va_list@_K_J@?$standard_base@_WV?$stream_output_adapter@_W@__crt_stdio_output@@@__crt_stdio_output@@IEAA_NAEA_J@Z 0000000140026e84 f i libucrt:output.obj
 0001:00025ea0       ??$extract_argument_from_va_list@_K_J@?$standard_base@_WV?$string_output_adapter@_W@__crt_stdio_output@@@__crt_stdio_output@@IEAA_NAEA_J@Z 0000000140026ea0 f i libucrt:output.obj
 0001:00025ebc       ??$extract_argument_from_va_list@_W_W@?$positional_parameter_base@DV?$stream_output_adapter@D@__crt_stdio_output@@@__crt_stdio_output@@IEAA_NAEA_W@Z 0000000140026ebc f i libucrt:output.obj
 0001:00026008       ??$extract_argument_from_va_list@_W_W@?$positional_parameter_base@DV?$string_output_adapter@D@__crt_stdio_output@@@__crt_stdio_output@@IEAA_NAEA_W@Z 0000000140027008 f i libucrt:output.obj
 0001:00026154       ??$extract_argument_from_va_list@_W_W@?$positional_parameter_base@_WV?$stream_output_adapter@_W@__crt_stdio_output@@@__crt_stdio_output@@IEAA_NAEA_W@Z 0000000140027154 f i libucrt:output.obj
 0001:000262a0       ??$extract_argument_from_va_list@_W_W@?$positional_parameter_base@_WV?$string_output_adapter@_W@__crt_stdio_output@@@__crt_stdio_output@@IEAA_NAEA_W@Z 00000001400272a0 f i libucrt:output.obj
 0001:000263ec       ??$extract_argument_from_va_list@_W_W@?$standard_base@DV?$stream_output_adapter@D@__crt_stdio_output@@@__crt_stdio_output@@IEAA_NAEA_W@Z 00000001400273ec f i libucrt:output.obj
 0001:00026408       ??$extract_argument_from_va_list@_W_W@?$standard_base@DV?$string_output_adapter@D@__crt_stdio_output@@@__crt_stdio_output@@IEAA_NAEA_W@Z 0000000140027408 f i libucrt:output.obj
 0001:00026424       ??$extract_argument_from_va_list@_W_W@?$standard_base@_WV?$stream_output_adapter@_W@__crt_stdio_output@@@__crt_stdio_output@@IEAA_NAEA_W@Z 0000000140027424 f i libucrt:output.obj
 0001:00026440       ??$extract_argument_from_va_list@_W_W@?$standard_base@_WV?$string_output_adapter@_W@__crt_stdio_output@@@__crt_stdio_output@@IEAA_NAEA_W@Z 0000000140027440 f i libucrt:output.obj
 0001:0002645c       ??$get_parameter_type@D@?$positional_parameter_base@DV?$stream_output_adapter@D@__crt_stdio_output@@@__crt_stdio_output@@CA?AW4parameter_type@01@PEAD@Z 000000014002745c f i libucrt:output.obj
 0001:00026464       ??$get_parameter_type@D@?$positional_parameter_base@DV?$string_output_adapter@D@__crt_stdio_output@@@__crt_stdio_output@@CA?AW4parameter_type@01@PEAD@Z 0000000140027464 f i libucrt:output.obj
 0001:0002646c       ??$get_parameter_type@D@?$positional_parameter_base@_WV?$stream_output_adapter@_W@__crt_stdio_output@@@__crt_stdio_output@@CA?AW4parameter_type@01@PEAD@Z 000000014002746c f i libucrt:output.obj
 0001:00026474       ??$get_parameter_type@D@?$positional_parameter_base@_WV?$string_output_adapter@_W@__crt_stdio_output@@@__crt_stdio_output@@CA?AW4parameter_type@01@PEAD@Z 0000000140027474 f i libucrt:output.obj
 0001:0002647c       ??$get_parameter_type@Uansi_string@?1??type_case_Z@?$output_processor@DV?$stream_output_adapter@D@__crt_stdio_output@@V?$positional_parameter_base@DV?$stream_output_adapter@D@__crt_stdio_output@@@2@@__crt_stdio_output@@AEAA_NXZ@@?$positional_parameter_base@DV?$stream_output_adapter@D@__crt_stdio_output@@@__crt_stdio_output@@CA?AW4parameter_type@01@PEAUansi_string@?1??type_case_Z@?$output_processor@DV?$stream_output_adapter@D@__crt_stdio_output@@V?$positional_parameter_base@DV?$stream_output_adapter@D@__crt_stdio_output@@@2@@1@AEAA_NXZ@@Z 000000014002747c f i libucrt:output.obj
 0001:00026484       ??$get_parameter_type@Uansi_string@?1??type_case_Z@?$output_processor@DV?$string_output_adapter@D@__crt_stdio_output@@V?$positional_parameter_base@DV?$string_output_adapter@D@__crt_stdio_output@@@2@@__crt_stdio_output@@AEAA_NXZ@@?$positional_parameter_base@DV?$string_output_adapter@D@__crt_stdio_output@@@__crt_stdio_output@@CA?AW4parameter_type@01@PEAUansi_string@?1??type_case_Z@?$output_processor@DV?$string_output_adapter@D@__crt_stdio_output@@V?$positional_parameter_base@DV?$string_output_adapter@D@__crt_stdio_output@@@2@@1@AEAA_NXZ@@Z 0000000140027484 f i libucrt:output.obj
 0001:0002648c       ??$get_parameter_type@Uansi_string@?1??type_case_Z@?$output_processor@_WV?$stream_output_adapter@_W@__crt_stdio_output@@V?$positional_parameter_base@_WV?$stream_output_adapter@_W@__crt_stdio_output@@@2@@__crt_stdio_output@@AEAA_NXZ@@?$positional_parameter_base@_WV?$stream_output_adapter@_W@__crt_stdio_output@@@__crt_stdio_output@@CA?AW4parameter_type@01@PEAUansi_string@?1??type_case_Z@?$output_processor@_WV?$stream_output_adapter@_W@__crt_stdio_output@@V?$positional_parameter_base@_WV?$stream_output_adapter@_W@__crt_stdio_output@@@2@@1@AEAA_NXZ@@Z 000000014002748c f i libucrt:output.obj
 0001:00026494       ??$get_parameter_type@Uansi_string@?1??type_case_Z@?$output_processor@_WV?$string_output_adapter@_W@__crt_stdio_output@@V?$positional_parameter_base@_WV?$string_output_adapter@_W@__crt_stdio_output@@@2@@__crt_stdio_output@@AEAA_NXZ@@?$positional_parameter_base@_WV?$string_output_adapter@_W@__crt_stdio_output@@@__crt_stdio_output@@CA?AW4parameter_type@01@PEAUansi_string@?1??type_case_Z@?$output_processor@_WV?$string_output_adapter@_W@__crt_stdio_output@@V?$positional_parameter_base@_WV?$string_output_adapter@_W@__crt_stdio_output@@@2@@1@AEAA_NXZ@@Z 0000000140027494 f i libucrt:output.obj
 0001:0002649c       ??$get_parameter_type@X@?$positional_parameter_base@DV?$stream_output_adapter@D@__crt_stdio_output@@@__crt_stdio_output@@CA?AW4parameter_type@01@PEAX@Z 000000014002749c f i libucrt:output.obj
 0001:000264a4       ??$get_parameter_type@X@?$positional_parameter_base@DV?$string_output_adapter@D@__crt_stdio_output@@@__crt_stdio_output@@CA?AW4parameter_type@01@PEAX@Z 00000001400274a4 f i libucrt:output.obj
 0001:000264ac       ??$get_parameter_type@X@?$positional_parameter_base@_WV?$stream_output_adapter@_W@__crt_stdio_output@@@__crt_stdio_output@@CA?AW4parameter_type@01@PEAX@Z 00000001400274ac f i libucrt:output.obj
 0001:000264b4       ??$get_parameter_type@X@?$positional_parameter_base@_WV?$string_output_adapter@_W@__crt_stdio_output@@@__crt_stdio_output@@CA?AW4parameter_type@01@PEAX@Z 00000001400274b4 f i libucrt:output.obj
 0001:000264bc       ??$is_character_specifier@D@?$positional_parameter_base@DV?$stream_output_adapter@D@__crt_stdio_output@@@__crt_stdio_output@@CA_ND@Z 00000001400274bc f i libucrt:output.obj
 0001:000264c8       ??$is_character_specifier@D@?$positional_parameter_base@DV?$string_output_adapter@D@__crt_stdio_output@@@__crt_stdio_output@@CA_ND@Z 00000001400274c8 f i libucrt:output.obj
 0001:000264d4       ??$is_character_specifier@_W@?$positional_parameter_base@_WV?$stream_output_adapter@_W@__crt_stdio_output@@@__crt_stdio_output@@CA_N_W@Z 00000001400274d4 f i libucrt:output.obj
 0001:000264e8       ??$is_character_specifier@_W@?$positional_parameter_base@_WV?$string_output_adapter@_W@__crt_stdio_output@@@__crt_stdio_output@@CA_N_W@Z 00000001400274e8 f i libucrt:output.obj
 0001:000264fc       ??$is_integral_specifier@D@?$positional_parameter_base@DV?$stream_output_adapter@D@__crt_stdio_output@@@__crt_stdio_output@@CA_ND@Z 00000001400274fc f i libucrt:output.obj
 0001:00026528       ??$is_integral_specifier@D@?$positional_parameter_base@DV?$string_output_adapter@D@__crt_stdio_output@@@__crt_stdio_output@@CA_ND@Z 0000000140027528 f i libucrt:output.obj
 0001:00026554       ??$is_integral_specifier@_W@?$positional_parameter_base@_WV?$stream_output_adapter@_W@__crt_stdio_output@@@__crt_stdio_output@@CA_N_W@Z 0000000140027554 f i libucrt:output.obj
 0001:00026584       ??$is_integral_specifier@_W@?$positional_parameter_base@_WV?$string_output_adapter@_W@__crt_stdio_output@@@__crt_stdio_output@@CA_N_W@Z 0000000140027584 f i libucrt:output.obj
 0001:000265b4       ??$is_overflow_condition@K@__crt_strtox@@YA_NIK@Z 00000001400275b4 f i libucrt:output.obj
 0001:000265e4       ??$is_pointer_specifier@D@?$positional_parameter_base@DV?$stream_output_adapter@D@__crt_stdio_output@@@__crt_stdio_output@@CA_ND@Z 00000001400275e4 f i libucrt:output.obj
 0001:000265ec       ??$is_pointer_specifier@D@?$positional_parameter_base@DV?$string_output_adapter@D@__crt_stdio_output@@@__crt_stdio_output@@CA_ND@Z 00000001400275ec f i libucrt:output.obj
 0001:000265f4       ??$is_pointer_specifier@_W@?$positional_parameter_base@_WV?$stream_output_adapter@_W@__crt_stdio_output@@@__crt_stdio_output@@CA_N_W@Z 00000001400275f4 f i libucrt:output.obj
 0001:00026600       ??$is_pointer_specifier@_W@?$positional_parameter_base@_WV?$string_output_adapter@_W@__crt_stdio_output@@@__crt_stdio_output@@CA_N_W@Z 0000000140027600 f i libucrt:output.obj
 0001:0002660c       ??$is_string_specifier@D@?$positional_parameter_base@DV?$stream_output_adapter@D@__crt_stdio_output@@@__crt_stdio_output@@CA_ND@Z 000000014002760c f i libucrt:output.obj
 0001:00026618       ??$is_string_specifier@D@?$positional_parameter_base@DV?$string_output_adapter@D@__crt_stdio_output@@@__crt_stdio_output@@CA_ND@Z 0000000140027618 f i libucrt:output.obj
 0001:00026624       ??$is_string_specifier@_W@?$positional_parameter_base@_WV?$stream_output_adapter@_W@__crt_stdio_output@@@__crt_stdio_output@@CA_N_W@Z 0000000140027624 f i libucrt:output.obj
 0001:00026638       ??$is_string_specifier@_W@?$positional_parameter_base@_WV?$string_output_adapter@_W@__crt_stdio_output@@@__crt_stdio_output@@CA_N_W@Z 0000000140027638 f i libucrt:output.obj
 0001:0002664c       ??$is_wide_character_specifier@D@__crt_stdio_output@@YA_N_KDW4length_modifier@0@@Z 000000014002764c f i libucrt:output.obj
 0001:00026680       ??$is_wide_character_specifier@_W@__crt_stdio_output@@YA_N_K_WW4length_modifier@0@@Z 0000000140027680 f i libucrt:output.obj
 0001:000266d0       ??$make_c_string_character_source@DPEAPEAD@__crt_strtox@@YA?AV?$c_string_character_source@D@0@QEBDQEAPEAD@Z 00000001400276d0 f i libucrt:output.obj
 0001:000266e8       ??$make_c_string_character_source@_WPEAPEA_W@__crt_strtox@@YA?AV?$c_string_character_source@_W@0@QEB_WQEAPEA_W@Z 00000001400276e8 f i libucrt:output.obj
 0001:00026700       ??$parse_integer@KV?$c_string_character_source@D@__crt_strtox@@$0A@@__crt_strtox@@YAKAEAV__crt_cached_ptd_host@@V?$c_string_character_source@D@0@H_N@Z 0000000140027700 f i libucrt:output.obj
 0001:00026a60       ??$parse_integer@KV?$c_string_character_source@_W@__crt_strtox@@$0A@@__crt_strtox@@YAKAEAV__crt_cached_ptd_host@@V?$c_string_character_source@_W@0@H_N@Z 0000000140027a60 f i libucrt:output.obj
 0001:000273b4       ??$peek_va_arg@C@__crt_stdio_output@@YACPEAD@Z 00000001400283b4 f i libucrt:output.obj
 0001:000273b8       ??$peek_va_arg@E@__crt_stdio_output@@YAEPEAD@Z 00000001400283b8 f i libucrt:output.obj
 0001:000273bc       ??$peek_va_arg@F@__crt_stdio_output@@YAFPEAD@Z 00000001400283bc f i libucrt:output.obj
 0001:000273c0       ??$peek_va_arg@G@__crt_stdio_output@@YAGPEAD@Z 00000001400283c0 f i libucrt:output.obj
 0001:000273c4       ??$peek_va_arg@H@__crt_stdio_output@@YAHPEAD@Z 00000001400283c4 f i libucrt:output.obj
 0001:000273c8       ??$peek_va_arg@I@__crt_stdio_output@@YAIPEAD@Z 00000001400283c8 f i libucrt:output.obj
 0001:000273cc       ??$peek_va_arg@PEAD@__crt_stdio_output@@YAPEADPEAD@Z 00000001400283cc f i libucrt:output.obj
 0001:000273d0       ??$peek_va_arg@PEAUansi_string@?1??type_case_Z@?$output_processor@DV?$stream_output_adapter@D@__crt_stdio_output@@V?$positional_parameter_base@DV?$stream_output_adapter@D@__crt_stdio_output@@@2@@__crt_stdio_output@@AEAA_NXZ@@__crt_stdio_output@@YAPEAUansi_string@?1??type_case_Z@?$output_processor@DV?$stream_output_adapter@D@__crt_stdio_output@@V?$positional_parameter_base@DV?$stream_output_adapter@D@__crt_stdio_output@@@2@@0@AEAA_NXZ@PEAD@Z 00000001400283d0 f i libucrt:output.obj
 0001:000273d4       ??$peek_va_arg@PEAUansi_string@?1??type_case_Z@?$output_processor@DV?$string_output_adapter@D@__crt_stdio_output@@V?$positional_parameter_base@DV?$string_output_adapter@D@__crt_stdio_output@@@2@@__crt_stdio_output@@AEAA_NXZ@@__crt_stdio_output@@YAPEAUansi_string@?1??type_case_Z@?$output_processor@DV?$string_output_adapter@D@__crt_stdio_output@@V?$positional_parameter_base@DV?$string_output_adapter@D@__crt_stdio_output@@@2@@0@AEAA_NXZ@PEAD@Z 00000001400283d4 f i libucrt:output.obj
 0001:000273d8       ??$peek_va_arg@PEAUansi_string@?1??type_case_Z@?$output_processor@_WV?$stream_output_adapter@_W@__crt_stdio_output@@V?$positional_parameter_base@_WV?$stream_output_adapter@_W@__crt_stdio_output@@@2@@__crt_stdio_output@@AEAA_NXZ@@__crt_stdio_output@@YAPEAUansi_string@?1??type_case_Z@?$output_processor@_WV?$stream_output_adapter@_W@__crt_stdio_output@@V?$positional_parameter_base@_WV?$stream_output_adapter@_W@__crt_stdio_output@@@2@@0@AEAA_NXZ@PEAD@Z 00000001400283d8 f i libucrt:output.obj
 0001:000273dc       ??$peek_va_arg@PEAUansi_string@?1??type_case_Z@?$output_processor@_WV?$string_output_adapter@_W@__crt_stdio_output@@V?$positional_parameter_base@_WV?$string_output_adapter@_W@__crt_stdio_output@@@2@@__crt_stdio_output@@AEAA_NXZ@@__crt_stdio_output@@YAPEAUansi_string@?1??type_case_Z@?$output_processor@_WV?$string_output_adapter@_W@__crt_stdio_output@@V?$positional_parameter_base@_WV?$string_output_adapter@_W@__crt_stdio_output@@@2@@0@AEAA_NXZ@PEAD@Z 00000001400283dc f i libucrt:output.obj
 0001:000273e0       ??$peek_va_arg@PEAX@__crt_stdio_output@@YAPEAXPEAD@Z 00000001400283e0 f i libucrt:output.obj
 0001:000273e4       ??$peek_va_arg@U_CRT_DOUBLE@@@__crt_stdio_output@@YA?AU_CRT_DOUBLE@@PEAD@Z 00000001400283e4 f i libucrt:output.obj
 0001:000273e8       ??$peek_va_arg@_J@__crt_stdio_output@@YA_JPEAD@Z 00000001400283e8 f i libucrt:output.obj
 0001:000273ec       ??$peek_va_arg@_K@__crt_stdio_output@@YA_KPEAD@Z 00000001400283ec f i libucrt:output.obj
 0001:000273f0       ??$peek_va_arg@_W@__crt_stdio_output@@YA_WPEAD@Z 00000001400283f0 f i libucrt:output.obj
 0001:000273f4       ??$puttc_nolock_internal@AEBDPEAU_iobuf@@AEAV__crt_cached_ptd_host@@@?$__crt_char_traits@D@@SAHAEBD$$QEAPEAU_iobuf@@AEAV__crt_cached_ptd_host@@@Z 00000001400283f4 f i libucrt:output.obj
 0001:00027404       ??$puttc_nolock_internal@AEB_WPEAU_iobuf@@AEAV__crt_cached_ptd_host@@@?$__crt_char_traits@_W@@SAGAEB_W$$QEAPEAU_iobuf@@AEAV__crt_cached_ptd_host@@@Z 0000000140028404 f i libucrt:output.obj
 0001:00027414       ??$read_va_arg@C@__crt_stdio_output@@YACAEAPEAD@Z 0000000140028414 f i libucrt:output.obj
 0001:00027424       ??$read_va_arg@E@__crt_stdio_output@@YAEAEAPEAD@Z 0000000140028424 f i libucrt:output.obj
 0001:00027434       ??$read_va_arg@F@__crt_stdio_output@@YAFAEAPEAD@Z 0000000140028434 f i libucrt:output.obj
 0001:00027448       ??$read_va_arg@G@__crt_stdio_output@@YAGAEAPEAD@Z 0000000140028448 f i libucrt:output.obj
 0001:0002745c       ??$read_va_arg@H@__crt_stdio_output@@YAHAEAPEAD@Z 000000014002845c f i libucrt:output.obj
 0001:0002746c       ??$read_va_arg@I@__crt_stdio_output@@YAIAEAPEAD@Z 000000014002846c f i libucrt:output.obj
 0001:0002747c       ??$read_va_arg@PEAD@__crt_stdio_output@@YAPEADAEAPEAD@Z 000000014002847c f i libucrt:output.obj
 0001:00027490       ??$read_va_arg@PEAUansi_string@?1??type_case_Z@?$output_processor@DV?$stream_output_adapter@D@__crt_stdio_output@@V?$format_validation_base@DV?$stream_output_adapter@D@__crt_stdio_output@@@2@@__crt_stdio_output@@AEAA_NXZ@@__crt_stdio_output@@YAPEAUansi_string@?1??type_case_Z@?$output_processor@DV?$stream_output_adapter@D@__crt_stdio_output@@V?$format_validation_base@DV?$stream_output_adapter@D@__crt_stdio_output@@@2@@0@AEAA_NXZ@AEAPEAD@Z 0000000140028490 f i libucrt:output.obj
 0001:000274a4       ??$read_va_arg@PEAUansi_string@?1??type_case_Z@?$output_processor@DV?$stream_output_adapter@D@__crt_stdio_output@@V?$positional_parameter_base@DV?$stream_output_adapter@D@__crt_stdio_output@@@2@@__crt_stdio_output@@AEAA_NXZ@@__crt_stdio_output@@YAPEAUansi_string@?1??type_case_Z@?$output_processor@DV?$stream_output_adapter@D@__crt_stdio_output@@V?$positional_parameter_base@DV?$stream_output_adapter@D@__crt_stdio_output@@@2@@0@AEAA_NXZ@AEAPEAD@Z 00000001400284a4 f i libucrt:output.obj
 0001:000274b8       ??$read_va_arg@PEAUansi_string@?1??type_case_Z@?$output_processor@DV?$stream_output_adapter@D@__crt_stdio_output@@V?$standard_base@DV?$stream_output_adapter@D@__crt_stdio_output@@@2@@__crt_stdio_output@@AEAA_NXZ@@__crt_stdio_output@@YAPEAUansi_string@?1??type_case_Z@?$output_processor@DV?$stream_output_adapter@D@__crt_stdio_output@@V?$standard_base@DV?$stream_output_adapter@D@__crt_stdio_output@@@2@@0@AEAA_NXZ@AEAPEAD@Z 00000001400284b8 f i libucrt:output.obj
 0001:000274cc       ??$read_va_arg@PEAUansi_string@?1??type_case_Z@?$output_processor@DV?$string_output_adapter@D@__crt_stdio_output@@V?$format_validation_base@DV?$string_output_adapter@D@__crt_stdio_output@@@2@@__crt_stdio_output@@AEAA_NXZ@@__crt_stdio_output@@YAPEAUansi_string@?1??type_case_Z@?$output_processor@DV?$string_output_adapter@D@__crt_stdio_output@@V?$format_validation_base@DV?$string_output_adapter@D@__crt_stdio_output@@@2@@0@AEAA_NXZ@AEAPEAD@Z 00000001400284cc f i libucrt:output.obj
 0001:000274e0       ??$read_va_arg@PEAUansi_string@?1??type_case_Z@?$output_processor@DV?$string_output_adapter@D@__crt_stdio_output@@V?$positional_parameter_base@DV?$string_output_adapter@D@__crt_stdio_output@@@2@@__crt_stdio_output@@AEAA_NXZ@@__crt_stdio_output@@YAPEAUansi_string@?1??type_case_Z@?$output_processor@DV?$string_output_adapter@D@__crt_stdio_output@@V?$positional_parameter_base@DV?$string_output_adapter@D@__crt_stdio_output@@@2@@0@AEAA_NXZ@AEAPEAD@Z 00000001400284e0 f i libucrt:output.obj
 0001:000274f4       ??$read_va_arg@PEAUansi_string@?1??type_case_Z@?$output_processor@DV?$string_output_adapter@D@__crt_stdio_output@@V?$standard_base@DV?$string_output_adapter@D@__crt_stdio_output@@@2@@__crt_stdio_output@@AEAA_NXZ@@__crt_stdio_output@@YAPEAUansi_string@?1??type_case_Z@?$output_processor@DV?$string_output_adapter@D@__crt_stdio_output@@V?$standard_base@DV?$string_output_adapter@D@__crt_stdio_output@@@2@@0@AEAA_NXZ@AEAPEAD@Z 00000001400284f4 f i libucrt:output.obj
 0001:00027508       ??$read_va_arg@PEAUansi_string@?1??type_case_Z@?$output_processor@_WV?$stream_output_adapter@_W@__crt_stdio_output@@V?$format_validation_base@_WV?$stream_output_adapter@_W@__crt_stdio_output@@@2@@__crt_stdio_output@@AEAA_NXZ@@__crt_stdio_output@@YAPEAUansi_string@?1??type_case_Z@?$output_processor@_WV?$stream_output_adapter@_W@__crt_stdio_output@@V?$format_validation_base@_WV?$stream_output_adapter@_W@__crt_stdio_output@@@2@@0@AEAA_NXZ@AEAPEAD@Z 0000000140028508 f i libucrt:output.obj
 0001:0002751c       ??$read_va_arg@PEAUansi_string@?1??type_case_Z@?$output_processor@_WV?$stream_output_adapter@_W@__crt_stdio_output@@V?$positional_parameter_base@_WV?$stream_output_adapter@_W@__crt_stdio_output@@@2@@__crt_stdio_output@@AEAA_NXZ@@__crt_stdio_output@@YAPEAUansi_string@?1??type_case_Z@?$output_processor@_WV?$stream_output_adapter@_W@__crt_stdio_output@@V?$positional_parameter_base@_WV?$stream_output_adapter@_W@__crt_stdio_output@@@2@@0@AEAA_NXZ@AEAPEAD@Z 000000014002851c f i libucrt:output.obj
 0001:00027530       ??$read_va_arg@PEAUansi_string@?1??type_case_Z@?$output_processor@_WV?$stream_output_adapter@_W@__crt_stdio_output@@V?$standard_base@_WV?$stream_output_adapter@_W@__crt_stdio_output@@@2@@__crt_stdio_output@@AEAA_NXZ@@__crt_stdio_output@@YAPEAUansi_string@?1??type_case_Z@?$output_processor@_WV?$stream_output_adapter@_W@__crt_stdio_output@@V?$standard_base@_WV?$stream_output_adapter@_W@__crt_stdio_output@@@2@@0@AEAA_NXZ@AEAPEAD@Z 0000000140028530 f i libucrt:output.obj
 0001:00027544       ??$read_va_arg@PEAUansi_string@?1??type_case_Z@?$output_processor@_WV?$string_output_adapter@_W@__crt_stdio_output@@V?$format_validation_base@_WV?$string_output_adapter@_W@__crt_stdio_output@@@2@@__crt_stdio_output@@AEAA_NXZ@@__crt_stdio_output@@YAPEAUansi_string@?1??type_case_Z@?$output_processor@_WV?$string_output_adapter@_W@__crt_stdio_output@@V?$format_validation_base@_WV?$string_output_adapter@_W@__crt_stdio_output@@@2@@0@AEAA_NXZ@AEAPEAD@Z 0000000140028544 f i libucrt:output.obj
 0001:00027558       ??$read_va_arg@PEAUansi_string@?1??type_case_Z@?$output_processor@_WV?$string_output_adapter@_W@__crt_stdio_output@@V?$positional_parameter_base@_WV?$string_output_adapter@_W@__crt_stdio_output@@@2@@__crt_stdio_output@@AEAA_NXZ@@__crt_stdio_output@@YAPEAUansi_string@?1??type_case_Z@?$output_processor@_WV?$string_output_adapter@_W@__crt_stdio_output@@V?$positional_parameter_base@_WV?$string_output_adapter@_W@__crt_stdio_output@@@2@@0@AEAA_NXZ@AEAPEAD@Z 0000000140028558 f i libucrt:output.obj
 0001:0002756c       ??$read_va_arg@PEAUansi_string@?1??type_case_Z@?$output_processor@_WV?$string_output_adapter@_W@__crt_stdio_output@@V?$standard_base@_WV?$string_output_adapter@_W@__crt_stdio_output@@@2@@__crt_stdio_output@@AEAA_NXZ@@__crt_stdio_output@@YAPEAUansi_string@?1??type_case_Z@?$output_processor@_WV?$string_output_adapter@_W@__crt_stdio_output@@V?$standard_base@_WV?$string_output_adapter@_W@__crt_stdio_output@@@2@@0@AEAA_NXZ@AEAPEAD@Z 000000014002856c f i libucrt:output.obj
 0001:00027580       ??$read_va_arg@PEAX@__crt_stdio_output@@YAPEAXAEAPEAD@Z 0000000140028580 f i libucrt:output.obj
 0001:00027594       ??$read_va_arg@U_CRT_DOUBLE@@@__crt_stdio_output@@YA?AU_CRT_DOUBLE@@AEAPEAD@Z 0000000140028594 f i libucrt:output.obj
 0001:000275a8       ??$read_va_arg@_J@__crt_stdio_output@@YA_JAEAPEAD@Z 00000001400285a8 f i libucrt:output.obj
 0001:000275bc       ??$read_va_arg@_K@__crt_stdio_output@@YA_KAEAPEAD@Z 00000001400285bc f i libucrt:output.obj
 0001:000275d0       ??$read_va_arg@_W@__crt_stdio_output@@YA_WAEAPEAD@Z 00000001400285d0 f i libucrt:output.obj
 0001:000275e4       ??$scratch_count@D@formatting_buffer@__crt_stdio_output@@QEBA_KXZ 00000001400285e4 f i libucrt:output.obj
 0001:00027608       ??$scratch_data@D@formatting_buffer@__crt_stdio_output@@QEAAPEADXZ 0000000140028608 f i libucrt:output.obj
 0001:00027634       ??$type_case_integer@$07@?$output_processor@DV?$stream_output_adapter@D@__crt_stdio_output@@V?$format_validation_base@DV?$stream_output_adapter@D@__crt_stdio_output@@@2@@__crt_stdio_output@@AEAA_N_N@Z 0000000140028634 f i libucrt:output.obj
 0001:000278b8       ??$type_case_integer@$07@?$output_processor@DV?$stream_output_adapter@D@__crt_stdio_output@@V?$positional_parameter_base@DV?$stream_output_adapter@D@__crt_stdio_output@@@2@@__crt_stdio_output@@AEAA_N_N@Z 00000001400288b8 f i libucrt:output.obj
 0001:00027b70       ??$type_case_integer@$07@?$output_processor@DV?$stream_output_adapter@D@__crt_stdio_output@@V?$standard_base@DV?$stream_output_adapter@D@__crt_stdio_output@@@2@@__crt_stdio_output@@AEAA_N_N@Z 0000000140028b70 f i libucrt:output.obj
 0001:00027df4       ??$type_case_integer@$07@?$output_processor@DV?$string_output_adapter@D@__crt_stdio_output@@V?$format_validation_base@DV?$string_output_adapter@D@__crt_stdio_output@@@2@@__crt_stdio_output@@AEAA_N_N@Z 0000000140028df4 f i libucrt:output.obj
 0001:00028078       ??$type_case_integer@$07@?$output_processor@DV?$string_output_adapter@D@__crt_stdio_output@@V?$positional_parameter_base@DV?$string_output_adapter@D@__crt_stdio_output@@@2@@__crt_stdio_output@@AEAA_N_N@Z 0000000140029078 f i libucrt:output.obj
 0001:00028330       ??$type_case_integer@$07@?$output_processor@DV?$string_output_adapter@D@__crt_stdio_output@@V?$standard_base@DV?$string_output_adapter@D@__crt_stdio_output@@@2@@__crt_stdio_output@@AEAA_N_N@Z 0000000140029330 f i libucrt:output.obj
 0001:000285b4       ??$type_case_integer@$07@?$output_processor@_WV?$stream_output_adapter@_W@__crt_stdio_output@@V?$format_validation_base@_WV?$stream_output_adapter@_W@__crt_stdio_output@@@2@@__crt_stdio_output@@AEAA_N_N@Z 00000001400295b4 f i libucrt:output.obj
 0001:00028840       ??$type_case_integer@$07@?$output_processor@_WV?$stream_output_adapter@_W@__crt_stdio_output@@V?$positional_parameter_base@_WV?$stream_output_adapter@_W@__crt_stdio_output@@@2@@__crt_stdio_output@@AEAA_N_N@Z 0000000140029840 f i libucrt:output.obj
 0001:00028b00       ??$type_case_integer@$07@?$output_processor@_WV?$stream_output_adapter@_W@__crt_stdio_output@@V?$standard_base@_WV?$stream_output_adapter@_W@__crt_stdio_output@@@2@@__crt_stdio_output@@AEAA_N_N@Z 0000000140029b00 f i libucrt:output.obj
 0001:00028d8c       ??$type_case_integer@$07@?$output_processor@_WV?$string_output_adapter@_W@__crt_stdio_output@@V?$format_validation_base@_WV?$string_output_adapter@_W@__crt_stdio_output@@@2@@__crt_stdio_output@@AEAA_N_N@Z 0000000140029d8c f i libucrt:output.obj
 0001:00029018       ??$type_case_integer@$07@?$output_processor@_WV?$string_output_adapter@_W@__crt_stdio_output@@V?$positional_parameter_base@_WV?$string_output_adapter@_W@__crt_stdio_output@@@2@@__crt_stdio_output@@AEAA_N_N@Z 000000014002a018 f i libucrt:output.obj
 0001:000292d8       ??$type_case_integer@$07@?$output_processor@_WV?$string_output_adapter@_W@__crt_stdio_output@@V?$standard_base@_WV?$string_output_adapter@_W@__crt_stdio_output@@@2@@__crt_stdio_output@@AEAA_N_N@Z 000000014002a2d8 f i libucrt:output.obj
 0001:00029564       ??$type_case_integer@$09@?$output_processor@DV?$stream_output_adapter@D@__crt_stdio_output@@V?$format_validation_base@DV?$stream_output_adapter@D@__crt_stdio_output@@@2@@__crt_stdio_output@@AEAA_N_N@Z 000000014002a564 f i libucrt:output.obj
 0001:000297e8       ??$type_case_integer@$09@?$output_processor@DV?$stream_output_adapter@D@__crt_stdio_output@@V?$positional_parameter_base@DV?$stream_output_adapter@D@__crt_stdio_output@@@2@@__crt_stdio_output@@AEAA_N_N@Z 000000014002a7e8 f i libucrt:output.obj
 0001:00029aa0       ??$type_case_integer@$09@?$output_processor@DV?$stream_output_adapter@D@__crt_stdio_output@@V?$standard_base@DV?$stream_output_adapter@D@__crt_stdio_output@@@2@@__crt_stdio_output@@AEAA_N_N@Z 000000014002aaa0 f i libucrt:output.obj
 0001:00029d24       ??$type_case_integer@$09@?$output_processor@DV?$string_output_adapter@D@__crt_stdio_output@@V?$format_validation_base@DV?$string_output_adapter@D@__crt_stdio_output@@@2@@__crt_stdio_output@@AEAA_N_N@Z 000000014002ad24 f i libucrt:output.obj
 0001:00029fa8       ??$type_case_integer@$09@?$output_processor@DV?$string_output_adapter@D@__crt_stdio_output@@V?$positional_parameter_base@DV?$string_output_adapter@D@__crt_stdio_output@@@2@@__crt_stdio_output@@AEAA_N_N@Z 000000014002afa8 f i libucrt:output.obj
 0001:0002a260       ??$type_case_integer@$09@?$output_processor@DV?$string_output_adapter@D@__crt_stdio_output@@V?$standard_base@DV?$string_output_adapter@D@__crt_stdio_output@@@2@@__crt_stdio_output@@AEAA_N_N@Z 000000014002b260 f i libucrt:output.obj
 0001:0002a4e4       ??$type_case_integer@$09@?$output_processor@_WV?$stream_output_adapter@_W@__crt_stdio_output@@V?$format_validation_base@_WV?$stream_output_adapter@_W@__crt_stdio_output@@@2@@__crt_stdio_output@@AEAA_N_N@Z 000000014002b4e4 f i libucrt:output.obj
 0001:0002a770       ??$type_case_integer@$09@?$output_processor@_WV?$stream_output_adapter@_W@__crt_stdio_output@@V?$positional_parameter_base@_WV?$stream_output_adapter@_W@__crt_stdio_output@@@2@@__crt_stdio_output@@AEAA_N_N@Z 000000014002b770 f i libucrt:output.obj
 0001:0002aa30       ??$type_case_integer@$09@?$output_processor@_WV?$stream_output_adapter@_W@__crt_stdio_output@@V?$standard_base@_WV?$stream_output_adapter@_W@__crt_stdio_output@@@2@@__crt_stdio_output@@AEAA_N_N@Z 000000014002ba30 f i libucrt:output.obj
 0001:0002acbc       ??$type_case_integer@$09@?$output_processor@_WV?$string_output_adapter@_W@__crt_stdio_output@@V?$format_validation_base@_WV?$string_output_adapter@_W@__crt_stdio_output@@@2@@__crt_stdio_output@@AEAA_N_N@Z 000000014002bcbc f i libucrt:output.obj
 0001:0002af48       ??$type_case_integer@$09@?$output_processor@_WV?$string_output_adapter@_W@__crt_stdio_output@@V?$positional_parameter_base@_WV?$string_output_adapter@_W@__crt_stdio_output@@@2@@__crt_stdio_output@@AEAA_N_N@Z 000000014002bf48 f i libucrt:output.obj
 0001:0002b208       ??$type_case_integer@$09@?$output_processor@_WV?$string_output_adapter@_W@__crt_stdio_output@@V?$standard_base@_WV?$string_output_adapter@_W@__crt_stdio_output@@@2@@__crt_stdio_output@@AEAA_N_N@Z 000000014002c208 f i libucrt:output.obj
 0001:0002b494       ??$type_case_integer@$0BA@@?$output_processor@DV?$stream_output_adapter@D@__crt_stdio_output@@V?$format_validation_base@DV?$stream_output_adapter@D@__crt_stdio_output@@@2@@__crt_stdio_output@@AEAA_N_N@Z 000000014002c494 f i libucrt:output.obj
 0001:0002b718       ??$type_case_integer@$0BA@@?$output_processor@DV?$stream_output_adapter@D@__crt_stdio_output@@V?$positional_parameter_base@DV?$stream_output_adapter@D@__crt_stdio_output@@@2@@__crt_stdio_output@@AEAA_N_N@Z 000000014002c718 f i libucrt:output.obj
 0001:0002b9d0       ??$type_case_integer@$0BA@@?$output_processor@DV?$stream_output_adapter@D@__crt_stdio_output@@V?$standard_base@DV?$stream_output_adapter@D@__crt_stdio_output@@@2@@__crt_stdio_output@@AEAA_N_N@Z 000000014002c9d0 f i libucrt:output.obj
 0001:0002bc54       ??$type_case_integer@$0BA@@?$output_processor@DV?$string_output_adapter@D@__crt_stdio_output@@V?$format_validation_base@DV?$string_output_adapter@D@__crt_stdio_output@@@2@@__crt_stdio_output@@AEAA_N_N@Z 000000014002cc54 f i libucrt:output.obj
 0001:0002bed8       ??$type_case_integer@$0BA@@?$output_processor@DV?$string_output_adapter@D@__crt_stdio_output@@V?$positional_parameter_base@DV?$string_output_adapter@D@__crt_stdio_output@@@2@@__crt_stdio_output@@AEAA_N_N@Z 000000014002ced8 f i libucrt:output.obj
 0001:0002c190       ??$type_case_integer@$0BA@@?$output_processor@DV?$string_output_adapter@D@__crt_stdio_output@@V?$standard_base@DV?$string_output_adapter@D@__crt_stdio_output@@@2@@__crt_stdio_output@@AEAA_N_N@Z 000000014002d190 f i libucrt:output.obj
 0001:0002c414       ??$type_case_integer@$0BA@@?$output_processor@_WV?$stream_output_adapter@_W@__crt_stdio_output@@V?$format_validation_base@_WV?$stream_output_adapter@_W@__crt_stdio_output@@@2@@__crt_stdio_output@@AEAA_N_N@Z 000000014002d414 f i libucrt:output.obj
 0001:0002c6a0       ??$type_case_integer@$0BA@@?$output_processor@_WV?$stream_output_adapter@_W@__crt_stdio_output@@V?$positional_parameter_base@_WV?$stream_output_adapter@_W@__crt_stdio_output@@@2@@__crt_stdio_output@@AEAA_N_N@Z 000000014002d6a0 f i libucrt:output.obj
 0001:0002c960       ??$type_case_integer@$0BA@@?$output_processor@_WV?$stream_output_adapter@_W@__crt_stdio_output@@V?$standard_base@_WV?$stream_output_adapter@_W@__crt_stdio_output@@@2@@__crt_stdio_output@@AEAA_N_N@Z 000000014002d960 f i libucrt:output.obj
 0001:0002cbec       ??$type_case_integer@$0BA@@?$output_processor@_WV?$string_output_adapter@_W@__crt_stdio_output@@V?$format_validation_base@_WV?$string_output_adapter@_W@__crt_stdio_output@@@2@@__crt_stdio_output@@AEAA_N_N@Z 000000014002dbec f i libucrt:output.obj
 0001:0002ce78       ??$type_case_integer@$0BA@@?$output_processor@_WV?$string_output_adapter@_W@__crt_stdio_output@@V?$positional_parameter_base@_WV?$string_output_adapter@_W@__crt_stdio_output@@@2@@__crt_stdio_output@@AEAA_N_N@Z 000000014002de78 f i libucrt:output.obj
 0001:0002d138       ??$type_case_integer@$0BA@@?$output_processor@_WV?$string_output_adapter@_W@__crt_stdio_output@@V?$standard_base@_WV?$string_output_adapter@_W@__crt_stdio_output@@@2@@__crt_stdio_output@@AEAA_N_N@Z 000000014002e138 f i libucrt:output.obj
 0001:0002d3c4       ??$type_case_integer_parse_into_buffer@I$07@?$output_processor@DV?$stream_output_adapter@D@__crt_stdio_output@@V?$format_validation_base@DV?$stream_output_adapter@D@__crt_stdio_output@@@2@@__crt_stdio_output@@AEAAXI_N@Z 000000014002e3c4 f i libucrt:output.obj
 0001:0002d44c       ??$type_case_integer_parse_into_buffer@I$07@?$output_processor@DV?$stream_output_adapter@D@__crt_stdio_output@@V?$positional_parameter_base@DV?$stream_output_adapter@D@__crt_stdio_output@@@2@@__crt_stdio_output@@AEAAXI_N@Z 000000014002e44c f i libucrt:output.obj
 0001:0002d4d4       ??$type_case_integer_parse_into_buffer@I$07@?$output_processor@DV?$stream_output_adapter@D@__crt_stdio_output@@V?$standard_base@DV?$stream_output_adapter@D@__crt_stdio_output@@@2@@__crt_stdio_output@@AEAAXI_N@Z 000000014002e4d4 f i libucrt:output.obj
 0001:0002d55c       ??$type_case_integer_parse_into_buffer@I$07@?$output_processor@DV?$string_output_adapter@D@__crt_stdio_output@@V?$format_validation_base@DV?$string_output_adapter@D@__crt_stdio_output@@@2@@__crt_stdio_output@@AEAAXI_N@Z 000000014002e55c f i libucrt:output.obj
 0001:0002d5e4       ??$type_case_integer_parse_into_buffer@I$07@?$output_processor@DV?$string_output_adapter@D@__crt_stdio_output@@V?$positional_parameter_base@DV?$string_output_adapter@D@__crt_stdio_output@@@2@@__crt_stdio_output@@AEAAXI_N@Z 000000014002e5e4 f i libucrt:output.obj
 0001:0002d66c       ??$type_case_integer_parse_into_buffer@I$07@?$output_processor@DV?$string_output_adapter@D@__crt_stdio_output@@V?$standard_base@DV?$string_output_adapter@D@__crt_stdio_output@@@2@@__crt_stdio_output@@AEAAXI_N@Z 000000014002e66c f i libucrt:output.obj
 0001:0002d6f4       ??$type_case_integer_parse_into_buffer@I$07@?$output_processor@_WV?$stream_output_adapter@_W@__crt_stdio_output@@V?$format_validation_base@_WV?$stream_output_adapter@_W@__crt_stdio_output@@@2@@__crt_stdio_output@@AEAAXI_N@Z 000000014002e6f4 f i libucrt:output.obj
 0001:0002d79c       ??$type_case_integer_parse_into_buffer@I$07@?$output_processor@_WV?$stream_output_adapter@_W@__crt_stdio_output@@V?$positional_parameter_base@_WV?$stream_output_adapter@_W@__crt_stdio_output@@@2@@__crt_stdio_output@@AEAAXI_N@Z 000000014002e79c f i libucrt:output.obj
 0001:0002d844       ??$type_case_integer_parse_into_buffer@I$07@?$output_processor@_WV?$stream_output_adapter@_W@__crt_stdio_output@@V?$standard_base@_WV?$stream_output_adapter@_W@__crt_stdio_output@@@2@@__crt_stdio_output@@AEAAXI_N@Z 000000014002e844 f i libucrt:output.obj
 0001:0002d8ec       ??$type_case_integer_parse_into_buffer@I$07@?$output_processor@_WV?$string_output_adapter@_W@__crt_stdio_output@@V?$format_validation_base@_WV?$string_output_adapter@_W@__crt_stdio_output@@@2@@__crt_stdio_output@@AEAAXI_N@Z 000000014002e8ec f i libucrt:output.obj
 0001:0002d994       ??$type_case_integer_parse_into_buffer@I$07@?$output_processor@_WV?$string_output_adapter@_W@__crt_stdio_output@@V?$positional_parameter_base@_WV?$string_output_adapter@_W@__crt_stdio_output@@@2@@__crt_stdio_output@@AEAAXI_N@Z 000000014002e994 f i libucrt:output.obj
 0001:0002da3c       ??$type_case_integer_parse_into_buffer@I$07@?$output_processor@_WV?$string_output_adapter@_W@__crt_stdio_output@@V?$standard_base@_WV?$string_output_adapter@_W@__crt_stdio_output@@@2@@__crt_stdio_output@@AEAAXI_N@Z 000000014002ea3c f i libucrt:output.obj
 0001:0002dae4       ??$type_case_integer_parse_into_buffer@I$09@?$output_processor@DV?$stream_output_adapter@D@__crt_stdio_output@@V?$format_validation_base@DV?$stream_output_adapter@D@__crt_stdio_output@@@2@@__crt_stdio_output@@AEAAXI_N@Z 000000014002eae4 f i libucrt:output.obj
 0001:0002dbb8       ??$type_case_integer_parse_into_buffer@I$09@?$output_processor@DV?$stream_output_adapter@D@__crt_stdio_output@@V?$positional_parameter_base@DV?$stream_output_adapter@D@__crt_stdio_output@@@2@@__crt_stdio_output@@AEAAXI_N@Z 000000014002ebb8 f i libucrt:output.obj
 0001:0002dc8c       ??$type_case_integer_parse_into_buffer@I$09@?$output_processor@DV?$stream_output_adapter@D@__crt_stdio_output@@V?$standard_base@DV?$stream_output_adapter@D@__crt_stdio_output@@@2@@__crt_stdio_output@@AEAAXI_N@Z 000000014002ec8c f i libucrt:output.obj
 0001:0002dd60       ??$type_case_integer_parse_into_buffer@I$09@?$output_processor@DV?$string_output_adapter@D@__crt_stdio_output@@V?$format_validation_base@DV?$string_output_adapter@D@__crt_stdio_output@@@2@@__crt_stdio_output@@AEAAXI_N@Z 000000014002ed60 f i libucrt:output.obj
 0001:0002de34       ??$type_case_integer_parse_into_buffer@I$09@?$output_processor@DV?$string_output_adapter@D@__crt_stdio_output@@V?$positional_parameter_base@DV?$string_output_adapter@D@__crt_stdio_output@@@2@@__crt_stdio_output@@AEAAXI_N@Z 000000014002ee34 f i libucrt:output.obj
 0001:0002df08       ??$type_case_integer_parse_into_buffer@I$09@?$output_processor@DV?$string_output_adapter@D@__crt_stdio_output@@V?$standard_base@DV?$string_output_adapter@D@__crt_stdio_output@@@2@@__crt_stdio_output@@AEAAXI_N@Z 000000014002ef08 f i libucrt:output.obj
 0001:0002dfdc       ??$type_case_integer_parse_into_buffer@I$09@?$output_processor@_WV?$stream_output_adapter@_W@__crt_stdio_output@@V?$format_validation_base@_WV?$stream_output_adapter@_W@__crt_stdio_output@@@2@@__crt_stdio_output@@AEAAXI_N@Z 000000014002efdc f i libucrt:output.obj
 0001:0002e0c8       ??$type_case_integer_parse_into_buffer@I$09@?$output_processor@_WV?$stream_output_adapter@_W@__crt_stdio_output@@V?$positional_parameter_base@_WV?$stream_output_adapter@_W@__crt_stdio_output@@@2@@__crt_stdio_output@@AEAAXI_N@Z 000000014002f0c8 f i libucrt:output.obj
 0001:0002e1b4       ??$type_case_integer_parse_into_buffer@I$09@?$output_processor@_WV?$stream_output_adapter@_W@__crt_stdio_output@@V?$standard_base@_WV?$stream_output_adapter@_W@__crt_stdio_output@@@2@@__crt_stdio_output@@AEAAXI_N@Z 000000014002f1b4 f i libucrt:output.obj
 0001:0002e2a0       ??$type_case_integer_parse_into_buffer@I$09@?$output_processor@_WV?$string_output_adapter@_W@__crt_stdio_output@@V?$format_validation_base@_WV?$string_output_adapter@_W@__crt_stdio_output@@@2@@__crt_stdio_output@@AEAAXI_N@Z 000000014002f2a0 f i libucrt:output.obj
 0001:0002e38c       ??$type_case_integer_parse_into_buffer@I$09@?$output_processor@_WV?$string_output_adapter@_W@__crt_stdio_output@@V?$positional_parameter_base@_WV?$string_output_adapter@_W@__crt_stdio_output@@@2@@__crt_stdio_output@@AEAAXI_N@Z 000000014002f38c f i libucrt:output.obj
 0001:0002e478       ??$type_case_integer_parse_into_buffer@I$09@?$output_processor@_WV?$string_output_adapter@_W@__crt_stdio_output@@V?$standard_base@_WV?$string_output_adapter@_W@__crt_stdio_output@@@2@@__crt_stdio_output@@AEAAXI_N@Z 000000014002f478 f i libucrt:output.obj
 0001:0002e564       ??$type_case_integer_parse_into_buffer@I$0BA@@?$output_processor@DV?$stream_output_adapter@D@__crt_stdio_output@@V?$format_validation_base@DV?$stream_output_adapter@D@__crt_stdio_output@@@2@@__crt_stdio_output@@AEAAXI_N@Z 000000014002f564 f i libucrt:output.obj
 0001:0002e60c       ??$type_case_integer_parse_into_buffer@I$0BA@@?$output_processor@DV?$stream_output_adapter@D@__crt_stdio_output@@V?$positional_parameter_base@DV?$stream_output_adapter@D@__crt_stdio_output@@@2@@__crt_stdio_output@@AEAAXI_N@Z 000000014002f60c f i libucrt:output.obj
 0001:0002e6b4       ??$type_case_integer_parse_into_buffer@I$0BA@@?$output_processor@DV?$stream_output_adapter@D@__crt_stdio_output@@V?$standard_base@DV?$stream_output_adapter@D@__crt_stdio_output@@@2@@__crt_stdio_output@@AEAAXI_N@Z 000000014002f6b4 f i libucrt:output.obj
 0001:0002e75c       ??$type_case_integer_parse_into_buffer@I$0BA@@?$output_processor@DV?$string_output_adapter@D@__crt_stdio_output@@V?$format_validation_base@DV?$string_output_adapter@D@__crt_stdio_output@@@2@@__crt_stdio_output@@AEAAXI_N@Z 000000014002f75c f i libucrt:output.obj
 0001:0002e804       ??$type_case_integer_parse_into_buffer@I$0BA@@?$output_processor@DV?$string_output_adapter@D@__crt_stdio_output@@V?$positional_parameter_base@DV?$string_output_adapter@D@__crt_stdio_output@@@2@@__crt_stdio_output@@AEAAXI_N@Z 000000014002f804 f i libucrt:output.obj
 0001:0002e8ac       ??$type_case_integer_parse_into_buffer@I$0BA@@?$output_processor@DV?$string_output_adapter@D@__crt_stdio_output@@V?$standard_base@DV?$string_output_adapter@D@__crt_stdio_output@@@2@@__crt_stdio_output@@AEAAXI_N@Z 000000014002f8ac f i libucrt:output.obj
 0001:0002e954       ??$type_case_integer_parse_into_buffer@I$0BA@@?$output_processor@_WV?$stream_output_adapter@_W@__crt_stdio_output@@V?$format_validation_base@_WV?$stream_output_adapter@_W@__crt_stdio_output@@@2@@__crt_stdio_output@@AEAAXI_N@Z 000000014002f954 f i libucrt:output.obj
 0001:0002ea1c       ??$type_case_integer_parse_into_buffer@I$0BA@@?$output_processor@_WV?$stream_output_adapter@_W@__crt_stdio_output@@V?$positional_parameter_base@_WV?$stream_output_adapter@_W@__crt_stdio_output@@@2@@__crt_stdio_output@@AEAAXI_N@Z 000000014002fa1c f i libucrt:output.obj
 0001:0002eae4       ??$type_case_integer_parse_into_buffer@I$0BA@@?$output_processor@_WV?$stream_output_adapter@_W@__crt_stdio_output@@V?$standard_base@_WV?$stream_output_adapter@_W@__crt_stdio_output@@@2@@__crt_stdio_output@@AEAAXI_N@Z 000000014002fae4 f i libucrt:output.obj
 0001:0002ebac       ??$type_case_integer_parse_into_buffer@I$0BA@@?$output_processor@_WV?$string_output_adapter@_W@__crt_stdio_output@@V?$format_validation_base@_WV?$string_output_adapter@_W@__crt_stdio_output@@@2@@__crt_stdio_output@@AEAAXI_N@Z 000000014002fbac f i libucrt:output.obj
 0001:0002ec74       ??$type_case_integer_parse_into_buffer@I$0BA@@?$output_processor@_WV?$string_output_adapter@_W@__crt_stdio_output@@V?$positional_parameter_base@_WV?$string_output_adapter@_W@__crt_stdio_output@@@2@@__crt_stdio_output@@AEAAXI_N@Z 000000014002fc74 f i libucrt:output.obj
 0001:0002ed3c       ??$type_case_integer_parse_into_buffer@I$0BA@@?$output_processor@_WV?$string_output_adapter@_W@__crt_stdio_output@@V?$standard_base@_WV?$string_output_adapter@_W@__crt_stdio_output@@@2@@__crt_stdio_output@@AEAAXI_N@Z 000000014002fd3c f i libucrt:output.obj
 0001:0002ee04       ??$type_case_integer_parse_into_buffer@_K$07@?$output_processor@DV?$stream_output_adapter@D@__crt_stdio_output@@V?$format_validation_base@DV?$stream_output_adapter@D@__crt_stdio_output@@@2@@__crt_stdio_output@@AEAAX_K_N@Z 000000014002fe04 f i libucrt:output.obj
 0001:0002ee8c       ??$type_case_integer_parse_into_buffer@_K$07@?$output_processor@DV?$stream_output_adapter@D@__crt_stdio_output@@V?$positional_parameter_base@DV?$stream_output_adapter@D@__crt_stdio_output@@@2@@__crt_stdio_output@@AEAAX_K_N@Z 000000014002fe8c f i libucrt:output.obj
 0001:0002ef14       ??$type_case_integer_parse_into_buffer@_K$07@?$output_processor@DV?$stream_output_adapter@D@__crt_stdio_output@@V?$standard_base@DV?$stream_output_adapter@D@__crt_stdio_output@@@2@@__crt_stdio_output@@AEAAX_K_N@Z 000000014002ff14 f i libucrt:output.obj
 0001:0002ef9c       ??$type_case_integer_parse_into_buffer@_K$07@?$output_processor@DV?$string_output_adapter@D@__crt_stdio_output@@V?$format_validation_base@DV?$string_output_adapter@D@__crt_stdio_output@@@2@@__crt_stdio_output@@AEAAX_K_N@Z 000000014002ff9c f i libucrt:output.obj
 0001:0002f024       ??$type_case_integer_parse_into_buffer@_K$07@?$output_processor@DV?$string_output_adapter@D@__crt_stdio_output@@V?$positional_parameter_base@DV?$string_output_adapter@D@__crt_stdio_output@@@2@@__crt_stdio_output@@AEAAX_K_N@Z 0000000140030024 f i libucrt:output.obj
 0001:0002f0ac       ??$type_case_integer_parse_into_buffer@_K$07@?$output_processor@DV?$string_output_adapter@D@__crt_stdio_output@@V?$standard_base@DV?$string_output_adapter@D@__crt_stdio_output@@@2@@__crt_stdio_output@@AEAAX_K_N@Z 00000001400300ac f i libucrt:output.obj
 0001:0002f134       ??$type_case_integer_parse_into_buffer@_K$07@?$output_processor@_WV?$stream_output_adapter@_W@__crt_stdio_output@@V?$format_validation_base@_WV?$stream_output_adapter@_W@__crt_stdio_output@@@2@@__crt_stdio_output@@AEAAX_K_N@Z 0000000140030134 f i libucrt:output.obj
 0001:0002f1dc       ??$type_case_integer_parse_into_buffer@_K$07@?$output_processor@_WV?$stream_output_adapter@_W@__crt_stdio_output@@V?$positional_parameter_base@_WV?$stream_output_adapter@_W@__crt_stdio_output@@@2@@__crt_stdio_output@@AEAAX_K_N@Z 00000001400301dc f i libucrt:output.obj
 0001:0002f284       ??$type_case_integer_parse_into_buffer@_K$07@?$output_processor@_WV?$stream_output_adapter@_W@__crt_stdio_output@@V?$standard_base@_WV?$stream_output_adapter@_W@__crt_stdio_output@@@2@@__crt_stdio_output@@AEAAX_K_N@Z 0000000140030284 f i libucrt:output.obj
 0001:0002f32c       ??$type_case_integer_parse_into_buffer@_K$07@?$output_processor@_WV?$string_output_adapter@_W@__crt_stdio_output@@V?$format_validation_base@_WV?$string_output_adapter@_W@__crt_stdio_output@@@2@@__crt_stdio_output@@AEAAX_K_N@Z 000000014003032c f i libucrt:output.obj
 0001:0002f3d4       ??$type_case_integer_parse_into_buffer@_K$07@?$output_processor@_WV?$string_output_adapter@_W@__crt_stdio_output@@V?$positional_parameter_base@_WV?$string_output_adapter@_W@__crt_stdio_output@@@2@@__crt_stdio_output@@AEAAX_K_N@Z 00000001400303d4 f i libucrt:output.obj
 0001:0002f47c       ??$type_case_integer_parse_into_buffer@_K$07@?$output_processor@_WV?$string_output_adapter@_W@__crt_stdio_output@@V?$standard_base@_WV?$string_output_adapter@_W@__crt_stdio_output@@@2@@__crt_stdio_output@@AEAAX_K_N@Z 000000014003047c f i libucrt:output.obj
 0001:0002f524       ??$type_case_integer_parse_into_buffer@_K$09@?$output_processor@DV?$stream_output_adapter@D@__crt_stdio_output@@V?$format_validation_base@DV?$stream_output_adapter@D@__crt_stdio_output@@@2@@__crt_stdio_output@@AEAAX_K_N@Z 0000000140030524 f i libucrt:output.obj
 0001:0002f600       ??$type_case_integer_parse_into_buffer@_K$09@?$output_processor@DV?$stream_output_adapter@D@__crt_stdio_output@@V?$positional_parameter_base@DV?$stream_output_adapter@D@__crt_stdio_output@@@2@@__crt_stdio_output@@AEAAX_K_N@Z 0000000140030600 f i libucrt:output.obj
 0001:0002f6dc       ??$type_case_integer_parse_into_buffer@_K$09@?$output_processor@DV?$stream_output_adapter@D@__crt_stdio_output@@V?$standard_base@DV?$stream_output_adapter@D@__crt_stdio_output@@@2@@__crt_stdio_output@@AEAAX_K_N@Z 00000001400306dc f i libucrt:output.obj
 0001:0002f7b8       ??$type_case_integer_parse_into_buffer@_K$09@?$output_processor@DV?$string_output_adapter@D@__crt_stdio_output@@V?$format_validation_base@DV?$string_output_adapter@D@__crt_stdio_output@@@2@@__crt_stdio_output@@AEAAX_K_N@Z 00000001400307b8 f i libucrt:output.obj
 0001:0002f894       ??$type_case_integer_parse_into_buffer@_K$09@?$output_processor@DV?$string_output_adapter@D@__crt_stdio_output@@V?$positional_parameter_base@DV?$string_output_adapter@D@__crt_stdio_output@@@2@@__crt_stdio_output@@AEAAX_K_N@Z 0000000140030894 f i libucrt:output.obj
 0001:0002f970       ??$type_case_integer_parse_into_buffer@_K$09@?$output_processor@DV?$string_output_adapter@D@__crt_stdio_output@@V?$standard_base@DV?$string_output_adapter@D@__crt_stdio_output@@@2@@__crt_stdio_output@@AEAAX_K_N@Z 0000000140030970 f i libucrt:output.obj
 0001:0002fa4c       ??$type_case_integer_parse_into_buffer@_K$09@?$output_processor@_WV?$stream_output_adapter@_W@__crt_stdio_output@@V?$format_validation_base@_WV?$stream_output_adapter@_W@__crt_stdio_output@@@2@@__crt_stdio_output@@AEAAX_K_N@Z 0000000140030a4c f i libucrt:output.obj
 0001:0002fb40       ??$type_case_integer_parse_into_buffer@_K$09@?$output_processor@_WV?$stream_output_adapter@_W@__crt_stdio_output@@V?$positional_parameter_base@_WV?$stream_output_adapter@_W@__crt_stdio_output@@@2@@__crt_stdio_output@@AEAAX_K_N@Z 0000000140030b40 f i libucrt:output.obj
 0001:0002fc34       ??$type_case_integer_parse_into_buffer@_K$09@?$output_processor@_WV?$stream_output_adapter@_W@__crt_stdio_output@@V?$standard_base@_WV?$stream_output_adapter@_W@__crt_stdio_output@@@2@@__crt_stdio_output@@AEAAX_K_N@Z 0000000140030c34 f i libucrt:output.obj
 0001:0002fd28       ??$type_case_integer_parse_into_buffer@_K$09@?$output_processor@_WV?$string_output_adapter@_W@__crt_stdio_output@@V?$format_validation_base@_WV?$string_output_adapter@_W@__crt_stdio_output@@@2@@__crt_stdio_output@@AEAAX_K_N@Z 0000000140030d28 f i libucrt:output.obj
 0001:0002fe1c       ??$type_case_integer_parse_into_buffer@_K$09@?$output_processor@_WV?$string_output_adapter@_W@__crt_stdio_output@@V?$positional_parameter_base@_WV?$string_output_adapter@_W@__crt_stdio_output@@@2@@__crt_stdio_output@@AEAAX_K_N@Z 0000000140030e1c f i libucrt:output.obj
 0001:0002ff10       ??$type_case_integer_parse_into_buffer@_K$09@?$output_processor@_WV?$string_output_adapter@_W@__crt_stdio_output@@V?$standard_base@_WV?$string_output_adapter@_W@__crt_stdio_output@@@2@@__crt_stdio_output@@AEAAX_K_N@Z 0000000140030f10 f i libucrt:output.obj
 0001:00030004       ??$type_case_integer_parse_into_buffer@_K$0BA@@?$output_processor@DV?$stream_output_adapter@D@__crt_stdio_output@@V?$format_validation_base@DV?$stream_output_adapter@D@__crt_stdio_output@@@2@@__crt_stdio_output@@AEAAX_K_N@Z 0000000140031004 f i libucrt:output.obj
 0001:000300ac       ??$type_case_integer_parse_into_buffer@_K$0BA@@?$output_processor@DV?$stream_output_adapter@D@__crt_stdio_output@@V?$positional_parameter_base@DV?$stream_output_adapter@D@__crt_stdio_output@@@2@@__crt_stdio_output@@AEAAX_K_N@Z 00000001400310ac f i libucrt:output.obj
 0001:00030154       ??$type_case_integer_parse_into_buffer@_K$0BA@@?$output_processor@DV?$stream_output_adapter@D@__crt_stdio_output@@V?$standard_base@DV?$stream_output_adapter@D@__crt_stdio_output@@@2@@__crt_stdio_output@@AEAAX_K_N@Z 0000000140031154 f i libucrt:output.obj
 0001:000301fc       ??$type_case_integer_parse_into_buffer@_K$0BA@@?$output_processor@DV?$string_output_adapter@D@__crt_stdio_output@@V?$format_validation_base@DV?$string_output_adapter@D@__crt_stdio_output@@@2@@__crt_stdio_output@@AEAAX_K_N@Z 00000001400311fc f i libucrt:output.obj
 0001:000302a4       ??$type_case_integer_parse_into_buffer@_K$0BA@@?$output_processor@DV?$string_output_adapter@D@__crt_stdio_output@@V?$positional_parameter_base@DV?$string_output_adapter@D@__crt_stdio_output@@@2@@__crt_stdio_output@@AEAAX_K_N@Z 00000001400312a4 f i libucrt:output.obj
 0001:0003034c       ??$type_case_integer_parse_into_buffer@_K$0BA@@?$output_processor@DV?$string_output_adapter@D@__crt_stdio_output@@V?$standard_base@DV?$string_output_adapter@D@__crt_stdio_output@@@2@@__crt_stdio_output@@AEAAX_K_N@Z 000000014003134c f i libucrt:output.obj
 0001:000303f4       ??$type_case_integer_parse_into_buffer@_K$0BA@@?$output_processor@_WV?$stream_output_adapter@_W@__crt_stdio_output@@V?$format_validation_base@_WV?$stream_output_adapter@_W@__crt_stdio_output@@@2@@__crt_stdio_output@@AEAAX_K_N@Z 00000001400313f4 f i libucrt:output.obj
 0001:000304bc       ??$type_case_integer_parse_into_buffer@_K$0BA@@?$output_processor@_WV?$stream_output_adapter@_W@__crt_stdio_output@@V?$positional_parameter_base@_WV?$stream_output_adapter@_W@__crt_stdio_output@@@2@@__crt_stdio_output@@AEAAX_K_N@Z 00000001400314bc f i libucrt:output.obj
 0001:00030584       ??$type_case_integer_parse_into_buffer@_K$0BA@@?$output_processor@_WV?$stream_output_adapter@_W@__crt_stdio_output@@V?$standard_base@_WV?$stream_output_adapter@_W@__crt_stdio_output@@@2@@__crt_stdio_output@@AEAAX_K_N@Z 0000000140031584 f i libucrt:output.obj
 0001:0003064c       ??$type_case_integer_parse_into_buffer@_K$0BA@@?$output_processor@_WV?$string_output_adapter@_W@__crt_stdio_output@@V?$format_validation_base@_WV?$string_output_adapter@_W@__crt_stdio_output@@@2@@__crt_stdio_output@@AEAAX_K_N@Z 000000014003164c f i libucrt:output.obj
 0001:00030714       ??$type_case_integer_parse_into_buffer@_K$0BA@@?$output_processor@_WV?$string_output_adapter@_W@__crt_stdio_output@@V?$positional_parameter_base@_WV?$string_output_adapter@_W@__crt_stdio_output@@@2@@__crt_stdio_output@@AEAAX_K_N@Z 0000000140031714 f i libucrt:output.obj
 0001:000307dc       ??$type_case_integer_parse_into_buffer@_K$0BA@@?$output_processor@_WV?$string_output_adapter@_W@__crt_stdio_output@@V?$standard_base@_WV?$string_output_adapter@_W@__crt_stdio_output@@@2@@__crt_stdio_output@@AEAAX_K_N@Z 00000001400317dc f i libucrt:output.obj
 0001:000308a4       ??$write_multiple_characters@V?$stream_output_adapter@D@__crt_stdio_output@@D@__crt_stdio_output@@YAXAEBV?$stream_output_adapter@D@0@DHQEAHAEAV__crt_cached_ptd_host@@@Z 00000001400318a4 f i libucrt:output.obj
 0001:0003095c       ??$write_multiple_characters@V?$stream_output_adapter@_W@__crt_stdio_output@@D@__crt_stdio_output@@YAXAEBV?$stream_output_adapter@_W@0@DHQEAHAEAV__crt_cached_ptd_host@@@Z 000000014003195c f i libucrt:output.obj
 0001:00030a18       ??$write_multiple_characters@V?$string_output_adapter@D@__crt_stdio_output@@D@__crt_stdio_output@@YAXAEBV?$string_output_adapter@D@0@DHQEAHAEAV__crt_cached_ptd_host@@@Z 0000000140031a18 f i libucrt:output.obj
 0001:00030aac       ??$write_multiple_characters@V?$string_output_adapter@_W@__crt_stdio_output@@D@__crt_stdio_output@@YAXAEBV?$string_output_adapter@_W@0@DHQEAHAEAV__crt_cached_ptd_host@@@Z 0000000140031aac f i libucrt:output.obj
 0001:00030cd8       ??0?$c_string_character_source@D@__crt_strtox@@QEAA@QEBDQEAPEBD@Z 0000000140031cd8 f i libucrt:output.obj
 0001:00030cf0       ??0?$c_string_character_source@_W@__crt_strtox@@QEAA@QEB_WQEAPEB_W@Z 0000000140031cf0 f i libucrt:output.obj
 0001:00030d08       ??0?$cached@H@__crt_cached_ptd_host@@QEAA@XZ 0000000140031d08 f i libucrt:output.obj
 0001:00030d14       ??0?$cached@K@__crt_cached_ptd_host@@QEAA@XZ 0000000140031d14 f i libucrt:output.obj
 0001:00030d20       ??0?$common_data@D@__crt_stdio_output@@IEAA@AEAV__crt_cached_ptd_host@@@Z 0000000140031d20 f i libucrt:output.obj
 0001:00030d68       ??0?$common_data@_W@__crt_stdio_output@@IEAA@AEAV__crt_cached_ptd_host@@@Z 0000000140031d68 f i libucrt:output.obj
 0001:00030db4       ??0?$output_adapter_data@DV?$stream_output_adapter@D@__crt_stdio_output@@@__crt_stdio_output@@IEAA@AEBV?$stream_output_adapter@D@1@_KQEBDAEAV__crt_cached_ptd_host@@QEAD@Z 0000000140031db4 f i libucrt:output.obj
 0001:00030e2c       ??0?$output_adapter_data@DV?$string_output_adapter@D@__crt_stdio_output@@@__crt_stdio_output@@IEAA@AEBV?$string_output_adapter@D@1@_KQEBDAEAV__crt_cached_ptd_host@@QEAD@Z 0000000140031e2c f i libucrt:output.obj
 0001:00030ea4       ??0?$output_adapter_data@_WV?$stream_output_adapter@_W@__crt_stdio_output@@@__crt_stdio_output@@IEAA@AEBV?$stream_output_adapter@_W@1@_KQEB_WAEAV__crt_cached_ptd_host@@QEAD@Z 0000000140031ea4 f i libucrt:output.obj
 0001:00030f24       ??0?$output_adapter_data@_WV?$string_output_adapter@_W@__crt_stdio_output@@@__crt_stdio_output@@IEAA@AEBV?$string_output_adapter@_W@1@_KQEB_WAEAV__crt_cached_ptd_host@@QEAD@Z 0000000140031f24 f i libucrt:output.obj
 0001:00030fa4       ??0?$output_processor@DV?$stream_output_adapter@D@__crt_stdio_output@@V?$format_validation_base@DV?$stream_output_adapter@D@__crt_stdio_output@@@2@@__crt_stdio_output@@QEAA@AEBV?$stream_output_adapter@D@1@_KQEBDAEAV__crt_cached_ptd_host@@QEAD@Z 0000000140031fa4 f i libucrt:output.obj
 0001:00031024       ??0?$output_processor@DV?$stream_output_adapter@D@__crt_stdio_output@@V?$positional_parameter_base@DV?$stream_output_adapter@D@__crt_stdio_output@@@2@@__crt_stdio_output@@QEAA@AEBV?$stream_output_adapter@D@1@_KQEBDAEAV__crt_cached_ptd_host@@QEAD@Z 0000000140032024 f i libucrt:output.obj
 0001:000310cc       ??0?$output_processor@DV?$stream_output_adapter@D@__crt_stdio_output@@V?$standard_base@DV?$stream_output_adapter@D@__crt_stdio_output@@@2@@__crt_stdio_output@@QEAA@AEBV?$stream_output_adapter@D@1@_KQEBDAEAV__crt_cached_ptd_host@@QEAD@Z 00000001400320cc f i libucrt:output.obj
 0001:0003114c       ??0?$output_processor@DV?$string_output_adapter@D@__crt_stdio_output@@V?$format_validation_base@DV?$string_output_adapter@D@__crt_stdio_output@@@2@@__crt_stdio_output@@QEAA@AEBV?$string_output_adapter@D@1@_KQEBDAEAV__crt_cached_ptd_host@@QEAD@Z 000000014003214c f i libucrt:output.obj
 0001:000311cc       ??0?$output_processor@DV?$string_output_adapter@D@__crt_stdio_output@@V?$positional_parameter_base@DV?$string_output_adapter@D@__crt_stdio_output@@@2@@__crt_stdio_output@@QEAA@AEBV?$string_output_adapter@D@1@_KQEBDAEAV__crt_cached_ptd_host@@QEAD@Z 00000001400321cc f i libucrt:output.obj
 0001:00031274       ??0?$output_processor@DV?$string_output_adapter@D@__crt_stdio_output@@V?$standard_base@DV?$string_output_adapter@D@__crt_stdio_output@@@2@@__crt_stdio_output@@QEAA@AEBV?$string_output_adapter@D@1@_KQEBDAEAV__crt_cached_ptd_host@@QEAD@Z 0000000140032274 f i libucrt:output.obj
 0001:000312f4       ??0?$output_processor@_WV?$stream_output_adapter@_W@__crt_stdio_output@@V?$format_validation_base@_WV?$stream_output_adapter@_W@__crt_stdio_output@@@2@@__crt_stdio_output@@QEAA@AEBV?$stream_output_adapter@_W@1@_KQEB_WAEAV__crt_cached_ptd_host@@QEAD@Z 00000001400322f4 f i libucrt:output.obj
 0001:0003137c       ??0?$output_processor@_WV?$stream_output_adapter@_W@__crt_stdio_output@@V?$positional_parameter_base@_WV?$stream_output_adapter@_W@__crt_stdio_output@@@2@@__crt_stdio_output@@QEAA@AEBV?$stream_output_adapter@_W@1@_KQEB_WAEAV__crt_cached_ptd_host@@QEAD@Z 000000014003237c f i libucrt:output.obj
 0001:00031428       ??0?$output_processor@_WV?$stream_output_adapter@_W@__crt_stdio_output@@V?$standard_base@_WV?$stream_output_adapter@_W@__crt_stdio_output@@@2@@__crt_stdio_output@@QEAA@AEBV?$stream_output_adapter@_W@1@_KQEB_WAEAV__crt_cached_ptd_host@@QEAD@Z 0000000140032428 f i libucrt:output.obj
 0001:000314b0       ??0?$output_processor@_WV?$string_output_adapter@_W@__crt_stdio_output@@V?$format_validation_base@_WV?$string_output_adapter@_W@__crt_stdio_output@@@2@@__crt_stdio_output@@QEAA@AEBV?$string_output_adapter@_W@1@_KQEB_WAEAV__crt_cached_ptd_host@@QEAD@Z 00000001400324b0 f i libucrt:output.obj
 0001:00031538       ??0?$output_processor@_WV?$string_output_adapter@_W@__crt_stdio_output@@V?$positional_parameter_base@_WV?$string_output_adapter@_W@__crt_stdio_output@@@2@@__crt_stdio_output@@QEAA@AEBV?$string_output_adapter@_W@1@_KQEB_WAEAV__crt_cached_ptd_host@@QEAD@Z 0000000140032538 f i libucrt:output.obj
 0001:000315e4       ??0?$output_processor@_WV?$string_output_adapter@_W@__crt_stdio_output@@V?$standard_base@_WV?$string_output_adapter@_W@__crt_stdio_output@@@2@@__crt_stdio_output@@QEAA@AEBV?$string_output_adapter@_W@1@_KQEB_WAEAV__crt_cached_ptd_host@@QEAD@Z 00000001400325e4 f i libucrt:output.obj
 0001:0003166c       ??0?$stream_output_adapter@D@__crt_stdio_output@@QEAA@QEAU_iobuf@@@Z 000000014003266c f i libucrt:output.obj
 0001:00031674       ??0?$stream_output_adapter@_W@__crt_stdio_output@@QEAA@QEAU_iobuf@@@Z 0000000140032674 f i libucrt:output.obj
 0001:0003167c       ??0?$string_output_adapter@D@__crt_stdio_output@@QEAA@QEAU?$string_output_adapter_context@D@1@@Z 000000014003267c f i libucrt:output.obj
 0001:00031684       ??0?$string_output_adapter@_W@__crt_stdio_output@@QEAA@QEAU?$string_output_adapter_context@_W@1@@Z 0000000140032684 f i libucrt:output.obj
 0001:0003168c       ??0__acrt_stdio_temporary_buffering_guard@@QEAA@QEAU_iobuf@@AEAV__crt_cached_ptd_host@@@Z 000000014003268c f i libucrt:output.obj
 0001:000316c0       ??0__crt_cached_ptd_host@@QEAA@QEAU__crt_locale_pointers@@@Z 00000001400326c0 f i libucrt:output.obj
 0001:00031718       ??0__crt_scoped_get_last_error_reset@@QEAA@XZ 0000000140032718 f i libucrt:output.obj
 0001:00031738       ??0__crt_stdio_stream@@QEAA@QEAU_iobuf@@@Z 0000000140032738 f i libucrt:output.obj
 0001:00031740       ??0formatting_buffer@__crt_stdio_output@@QEAA@XZ 0000000140032740 f i libucrt:output.obj
 0001:0003175c       ??0guard@?$cached@H@__crt_cached_ptd_host@@QEAA@AEAU12@@Z 000000014003275c f i libucrt:output.obj
 0001:00031774       ??1?$c_string_character_source@D@__crt_strtox@@QEAA@XZ 0000000140032774 f i libucrt:output.obj
 0001:00031788       ??1?$c_string_character_source@_W@__crt_strtox@@QEAA@XZ 0000000140032788 f i libucrt:output.obj
 0001:0003179c       ??1?$common_data@D@__crt_stdio_output@@QEAA@XZ 000000014003279c f i libucrt:output.obj
 0001:000317c8       ??1?$common_data@_W@__crt_stdio_output@@QEAA@XZ 00000001400327c8 f i libucrt:output.obj
 0001:000317f4       ??1?$format_validation_base@DV?$stream_output_adapter@D@__crt_stdio_output@@@__crt_stdio_output@@QEAA@XZ 00000001400327f4 f i libucrt:output.obj
 0001:00031820       ??1?$format_validation_base@DV?$string_output_adapter@D@__crt_stdio_output@@@__crt_stdio_output@@QEAA@XZ 0000000140032820 f i libucrt:output.obj
 0001:0003184c       ??1?$format_validation_base@_WV?$stream_output_adapter@_W@__crt_stdio_output@@@__crt_stdio_output@@QEAA@XZ 000000014003284c f i libucrt:output.obj
 0001:00031878       ??1?$format_validation_base@_WV?$string_output_adapter@_W@__crt_stdio_output@@@__crt_stdio_output@@QEAA@XZ 0000000140032878 f i libucrt:output.obj
 0001:000318a4       ??1?$output_adapter_data@DV?$stream_output_adapter@D@__crt_stdio_output@@@__crt_stdio_output@@QEAA@XZ 00000001400328a4 f i libucrt:output.obj
 0001:000318d0       ??1?$output_adapter_data@DV?$string_output_adapter@D@__crt_stdio_output@@@__crt_stdio_output@@QEAA@XZ 00000001400328d0 f i libucrt:output.obj
 0001:000318fc       ??1?$output_adapter_data@_WV?$stream_output_adapter@_W@__crt_stdio_output@@@__crt_stdio_output@@QEAA@XZ 00000001400328fc f i libucrt:output.obj
 0001:00031928       ??1?$output_adapter_data@_WV?$string_output_adapter@_W@__crt_stdio_output@@@__crt_stdio_output@@QEAA@XZ 0000000140032928 f i libucrt:output.obj
 0001:00031954       ??1?$output_processor@DV?$stream_output_adapter@D@__crt_stdio_output@@V?$format_validation_base@DV?$stream_output_adapter@D@__crt_stdio_output@@@2@@__crt_stdio_output@@QEAA@XZ 0000000140032954 f i libucrt:output.obj
 0001:00031980       ??1?$output_processor@DV?$stream_output_adapter@D@__crt_stdio_output@@V?$positional_parameter_base@DV?$stream_output_adapter@D@__crt_stdio_output@@@2@@__crt_stdio_output@@QEAA@XZ 0000000140032980 f i libucrt:output.obj
 0001:000319ac       ??1?$output_processor@DV?$stream_output_adapter@D@__crt_stdio_output@@V?$standard_base@DV?$stream_output_adapter@D@__crt_stdio_output@@@2@@__crt_stdio_output@@QEAA@XZ 00000001400329ac f i libucrt:output.obj
 0001:000319d8       ??1?$output_processor@DV?$string_output_adapter@D@__crt_stdio_output@@V?$format_validation_base@DV?$string_output_adapter@D@__crt_stdio_output@@@2@@__crt_stdio_output@@QEAA@XZ 00000001400329d8 f i libucrt:output.obj
 0001:00031a04       ??1?$output_processor@DV?$string_output_adapter@D@__crt_stdio_output@@V?$positional_parameter_base@DV?$string_output_adapter@D@__crt_stdio_output@@@2@@__crt_stdio_output@@QEAA@XZ 0000000140032a04 f i libucrt:output.obj
 0001:00031a30       ??1?$output_processor@DV?$string_output_adapter@D@__crt_stdio_output@@V?$standard_base@DV?$string_output_adapter@D@__crt_stdio_output@@@2@@__crt_stdio_output@@QEAA@XZ 0000000140032a30 f i libucrt:output.obj
 0001:00031a5c       ??1?$output_processor@_WV?$stream_output_adapter@_W@__crt_stdio_output@@V?$format_validation_base@_WV?$stream_output_adapter@_W@__crt_stdio_output@@@2@@__crt_stdio_output@@QEAA@XZ 0000000140032a5c f i libucrt:output.obj
 0001:00031a88       ??1?$output_processor@_WV?$stream_output_adapter@_W@__crt_stdio_output@@V?$positional_parameter_base@_WV?$stream_output_adapter@_W@__crt_stdio_output@@@2@@__crt_stdio_output@@QEAA@XZ 0000000140032a88 f i libucrt:output.obj
 0001:00031ab4       ??1?$output_processor@_WV?$stream_output_adapter@_W@__crt_stdio_output@@V?$standard_base@_WV?$stream_output_adapter@_W@__crt_stdio_output@@@2@@__crt_stdio_output@@QEAA@XZ 0000000140032ab4 f i libucrt:output.obj
 0001:00031ae0       ??1?$output_processor@_WV?$string_output_adapter@_W@__crt_stdio_output@@V?$format_validation_base@_WV?$string_output_adapter@_W@__crt_stdio_output@@@2@@__crt_stdio_output@@QEAA@XZ 0000000140032ae0 f i libucrt:output.obj
 0001:00031b0c       ??1?$output_processor@_WV?$string_output_adapter@_W@__crt_stdio_output@@V?$positional_parameter_base@_WV?$string_output_adapter@_W@__crt_stdio_output@@@2@@__crt_stdio_output@@QEAA@XZ 0000000140032b0c f i libucrt:output.obj
 0001:00031b38       ??1?$output_processor@_WV?$string_output_adapter@_W@__crt_stdio_output@@V?$standard_base@_WV?$string_output_adapter@_W@__crt_stdio_output@@@2@@__crt_stdio_output@@QEAA@XZ 0000000140032b38 f i libucrt:output.obj
 0001:00031b64       ??1?$positional_parameter_base@DV?$stream_output_adapter@D@__crt_stdio_output@@@__crt_stdio_output@@QEAA@XZ 0000000140032b64 f i libucrt:output.obj
 0001:00031b90       ??1?$positional_parameter_base@DV?$string_output_adapter@D@__crt_stdio_output@@@__crt_stdio_output@@QEAA@XZ 0000000140032b90 f i libucrt:output.obj
 0001:00031bbc       ??1?$positional_parameter_base@_WV?$stream_output_adapter@_W@__crt_stdio_output@@@__crt_stdio_output@@QEAA@XZ 0000000140032bbc f i libucrt:output.obj
 0001:00031be8       ??1?$positional_parameter_base@_WV?$string_output_adapter@_W@__crt_stdio_output@@@__crt_stdio_output@@QEAA@XZ 0000000140032be8 f i libucrt:output.obj
 0001:00031c14       ??1?$standard_base@DV?$stream_output_adapter@D@__crt_stdio_output@@@__crt_stdio_output@@QEAA@XZ 0000000140032c14 f i libucrt:output.obj
 0001:00031c40       ??1?$standard_base@DV?$string_output_adapter@D@__crt_stdio_output@@@__crt_stdio_output@@QEAA@XZ 0000000140032c40 f i libucrt:output.obj
 0001:00031c6c       ??1?$standard_base@_WV?$stream_output_adapter@_W@__crt_stdio_output@@@__crt_stdio_output@@QEAA@XZ 0000000140032c6c f i libucrt:output.obj
 0001:00031c98       ??1?$standard_base@_WV?$string_output_adapter@_W@__crt_stdio_output@@@__crt_stdio_output@@QEAA@XZ 0000000140032c98 f i libucrt:output.obj
 0001:00031cc4       ??1__acrt_stdio_temporary_buffering_guard@@QEAA@XZ 0000000140032cc4 f i libucrt:output.obj
 0001:00031ce0       ??1__crt_cached_ptd_host@@QEAA@XZ 0000000140032ce0 f i libucrt:output.obj
 0001:00031d44       ??1__crt_scoped_get_last_error_reset@@QEAA@XZ 0000000140032d44 f i libucrt:output.obj
 0001:00031d50       ??1formatting_buffer@__crt_stdio_output@@QEAA@XZ 0000000140032d50 f i libucrt:output.obj
 0001:00031d7c       ??1guard@?$cached@H@__crt_cached_ptd_host@@QEAA@XZ 0000000140032d7c f i libucrt:output.obj
 0001:00031d94       ??4?$__crt_unique_heap_ptr@DU__crt_internal_free_policy@@@@QEAAAEAV0@$$QEAV0@@Z 0000000140032d94 f i libucrt:output.obj
 0001:00031dd8       ??A?$spectre_mitigated_lookup_table@Ustate_transition_pair@__crt_stdio_output@@$0IA@@__crt_stdio_output@@QEBAAEBUstate_transition_pair@1@_K@Z 0000000140032dd8 f i libucrt:output.obj
 0001:00031de4       ??C__crt_stdio_stream@@QEBAPEAU__crt_stdio_stream_data@@XZ 0000000140032de4 f i libucrt:output.obj
 0001:00032718       ?__crt_interlocked_read_32@@YAHPEDH@Z 0000000140033718 f i libucrt:output.obj
 0001:0003271c       ?adjust_hexit@?$output_processor@DV?$stream_output_adapter@D@__crt_stdio_output@@V?$format_validation_base@DV?$stream_output_adapter@D@__crt_stdio_output@@@2@@__crt_stdio_output@@CADH_N@Z 000000014003371c f i libucrt:output.obj
 0001:0003272c       ?adjust_hexit@?$output_processor@DV?$stream_output_adapter@D@__crt_stdio_output@@V?$positional_parameter_base@DV?$stream_output_adapter@D@__crt_stdio_output@@@2@@__crt_stdio_output@@CADH_N@Z 000000014003372c f i libucrt:output.obj
 0001:0003273c       ?adjust_hexit@?$output_processor@DV?$stream_output_adapter@D@__crt_stdio_output@@V?$standard_base@DV?$stream_output_adapter@D@__crt_stdio_output@@@2@@__crt_stdio_output@@CADH_N@Z 000000014003373c f i libucrt:output.obj
 0001:0003274c       ?adjust_hexit@?$output_processor@DV?$string_output_adapter@D@__crt_stdio_output@@V?$format_validation_base@DV?$string_output_adapter@D@__crt_stdio_output@@@2@@__crt_stdio_output@@CADH_N@Z 000000014003374c f i libucrt:output.obj
 0001:0003275c       ?adjust_hexit@?$output_processor@DV?$string_output_adapter@D@__crt_stdio_output@@V?$positional_parameter_base@DV?$string_output_adapter@D@__crt_stdio_output@@@2@@__crt_stdio_output@@CADH_N@Z 000000014003375c f i libucrt:output.obj
 0001:0003276c       ?adjust_hexit@?$output_processor@DV?$string_output_adapter@D@__crt_stdio_output@@V?$standard_base@DV?$string_output_adapter@D@__crt_stdio_output@@@2@@__crt_stdio_output@@CADH_N@Z 000000014003376c f i libucrt:output.obj
 0001:0003277c       ?adjust_hexit@?$output_processor@_WV?$stream_output_adapter@_W@__crt_stdio_output@@V?$format_validation_base@_WV?$stream_output_adapter@_W@__crt_stdio_output@@@2@@__crt_stdio_output@@CADH_N@Z 000000014003377c f i libucrt:output.obj
 0001:0003278c       ?adjust_hexit@?$output_processor@_WV?$stream_output_adapter@_W@__crt_stdio_output@@V?$positional_parameter_base@_WV?$stream_output_adapter@_W@__crt_stdio_output@@@2@@__crt_stdio_output@@CADH_N@Z 000000014003378c f i libucrt:output.obj
 0001:0003279c       ?adjust_hexit@?$output_processor@_WV?$stream_output_adapter@_W@__crt_stdio_output@@V?$standard_base@_WV?$stream_output_adapter@_W@__crt_stdio_output@@@2@@__crt_stdio_output@@CADH_N@Z 000000014003379c f i libucrt:output.obj
 0001:000327ac       ?adjust_hexit@?$output_processor@_WV?$string_output_adapter@_W@__crt_stdio_output@@V?$format_validation_base@_WV?$string_output_adapter@_W@__crt_stdio_output@@@2@@__crt_stdio_output@@CADH_N@Z 00000001400337ac f i libucrt:output.obj
 0001:000327bc       ?adjust_hexit@?$output_processor@_WV?$string_output_adapter@_W@__crt_stdio_output@@V?$positional_parameter_base@_WV?$string_output_adapter@_W@__crt_stdio_output@@@2@@__crt_stdio_output@@CADH_N@Z 00000001400337bc f i libucrt:output.obj
 0001:000327cc       ?adjust_hexit@?$output_processor@_WV?$string_output_adapter@_W@__crt_stdio_output@@V?$standard_base@_WV?$string_output_adapter@_W@__crt_stdio_output@@@2@@__crt_stdio_output@@CADH_N@Z 00000001400337cc f i libucrt:output.obj
 0001:000327dc       ?advance_to_next_pass@?$positional_parameter_base@DV?$stream_output_adapter@D@__crt_stdio_output@@@__crt_stdio_output@@IEAA_NXZ 00000001400337dc f i libucrt:output.obj
 0001:00032844       ?advance_to_next_pass@?$positional_parameter_base@DV?$string_output_adapter@D@__crt_stdio_output@@@__crt_stdio_output@@IEAA_NXZ 0000000140033844 f i libucrt:output.obj
 0001:000328ac       ?advance_to_next_pass@?$positional_parameter_base@_WV?$stream_output_adapter@_W@__crt_stdio_output@@@__crt_stdio_output@@IEAA_NXZ 00000001400338ac f i libucrt:output.obj
 0001:00032914       ?advance_to_next_pass@?$positional_parameter_base@_WV?$string_output_adapter@_W@__crt_stdio_output@@@__crt_stdio_output@@IEAA_NXZ 0000000140033914 f i libucrt:output.obj
 0001:0003297c       ?advance_to_next_pass@?$standard_base@DV?$stream_output_adapter@D@__crt_stdio_output@@@__crt_stdio_output@@IEAA_NXZ 000000014003397c f i libucrt:output.obj
 0001:00032994       ?advance_to_next_pass@?$standard_base@DV?$string_output_adapter@D@__crt_stdio_output@@@__crt_stdio_output@@IEAA_NXZ 0000000140033994 f i libucrt:output.obj
 0001:000329ac       ?advance_to_next_pass@?$standard_base@_WV?$stream_output_adapter@_W@__crt_stdio_output@@@__crt_stdio_output@@IEAA_NXZ 00000001400339ac f i libucrt:output.obj
 0001:000329c4       ?advance_to_next_pass@?$standard_base@_WV?$string_output_adapter@_W@__crt_stdio_output@@@__crt_stdio_output@@IEAA_NXZ 00000001400339c4 f i libucrt:output.obj
 0001:000329dc       ?check@?$cached@H@__crt_cached_ptd_host@@QEBA_NH@Z 00000001400339dc f i libucrt:output.obj
 0001:000329f0       ?check_synchronize_global_state_index@__crt_cached_ptd_host@@AEAA_KAEBV__crt_scoped_get_last_error_reset@@@Z 00000001400339f0 f i libucrt:output.obj
 0001:00032a10       ?check_synchronize_per_thread_data@__crt_cached_ptd_host@@AEAAPEAU__acrt_ptd@@XZ 0000000140033a10 f i libucrt:output.obj
 0001:00032a90       ?create_guard@?$cached@H@__crt_cached_ptd_host@@QEAA?AVguard@12@XZ 0000000140033a90 f i libucrt:output.obj
 0001:00032aa8       ?crop_zeroes@__crt_stdio_output@@YAXPEADQEAU__crt_locale_pointers@@@Z 0000000140033aa8 f i libucrt:output.obj
 0001:00032b2c       ?disable@guard@?$cached@H@__crt_cached_ptd_host@@QEAAXXZ 0000000140033b2c f i libucrt:output.obj
 0001:00032b34       ?enable@guard@?$cached@H@__crt_cached_ptd_host@@QEAAXXZ 0000000140033b34 f i libucrt:output.obj
 0001:00032b3c       ?find_next_state@?$output_processor@DV?$stream_output_adapter@D@__crt_stdio_output@@V?$format_validation_base@DV?$stream_output_adapter@D@__crt_stdio_output@@@2@@__crt_stdio_output@@AEBA?AW4state@2@DW432@@Z 0000000140033b3c f i libucrt:output.obj
 0001:00032b80       ?find_next_state@?$output_processor@DV?$stream_output_adapter@D@__crt_stdio_output@@V?$positional_parameter_base@DV?$stream_output_adapter@D@__crt_stdio_output@@@2@@__crt_stdio_output@@AEBA?AW4state@2@DW432@@Z 0000000140033b80 f i libucrt:output.obj
 0001:00032bc4       ?find_next_state@?$output_processor@DV?$stream_output_adapter@D@__crt_stdio_output@@V?$standard_base@DV?$stream_output_adapter@D@__crt_stdio_output@@@2@@__crt_stdio_output@@AEBA?AW4state@2@DW432@@Z 0000000140033bc4 f i libucrt:output.obj
 0001:00032c08       ?find_next_state@?$output_processor@DV?$string_output_adapter@D@__crt_stdio_output@@V?$format_validation_base@DV?$string_output_adapter@D@__crt_stdio_output@@@2@@__crt_stdio_output@@AEBA?AW4state@2@DW432@@Z 0000000140033c08 f i libucrt:output.obj
 0001:00032c4c       ?find_next_state@?$output_processor@DV?$string_output_adapter@D@__crt_stdio_output@@V?$positional_parameter_base@DV?$string_output_adapter@D@__crt_stdio_output@@@2@@__crt_stdio_output@@AEBA?AW4state@2@DW432@@Z 0000000140033c4c f i libucrt:output.obj
 0001:00032c90       ?find_next_state@?$output_processor@DV?$string_output_adapter@D@__crt_stdio_output@@V?$standard_base@DV?$string_output_adapter@D@__crt_stdio_output@@@2@@__crt_stdio_output@@AEBA?AW4state@2@DW432@@Z 0000000140033c90 f i libucrt:output.obj
 0001:00032cd4       ?find_next_state@?$output_processor@_WV?$stream_output_adapter@_W@__crt_stdio_output@@V?$format_validation_base@_WV?$stream_output_adapter@_W@__crt_stdio_output@@@2@@__crt_stdio_output@@AEBA?AW4state@2@_WW432@@Z 0000000140033cd4 f i libucrt:output.obj
 0001:00032d24       ?find_next_state@?$output_processor@_WV?$stream_output_adapter@_W@__crt_stdio_output@@V?$positional_parameter_base@_WV?$stream_output_adapter@_W@__crt_stdio_output@@@2@@__crt_stdio_output@@AEBA?AW4state@2@_WW432@@Z 0000000140033d24 f i libucrt:output.obj
 0001:00032d74       ?find_next_state@?$output_processor@_WV?$stream_output_adapter@_W@__crt_stdio_output@@V?$standard_base@_WV?$stream_output_adapter@_W@__crt_stdio_output@@@2@@__crt_stdio_output@@AEBA?AW4state@2@_WW432@@Z 0000000140033d74 f i libucrt:output.obj
 0001:00032dc0       ?find_next_state@?$output_processor@_WV?$string_output_adapter@_W@__crt_stdio_output@@V?$format_validation_base@_WV?$string_output_adapter@_W@__crt_stdio_output@@@2@@__crt_stdio_output@@AEBA?AW4state@2@_WW432@@Z 0000000140033dc0 f i libucrt:output.obj
 0001:00032e10       ?find_next_state@?$output_processor@_WV?$string_output_adapter@_W@__crt_stdio_output@@V?$positional_parameter_base@_WV?$string_output_adapter@_W@__crt_stdio_output@@@2@@__crt_stdio_output@@AEBA?AW4state@2@_WW432@@Z 0000000140033e10 f i libucrt:output.obj
 0001:00032e60       ?find_next_state@?$output_processor@_WV?$string_output_adapter@_W@__crt_stdio_output@@V?$standard_base@_WV?$string_output_adapter@_W@__crt_stdio_output@@@2@@__crt_stdio_output@@AEBA?AW4state@2@_WW432@@Z 0000000140033e60 f i libucrt:output.obj
 0001:00032eac       ?force_decimal_point@__crt_stdio_output@@YAXPEADQEAU__crt_locale_pointers@@@Z 0000000140033eac f i libucrt:output.obj
 0001:00032f30       ?force_synchronize_global_state_index@__crt_cached_ptd_host@@AEAA_KAEBV__crt_scoped_get_last_error_reset@@@Z 0000000140033f30 f i libucrt:output.obj
 0001:00032f50       ?force_synchronize_per_thread_data@__crt_cached_ptd_host@@AEAAPEAU__acrt_ptd@@XZ 0000000140033f50 f i libucrt:output.obj
 0001:00032fbc       ?get@?$c_string_character_source@D@__crt_strtox@@QEAADXZ 0000000140033fbc f i libucrt:output.obj
 0001:00032fcc       ?get@?$c_string_character_source@_W@__crt_strtox@@QEAA_WXZ 0000000140033fcc f i libucrt:output.obj
 0001:00032fe0       ?get_current_state_index@__crt_state_management@@YA_KAEBV__crt_scoped_get_last_error_reset@@@Z 0000000140033fe0 f i libucrt:output.obj
 0001:00032ff0       ?get_errno@__crt_cached_ptd_host@@QEAA@XZ 0000000140033ff0 f i libucrt:output.obj
 0001:00032ff8       ?get_flags@__crt_stdio_stream@@QEBAJXZ 0000000140033ff8 f i libucrt:output.obj
 0001:00033010       ?get_locale@__crt_cached_ptd_host@@QEAAPEAU__crt_locale_pointers@@XZ 0000000140034010 f i libucrt:output.obj
 0001:00033044       ?get_parameter_type@?$positional_parameter_base@DV?$stream_output_adapter@D@__crt_stdio_output@@@__crt_stdio_output@@CA?AW4parameter_type@12@F@Z 0000000140034044 f i libucrt:output.obj
 0001:0003304c       ?get_parameter_type@?$positional_parameter_base@DV?$stream_output_adapter@D@__crt_stdio_output@@@__crt_stdio_output@@CA?AW4parameter_type@12@G@Z 000000014003404c f i libucrt:output.obj
 0001:00033054       ?get_parameter_type@?$positional_parameter_base@DV?$stream_output_adapter@D@__crt_stdio_output@@@__crt_stdio_output@@CA?AW4parameter_type@12@H@Z 0000000140034054 f i libucrt:output.obj
 0001:0003305c       ?get_parameter_type@?$positional_parameter_base@DV?$stream_output_adapter@D@__crt_stdio_output@@@__crt_stdio_output@@CA?AW4parameter_type@12@I@Z 000000014003405c f i libucrt:output.obj
 0001:00033064       ?get_parameter_type@?$positional_parameter_base@DV?$stream_output_adapter@D@__crt_stdio_output@@@__crt_stdio_output@@CA?AW4parameter_type@12@U_CRT_DOUBLE@@@Z 0000000140034064 f i libucrt:output.obj
 0001:0003306c       ?get_parameter_type@?$positional_parameter_base@DV?$stream_output_adapter@D@__crt_stdio_output@@@__crt_stdio_output@@CA?AW4parameter_type@12@_J@Z 000000014003406c f i libucrt:output.obj
 0001:00033074       ?get_parameter_type@?$positional_parameter_base@DV?$stream_output_adapter@D@__crt_stdio_output@@@__crt_stdio_output@@CA?AW4parameter_type@12@_K@Z 0000000140034074 f i libucrt:output.obj
 0001:0003307c       ?get_parameter_type@?$positional_parameter_base@DV?$stream_output_adapter@D@__crt_stdio_output@@@__crt_stdio_output@@CA?AW4parameter_type@12@_W@Z 000000014003407c f i libucrt:output.obj
 0001:00033084       ?get_parameter_type@?$positional_parameter_base@DV?$string_output_adapter@D@__crt_stdio_output@@@__crt_stdio_output@@CA?AW4parameter_type@12@F@Z 0000000140034084 f i libucrt:output.obj
 0001:0003308c       ?get_parameter_type@?$positional_parameter_base@DV?$string_output_adapter@D@__crt_stdio_output@@@__crt_stdio_output@@CA?AW4parameter_type@12@G@Z 000000014003408c f i libucrt:output.obj
 0001:00033094       ?get_parameter_type@?$positional_parameter_base@DV?$string_output_adapter@D@__crt_stdio_output@@@__crt_stdio_output@@CA?AW4parameter_type@12@H@Z 0000000140034094 f i libucrt:output.obj
 0001:0003309c       ?get_parameter_type@?$positional_parameter_base@DV?$string_output_adapter@D@__crt_stdio_output@@@__crt_stdio_output@@CA?AW4parameter_type@12@I@Z 000000014003409c f i libucrt:output.obj
 0001:000330a4       ?get_parameter_type@?$positional_parameter_base@DV?$string_output_adapter@D@__crt_stdio_output@@@__crt_stdio_output@@CA?AW4parameter_type@12@U_CRT_DOUBLE@@@Z 00000001400340a4 f i libucrt:output.obj
 0001:000330ac       ?get_parameter_type@?$positional_parameter_base@DV?$string_output_adapter@D@__crt_stdio_output@@@__crt_stdio_output@@CA?AW4parameter_type@12@_J@Z 00000001400340ac f i libucrt:output.obj
 0001:000330b4       ?get_parameter_type@?$positional_parameter_base@DV?$string_output_adapter@D@__crt_stdio_output@@@__crt_stdio_output@@CA?AW4parameter_type@12@_K@Z 00000001400340b4 f i libucrt:output.obj
 0001:000330bc       ?get_parameter_type@?$positional_parameter_base@DV?$string_output_adapter@D@__crt_stdio_output@@@__crt_stdio_output@@CA?AW4parameter_type@12@_W@Z 00000001400340bc f i libucrt:output.obj
 0001:000330c4       ?get_parameter_type@?$positional_parameter_base@_WV?$stream_output_adapter@_W@__crt_stdio_output@@@__crt_stdio_output@@CA?AW4parameter_type@12@F@Z 00000001400340c4 f i libucrt:output.obj
 0001:000330cc       ?get_parameter_type@?$positional_parameter_base@_WV?$stream_output_adapter@_W@__crt_stdio_output@@@__crt_stdio_output@@CA?AW4parameter_type@12@G@Z 00000001400340cc f i libucrt:output.obj
 0001:000330d4       ?get_parameter_type@?$positional_parameter_base@_WV?$stream_output_adapter@_W@__crt_stdio_output@@@__crt_stdio_output@@CA?AW4parameter_type@12@H@Z 00000001400340d4 f i libucrt:output.obj
 0001:000330dc       ?get_parameter_type@?$positional_parameter_base@_WV?$stream_output_adapter@_W@__crt_stdio_output@@@__crt_stdio_output@@CA?AW4parameter_type@12@I@Z 00000001400340dc f i libucrt:output.obj
 0001:000330e4       ?get_parameter_type@?$positional_parameter_base@_WV?$stream_output_adapter@_W@__crt_stdio_output@@@__crt_stdio_output@@CA?AW4parameter_type@12@U_CRT_DOUBLE@@@Z 00000001400340e4 f i libucrt:output.obj
 0001:000330ec       ?get_parameter_type@?$positional_parameter_base@_WV?$stream_output_adapter@_W@__crt_stdio_output@@@__crt_stdio_output@@CA?AW4parameter_type@12@_J@Z 00000001400340ec f i libucrt:output.obj
 0001:000330f4       ?get_parameter_type@?$positional_parameter_base@_WV?$stream_output_adapter@_W@__crt_stdio_output@@@__crt_stdio_output@@CA?AW4parameter_type@12@_K@Z 00000001400340f4 f i libucrt:output.obj
 0001:000330fc       ?get_parameter_type@?$positional_parameter_base@_WV?$stream_output_adapter@_W@__crt_stdio_output@@@__crt_stdio_output@@CA?AW4parameter_type@12@_W@Z 00000001400340fc f i libucrt:output.obj
 0001:00033104       ?get_parameter_type@?$positional_parameter_base@_WV?$string_output_adapter@_W@__crt_stdio_output@@@__crt_stdio_output@@CA?AW4parameter_type@12@F@Z 0000000140034104 f i libucrt:output.obj
 0001:0003310c       ?get_parameter_type@?$positional_parameter_base@_WV?$string_output_adapter@_W@__crt_stdio_output@@@__crt_stdio_output@@CA?AW4parameter_type@12@G@Z 000000014003410c f i libucrt:output.obj
 0001:00033114       ?get_parameter_type@?$positional_parameter_base@_WV?$string_output_adapter@_W@__crt_stdio_output@@@__crt_stdio_output@@CA?AW4parameter_type@12@H@Z 0000000140034114 f i libucrt:output.obj
 0001:0003311c       ?get_parameter_type@?$positional_parameter_base@_WV?$string_output_adapter@_W@__crt_stdio_output@@@__crt_stdio_output@@CA?AW4parameter_type@12@I@Z 000000014003411c f i libucrt:output.obj
 0001:00033124       ?get_parameter_type@?$positional_parameter_base@_WV?$string_output_adapter@_W@__crt_stdio_output@@@__crt_stdio_output@@CA?AW4parameter_type@12@U_CRT_DOUBLE@@@Z 0000000140034124 f i libucrt:output.obj
 0001:0003312c       ?get_parameter_type@?$positional_parameter_base@_WV?$string_output_adapter@_W@__crt_stdio_output@@@__crt_stdio_output@@CA?AW4parameter_type@12@_J@Z 000000014003412c f i libucrt:output.obj
 0001:00033134       ?get_parameter_type@?$positional_parameter_base@_WV?$string_output_adapter@_W@__crt_stdio_output@@@__crt_stdio_output@@CA?AW4parameter_type@12@_K@Z 0000000140034134 f i libucrt:output.obj
 0001:0003313c       ?get_parameter_type@?$positional_parameter_base@_WV?$string_output_adapter@_W@__crt_stdio_output@@@__crt_stdio_output@@CA?AW4parameter_type@12@_W@Z 000000014003413c f i libucrt:output.obj
 0001:00033150       ?get_raw_ptd@__crt_cached_ptd_host@@QEAAPEAU__acrt_ptd@@XZ 0000000140034150 f i libucrt:output.obj
 0001:000331d0       ?has_flag@?$output_processor@DV?$stream_output_adapter@D@__crt_stdio_output@@V?$format_validation_base@DV?$stream_output_adapter@D@__crt_stdio_output@@@2@@__crt_stdio_output@@AEBA_NI@Z 00000001400341d0 f i libucrt:output.obj
 0001:000331d8       ?has_flag@?$output_processor@DV?$stream_output_adapter@D@__crt_stdio_output@@V?$positional_parameter_base@DV?$stream_output_adapter@D@__crt_stdio_output@@@2@@__crt_stdio_output@@AEBA_NI@Z 00000001400341d8 f i libucrt:output.obj
 0001:000331e0       ?has_flag@?$output_processor@DV?$stream_output_adapter@D@__crt_stdio_output@@V?$standard_base@DV?$stream_output_adapter@D@__crt_stdio_output@@@2@@__crt_stdio_output@@AEBA_NI@Z 00000001400341e0 f i libucrt:output.obj
 0001:000331e8       ?has_flag@?$output_processor@DV?$string_output_adapter@D@__crt_stdio_output@@V?$format_validation_base@DV?$string_output_adapter@D@__crt_stdio_output@@@2@@__crt_stdio_output@@AEBA_NI@Z 00000001400341e8 f i libucrt:output.obj
 0001:000331f0       ?has_flag@?$output_processor@DV?$string_output_adapter@D@__crt_stdio_output@@V?$positional_parameter_base@DV?$string_output_adapter@D@__crt_stdio_output@@@2@@__crt_stdio_output@@AEBA_NI@Z 00000001400341f0 f i libucrt:output.obj
 0001:000331f8       ?has_flag@?$output_processor@DV?$string_output_adapter@D@__crt_stdio_output@@V?$standard_base@DV?$string_output_adapter@D@__crt_stdio_output@@@2@@__crt_stdio_output@@AEBA_NI@Z 00000001400341f8 f i libucrt:output.obj
 0001:00033200       ?has_flag@?$output_processor@_WV?$stream_output_adapter@_W@__crt_stdio_output@@V?$format_validation_base@_WV?$stream_output_adapter@_W@__crt_stdio_output@@@2@@__crt_stdio_output@@AEBA_NI@Z 0000000140034200 f i libucrt:output.obj
 0001:00033208       ?has_flag@?$output_processor@_WV?$stream_output_adapter@_W@__crt_stdio_output@@V?$positional_parameter_base@_WV?$stream_output_adapter@_W@__crt_stdio_output@@@2@@__crt_stdio_output@@AEBA_NI@Z 0000000140034208 f i libucrt:output.obj
 0001:00033210       ?has_flag@?$output_processor@_WV?$stream_output_adapter@_W@__crt_stdio_output@@V?$standard_base@_WV?$stream_output_adapter@_W@__crt_stdio_output@@@2@@__crt_stdio_output@@AEBA_NI@Z 0000000140034210 f i libucrt:output.obj
 0001:00033218       ?has_flag@?$output_processor@_WV?$string_output_adapter@_W@__crt_stdio_output@@V?$format_validation_base@_WV?$string_output_adapter@_W@__crt_stdio_output@@@2@@__crt_stdio_output@@AEBA_NI@Z 0000000140034218 f i libucrt:output.obj
 0001:00033220       ?has_flag@?$output_processor@_WV?$string_output_adapter@_W@__crt_stdio_output@@V?$positional_parameter_base@_WV?$string_output_adapter@_W@__crt_stdio_output@@@2@@__crt_stdio_output@@AEBA_NI@Z 0000000140034220 f i libucrt:output.obj
 0001:00033228       ?has_flag@?$output_processor@_WV?$string_output_adapter@_W@__crt_stdio_output@@V?$standard_base@_WV?$string_output_adapter@_W@__crt_stdio_output@@@2@@__crt_stdio_output@@AEBA_NI@Z 0000000140034228 f i libucrt:output.obj
 0001:00033230       ?is_positional_parameter_reappearance_consistent@?$positional_parameter_base@DV?$stream_output_adapter@D@__crt_stdio_output@@@__crt_stdio_output@@AEAA_NAEBUparameter_data@12@W4parameter_type@12@DW4length_modifier@2@@Z 0000000140034230 f i libucrt:output.obj
 0001:000334f4       ?is_positional_parameter_reappearance_consistent@?$positional_parameter_base@DV?$string_output_adapter@D@__crt_stdio_output@@@__crt_stdio_output@@AEAA_NAEBUparameter_data@12@W4parameter_type@12@DW4length_modifier@2@@Z 00000001400344f4 f i libucrt:output.obj
 0001:000337b8       ?is_positional_parameter_reappearance_consistent@?$positional_parameter_base@_WV?$stream_output_adapter@_W@__crt_stdio_output@@@__crt_stdio_output@@AEAA_NAEBUparameter_data@12@W4parameter_type@12@_WW4length_modifier@2@@Z 00000001400347b8 f i libucrt:output.obj
 0001:00033a3c       ?is_positional_parameter_reappearance_consistent@?$positional_parameter_base@_WV?$string_output_adapter@_W@__crt_stdio_output@@@__crt_stdio_output@@AEAA_NAEBUparameter_data@12@W4parameter_type@12@_WW4length_modifier@2@@Z 0000000140034a3c f i libucrt:output.obj
 0001:00033cc0       ?is_string_backed@__crt_stdio_stream@@QEBA_NXZ 0000000140034cc0 f i libucrt:output.obj
 0001:00033cd0       ?maximum_signed_value@__crt_strtox@@YAJK@Z 0000000140034cd0 f i libucrt:output.obj
 0001:00033cd8       ?minimum_signed_value@__crt_strtox@@YAJK@Z 0000000140034cd8 f i libucrt:output.obj
 0001:00033ce0       ?narrow_null_string@?$output_processor@DV?$stream_output_adapter@D@__crt_stdio_output@@V?$format_validation_base@DV?$stream_output_adapter@D@__crt_stdio_output@@@2@@__crt_stdio_output@@CAPEADXZ 0000000140034ce0 f i libucrt:output.obj
 0001:00033cec       ?narrow_null_string@?$output_processor@DV?$stream_output_adapter@D@__crt_stdio_output@@V?$positional_parameter_base@DV?$stream_output_adapter@D@__crt_stdio_output@@@2@@__crt_stdio_output@@CAPEADXZ 0000000140034cec f i libucrt:output.obj
 0001:00033cf8       ?narrow_null_string@?$output_processor@DV?$stream_output_adapter@D@__crt_stdio_output@@V?$standard_base@DV?$stream_output_adapter@D@__crt_stdio_output@@@2@@__crt_stdio_output@@CAPEADXZ 0000000140034cf8 f i libucrt:output.obj
 0001:00033d04       ?narrow_null_string@?$output_processor@DV?$string_output_adapter@D@__crt_stdio_output@@V?$format_validation_base@DV?$string_output_adapter@D@__crt_stdio_output@@@2@@__crt_stdio_output@@CAPEADXZ 0000000140034d04 f i libucrt:output.obj
 0001:00033d10       ?narrow_null_string@?$output_processor@DV?$string_output_adapter@D@__crt_stdio_output@@V?$positional_parameter_base@DV?$string_output_adapter@D@__crt_stdio_output@@@2@@__crt_stdio_output@@CAPEADXZ 0000000140034d10 f i libucrt:output.obj
 0001:00033d1c       ?narrow_null_string@?$output_processor@DV?$string_output_adapter@D@__crt_stdio_output@@V?$standard_base@DV?$string_output_adapter@D@__crt_stdio_output@@@2@@__crt_stdio_output@@CAPEADXZ 0000000140034d1c f i libucrt:output.obj
 0001:00033d28       ?narrow_null_string@?$output_processor@_WV?$stream_output_adapter@_W@__crt_stdio_output@@V?$format_validation_base@_WV?$stream_output_adapter@_W@__crt_stdio_output@@@2@@__crt_stdio_output@@CAPEADXZ 0000000140034d28 f i libucrt:output.obj
 0001:00033d34       ?narrow_null_string@?$output_processor@_WV?$stream_output_adapter@_W@__crt_stdio_output@@V?$positional_parameter_base@_WV?$stream_output_adapter@_W@__crt_stdio_output@@@2@@__crt_stdio_output@@CAPEADXZ 0000000140034d34 f i libucrt:output.obj
 0001:00033d40       ?narrow_null_string@?$output_processor@_WV?$stream_output_adapter@_W@__crt_stdio_output@@V?$standard_base@_WV?$stream_output_adapter@_W@__crt_stdio_output@@@2@@__crt_stdio_output@@CAPEADXZ 0000000140034d40 f i libucrt:output.obj
 0001:00033d4c       ?narrow_null_string@?$output_processor@_WV?$string_output_adapter@_W@__crt_stdio_output@@V?$format_validation_base@_WV?$string_output_adapter@_W@__crt_stdio_output@@@2@@__crt_stdio_output@@CAPEADXZ 0000000140034d4c f i libucrt:output.obj
 0001:00033d58       ?narrow_null_string@?$output_processor@_WV?$string_output_adapter@_W@__crt_stdio_output@@V?$positional_parameter_base@_WV?$string_output_adapter@_W@__crt_stdio_output@@@2@@__crt_stdio_output@@CAPEADXZ 0000000140034d58 f i libucrt:output.obj
 0001:00033d64       ?narrow_null_string@?$output_processor@_WV?$string_output_adapter@_W@__crt_stdio_output@@V?$standard_base@_WV?$string_output_adapter@_W@__crt_stdio_output@@@2@@__crt_stdio_output@@CAPEADXZ 0000000140034d64 f i libucrt:output.obj
 0001:00033d70       ?parse_digit@__crt_strtox@@YAID@Z 0000000140034d70 f i libucrt:output.obj
 0001:00033dac       ?parse_digit@__crt_strtox@@YAI_W@Z 0000000140034dac f i libucrt:output.obj
 0001:00033fd4       ?parse_int_from_format_string@?$output_processor@DV?$stream_output_adapter@D@__crt_stdio_output@@V?$format_validation_base@DV?$stream_output_adapter@D@__crt_stdio_output@@@2@@__crt_stdio_output@@AEAA_NQEAH@Z 0000000140034fd4 f i libucrt:output.obj
 0001:00034084       ?parse_int_from_format_string@?$output_processor@DV?$stream_output_adapter@D@__crt_stdio_output@@V?$positional_parameter_base@DV?$stream_output_adapter@D@__crt_stdio_output@@@2@@__crt_stdio_output@@AEAA_NQEAH@Z 0000000140035084 f i libucrt:output.obj
 0001:00034134       ?parse_int_from_format_string@?$output_processor@DV?$stream_output_adapter@D@__crt_stdio_output@@V?$standard_base@DV?$stream_output_adapter@D@__crt_stdio_output@@@2@@__crt_stdio_output@@AEAA_NQEAH@Z 0000000140035134 f i libucrt:output.obj
 0001:000341e4       ?parse_int_from_format_string@?$output_processor@DV?$string_output_adapter@D@__crt_stdio_output@@V?$format_validation_base@DV?$string_output_adapter@D@__crt_stdio_output@@@2@@__crt_stdio_output@@AEAA_NQEAH@Z 00000001400351e4 f i libucrt:output.obj
 0001:00034294       ?parse_int_from_format_string@?$output_processor@DV?$string_output_adapter@D@__crt_stdio_output@@V?$positional_parameter_base@DV?$string_output_adapter@D@__crt_stdio_output@@@2@@__crt_stdio_output@@AEAA_NQEAH@Z 0000000140035294 f i libucrt:output.obj
 0001:00034344       ?parse_int_from_format_string@?$output_processor@DV?$string_output_adapter@D@__crt_stdio_output@@V?$standard_base@DV?$string_output_adapter@D@__crt_stdio_output@@@2@@__crt_stdio_output@@AEAA_NQEAH@Z 0000000140035344 f i libucrt:output.obj
 0001:000343f4       ?parse_int_from_format_string@?$output_processor@_WV?$stream_output_adapter@_W@__crt_stdio_output@@V?$format_validation_base@_WV?$stream_output_adapter@_W@__crt_stdio_output@@@2@@__crt_stdio_output@@AEAA_NQEAH@Z 00000001400353f4 f i libucrt:output.obj
 0001:000344a8       ?parse_int_from_format_string@?$output_processor@_WV?$stream_output_adapter@_W@__crt_stdio_output@@V?$positional_parameter_base@_WV?$stream_output_adapter@_W@__crt_stdio_output@@@2@@__crt_stdio_output@@AEAA_NQEAH@Z 00000001400354a8 f i libucrt:output.obj
 0001:0003455c       ?parse_int_from_format_string@?$output_processor@_WV?$stream_output_adapter@_W@__crt_stdio_output@@V?$standard_base@_WV?$stream_output_adapter@_W@__crt_stdio_output@@@2@@__crt_stdio_output@@AEAA_NQEAH@Z 000000014003555c f i libucrt:output.obj
 0001:00034610       ?parse_int_from_format_string@?$output_processor@_WV?$string_output_adapter@_W@__crt_stdio_output@@V?$format_validation_base@_WV?$string_output_adapter@_W@__crt_stdio_output@@@2@@__crt_stdio_output@@AEAA_NQEAH@Z 0000000140035610 f i libucrt:output.obj
 0001:000346c4       ?parse_int_from_format_string@?$output_processor@_WV?$string_output_adapter@_W@__crt_stdio_output@@V?$positional_parameter_base@_WV?$string_output_adapter@_W@__crt_stdio_output@@@2@@__crt_stdio_output@@AEAA_NQEAH@Z 00000001400356c4 f i libucrt:output.obj
 0001:00034778       ?parse_int_from_format_string@?$output_processor@_WV?$string_output_adapter@_W@__crt_stdio_output@@V?$standard_base@_WV?$string_output_adapter@_W@__crt_stdio_output@@@2@@__crt_stdio_output@@AEAA_NQEAH@Z 0000000140035778 f i libucrt:output.obj
 0001:0003482c       ?process@?$output_processor@DV?$stream_output_adapter@D@__crt_stdio_output@@V?$format_validation_base@DV?$stream_output_adapter@D@__crt_stdio_output@@@2@@__crt_stdio_output@@QEAAHXZ 000000014003582c f i libucrt:output.obj
 0001:00034cb0       ?process@?$output_processor@DV?$stream_output_adapter@D@__crt_stdio_output@@V?$positional_parameter_base@DV?$stream_output_adapter@D@__crt_stdio_output@@@2@@__crt_stdio_output@@QEAAHXZ 0000000140035cb0 f i libucrt:output.obj
 0001:000351f0       ?process@?$output_processor@DV?$stream_output_adapter@D@__crt_stdio_output@@V?$standard_base@DV?$stream_output_adapter@D@__crt_stdio_output@@@2@@__crt_stdio_output@@QEAAHXZ 00000001400361f0 f i libucrt:output.obj
 0001:0003566c       ?process@?$output_processor@DV?$string_output_adapter@D@__crt_stdio_output@@V?$format_validation_base@DV?$string_output_adapter@D@__crt_stdio_output@@@2@@__crt_stdio_output@@QEAAHXZ 000000014003666c f i libucrt:output.obj
 0001:00035ad0       ?process@?$output_processor@DV?$string_output_adapter@D@__crt_stdio_output@@V?$positional_parameter_base@DV?$string_output_adapter@D@__crt_stdio_output@@@2@@__crt_stdio_output@@QEAAHXZ 0000000140036ad0 f i libucrt:output.obj
 0001:00035fec       ?process@?$output_processor@DV?$string_output_adapter@D@__crt_stdio_output@@V?$standard_base@DV?$string_output_adapter@D@__crt_stdio_output@@@2@@__crt_stdio_output@@QEAAHXZ 0000000140036fec f i libucrt:output.obj
 0001:0003644c       ?process@?$output_processor@_WV?$stream_output_adapter@_W@__crt_stdio_output@@V?$format_validation_base@_WV?$stream_output_adapter@_W@__crt_stdio_output@@@2@@__crt_stdio_output@@QEAAHXZ 000000014003744c f i libucrt:output.obj
 0001:000367e0       ?process@?$output_processor@_WV?$stream_output_adapter@_W@__crt_stdio_output@@V?$positional_parameter_base@_WV?$stream_output_adapter@_W@__crt_stdio_output@@@2@@__crt_stdio_output@@QEAAHXZ 00000001400377e0 f i libucrt:output.obj
 0001:00036c2c       ?process@?$output_processor@_WV?$stream_output_adapter@_W@__crt_stdio_output@@V?$standard_base@_WV?$stream_output_adapter@_W@__crt_stdio_output@@@2@@__crt_stdio_output@@QEAAHXZ 0000000140037c2c f i libucrt:output.obj
 0001:00036fb0       ?process@?$output_processor@_WV?$string_output_adapter@_W@__crt_stdio_output@@V?$format_validation_base@_WV?$string_output_adapter@_W@__crt_stdio_output@@@2@@__crt_stdio_output@@QEAAHXZ 0000000140037fb0 f i libucrt:output.obj
 0001:0003733c       ?process@?$output_processor@_WV?$string_output_adapter@_W@__crt_stdio_output@@V?$positional_parameter_base@_WV?$string_output_adapter@_W@__crt_stdio_output@@@2@@__crt_stdio_output@@QEAAHXZ 000000014003833c f i libucrt:output.obj
 0001:00037780       ?process@?$output_processor@_WV?$string_output_adapter@_W@__crt_stdio_output@@V?$standard_base@_WV?$string_output_adapter@_W@__crt_stdio_output@@@2@@__crt_stdio_output@@QEAAHXZ 0000000140038780 f i libucrt:output.obj
 0001:00037b0c       ?public_stream@__crt_stdio_stream@@QEBAPEAU_iobuf@@XZ 0000000140038b0c f i libucrt:output.obj
 0001:00037b10       ?restore_state@?$c_string_character_source@D@__crt_strtox@@QEAA_NQEBD@Z 0000000140038b10 f i libucrt:output.obj
 0001:00037b18       ?restore_state@?$c_string_character_source@_W@__crt_strtox@@QEAA_NQEB_W@Z 0000000140038b18 f i libucrt:output.obj
 0001:00037b20       ?save_state@?$c_string_character_source@D@__crt_strtox@@QEBAPEBDXZ 0000000140038b20 f i libucrt:output.obj
 0001:00037b24       ?save_state@?$c_string_character_source@_W@__crt_strtox@@QEBAPEB_WXZ 0000000140038b24 f i libucrt:output.obj
 0001:00037b28       ?set@?$cached@H@__crt_cached_ptd_host@@QEAAHH@Z 0000000140038b28 f i libucrt:output.obj
 0001:00037b34       ?set_flag@?$output_processor@DV?$stream_output_adapter@D@__crt_stdio_output@@V?$format_validation_base@DV?$stream_output_adapter@D@__crt_stdio_output@@@2@@__crt_stdio_output@@AEAAXI@Z 0000000140038b34 f i libucrt:output.obj
 0001:00037b38       ?set_flag@?$output_processor@DV?$stream_output_adapter@D@__crt_stdio_output@@V?$positional_parameter_base@DV?$stream_output_adapter@D@__crt_stdio_output@@@2@@__crt_stdio_output@@AEAAXI@Z 0000000140038b38 f i libucrt:output.obj
 0001:00037b3c       ?set_flag@?$output_processor@DV?$stream_output_adapter@D@__crt_stdio_output@@V?$standard_base@DV?$stream_output_adapter@D@__crt_stdio_output@@@2@@__crt_stdio_output@@AEAAXI@Z 0000000140038b3c f i libucrt:output.obj
 0001:00037b40       ?set_flag@?$output_processor@DV?$string_output_adapter@D@__crt_stdio_output@@V?$format_validation_base@DV?$string_output_adapter@D@__crt_stdio_output@@@2@@__crt_stdio_output@@AEAAXI@Z 0000000140038b40 f i libucrt:output.obj
 0001:00037b44       ?set_flag@?$output_processor@DV?$string_output_adapter@D@__crt_stdio_output@@V?$positional_parameter_base@DV?$string_output_adapter@D@__crt_stdio_output@@@2@@__crt_stdio_output@@AEAAXI@Z 0000000140038b44 f i libucrt:output.obj
 0001:00037b48       ?set_flag@?$output_processor@DV?$string_output_adapter@D@__crt_stdio_output@@V?$standard_base@DV?$string_output_adapter@D@__crt_stdio_output@@@2@@__crt_stdio_output@@AEAAXI@Z 0000000140038b48 f i libucrt:output.obj
 0001:00037b4c       ?set_flag@?$output_processor@_WV?$stream_output_adapter@_W@__crt_stdio_output@@V?$format_validation_base@_WV?$stream_output_adapter@_W@__crt_stdio_output@@@2@@__crt_stdio_output@@AEAAXI@Z 0000000140038b4c f i libucrt:output.obj
 0001:00037b50       ?set_flag@?$output_processor@_WV?$stream_output_adapter@_W@__crt_stdio_output@@V?$positional_parameter_base@_WV?$stream_output_adapter@_W@__crt_stdio_output@@@2@@__crt_stdio_output@@AEAAXI@Z 0000000140038b50 f i libucrt:output.obj
 0001:00037b54       ?set_flag@?$output_processor@_WV?$stream_output_adapter@_W@__crt_stdio_output@@V?$standard_base@_WV?$stream_output_adapter@_W@__crt_stdio_output@@@2@@__crt_stdio_output@@AEAAXI@Z 0000000140038b54 f i libucrt:output.obj
 0001:00037b58       ?set_flag@?$output_processor@_WV?$string_output_adapter@_W@__crt_stdio_output@@V?$format_validation_base@_WV?$string_output_adapter@_W@__crt_stdio_output@@@2@@__crt_stdio_output@@AEAAXI@Z 0000000140038b58 f i libucrt:output.obj
 0001:00037b5c       ?set_flag@?$output_processor@_WV?$string_output_adapter@_W@__crt_stdio_output@@V?$positional_parameter_base@_WV?$string_output_adapter@_W@__crt_stdio_output@@@2@@__crt_stdio_output@@AEAAXI@Z 0000000140038b5c f i libucrt:output.obj
 0001:00037b60       ?set_flag@?$output_processor@_WV?$string_output_adapter@_W@__crt_stdio_output@@V?$standard_base@_WV?$string_output_adapter@_W@__crt_stdio_output@@@2@@__crt_stdio_output@@AEAAXI@Z 0000000140038b60 f i libucrt:output.obj
 0001:00037b64       ?should_format@?$positional_parameter_base@DV?$stream_output_adapter@D@__crt_stdio_output@@@__crt_stdio_output@@IEAA_NXZ 0000000140038b64 f i libucrt:output.obj
 0001:00037b84       ?should_format@?$positional_parameter_base@DV?$string_output_adapter@D@__crt_stdio_output@@@__crt_stdio_output@@IEAA_NXZ 0000000140038b84 f i libucrt:output.obj
 0001:00037ba4       ?should_format@?$positional_parameter_base@_WV?$stream_output_adapter@_W@__crt_stdio_output@@@__crt_stdio_output@@IEAA_NXZ 0000000140038ba4 f i libucrt:output.obj
 0001:00037bc4       ?should_format@?$positional_parameter_base@_WV?$string_output_adapter@_W@__crt_stdio_output@@@__crt_stdio_output@@IEAA_NXZ 0000000140038bc4 f i libucrt:output.obj
 0001:00037be4       ?should_format@?$standard_base@DV?$stream_output_adapter@D@__crt_stdio_output@@@__crt_stdio_output@@IEAA_NXZ 0000000140038be4 f i libucrt:output.obj
 0001:00037be8       ?should_format@?$standard_base@DV?$string_output_adapter@D@__crt_stdio_output@@@__crt_stdio_output@@IEAA_NXZ 0000000140038be8 f i libucrt:output.obj
 0001:00037bec       ?should_format@?$standard_base@_WV?$stream_output_adapter@_W@__crt_stdio_output@@@__crt_stdio_output@@IEAA_NXZ 0000000140038bec f i libucrt:output.obj
 0001:00037bf0       ?should_format@?$standard_base@_WV?$string_output_adapter@_W@__crt_stdio_output@@@__crt_stdio_output@@IEAA_NXZ 0000000140038bf0 f i libucrt:output.obj
 0001:00037bf4       ?should_skip_normal_state_processing@?$positional_parameter_base@DV?$stream_output_adapter@D@__crt_stdio_output@@@__crt_stdio_output@@IEAA_NXZ 0000000140038bf4 f i libucrt:output.obj
 0001:00037c28       ?should_skip_normal_state_processing@?$positional_parameter_base@DV?$string_output_adapter@D@__crt_stdio_output@@@__crt_stdio_output@@IEAA_NXZ 0000000140038c28 f i libucrt:output.obj
 0001:00037c5c       ?should_skip_normal_state_processing@?$positional_parameter_base@_WV?$stream_output_adapter@_W@__crt_stdio_output@@@__crt_stdio_output@@IEAA_NXZ 0000000140038c5c f i libucrt:output.obj
 0001:00037c90       ?should_skip_normal_state_processing@?$positional_parameter_base@_WV?$string_output_adapter@_W@__crt_stdio_output@@@__crt_stdio_output@@IEAA_NXZ 0000000140038c90 f i libucrt:output.obj
 0001:00037cc4       ?should_skip_normal_state_processing@?$standard_base@DV?$stream_output_adapter@D@__crt_stdio_output@@@__crt_stdio_output@@IEAA_NXZ 0000000140038cc4 f i libucrt:output.obj
 0001:00037cc8       ?should_skip_normal_state_processing@?$standard_base@DV?$string_output_adapter@D@__crt_stdio_output@@@__crt_stdio_output@@IEAA_NXZ 0000000140038cc8 f i libucrt:output.obj
 0001:00037ccc       ?should_skip_normal_state_processing@?$standard_base@_WV?$stream_output_adapter@_W@__crt_stdio_output@@@__crt_stdio_output@@IEAA_NXZ 0000000140038ccc f i libucrt:output.obj
 0001:00037cd0       ?should_skip_normal_state_processing@?$standard_base@_WV?$string_output_adapter@_W@__crt_stdio_output@@@__crt_stdio_output@@IEAA_NXZ 0000000140038cd0 f i libucrt:output.obj
 0001:00037cd4       ?should_skip_type_state_output@?$positional_parameter_base@DV?$stream_output_adapter@D@__crt_stdio_output@@@__crt_stdio_output@@IEBA_NXZ 0000000140038cd4 f i libucrt:output.obj
 0001:00037cf4       ?should_skip_type_state_output@?$positional_parameter_base@DV?$string_output_adapter@D@__crt_stdio_output@@@__crt_stdio_output@@IEBA_NXZ 0000000140038cf4 f i libucrt:output.obj
 0001:00037d14       ?should_skip_type_state_output@?$positional_parameter_base@_WV?$stream_output_adapter@_W@__crt_stdio_output@@@__crt_stdio_output@@IEBA_NXZ 0000000140038d14 f i libucrt:output.obj
 0001:00037d34       ?should_skip_type_state_output@?$positional_parameter_base@_WV?$string_output_adapter@_W@__crt_stdio_output@@@__crt_stdio_output@@IEBA_NXZ 0000000140038d34 f i libucrt:output.obj
 0001:00037d54       ?should_skip_type_state_output@?$standard_base@DV?$stream_output_adapter@D@__crt_stdio_output@@@__crt_stdio_output@@IEBA_NXZ 0000000140038d54 f i libucrt:output.obj
 0001:00037d58       ?should_skip_type_state_output@?$standard_base@DV?$string_output_adapter@D@__crt_stdio_output@@@__crt_stdio_output@@IEBA_NXZ 0000000140038d58 f i libucrt:output.obj
 0001:00037d5c       ?should_skip_type_state_output@?$standard_base@_WV?$stream_output_adapter@_W@__crt_stdio_output@@@__crt_stdio_output@@IEBA_NXZ 0000000140038d5c f i libucrt:output.obj
 0001:00037d60       ?should_skip_type_state_output@?$standard_base@_WV?$string_output_adapter@_W@__crt_stdio_output@@@__crt_stdio_output@@IEBA_NXZ 0000000140038d60 f i libucrt:output.obj
 0001:00037d64       ?state_case_dot@?$output_processor@DV?$stream_output_adapter@D@__crt_stdio_output@@V?$format_validation_base@DV?$stream_output_adapter@D@__crt_stdio_output@@@2@@__crt_stdio_output@@AEAA_NXZ 0000000140038d64 f i libucrt:output.obj
 0001:00037d6c       ?state_case_dot@?$output_processor@DV?$stream_output_adapter@D@__crt_stdio_output@@V?$positional_parameter_base@DV?$stream_output_adapter@D@__crt_stdio_output@@@2@@__crt_stdio_output@@AEAA_NXZ 0000000140038d6c f i libucrt:output.obj
 0001:00037d74       ?state_case_dot@?$output_processor@DV?$stream_output_adapter@D@__crt_stdio_output@@V?$standard_base@DV?$stream_output_adapter@D@__crt_stdio_output@@@2@@__crt_stdio_output@@AEAA_NXZ 0000000140038d74 f i libucrt:output.obj
 0001:00037d7c       ?state_case_dot@?$output_processor@DV?$string_output_adapter@D@__crt_stdio_output@@V?$format_validation_base@DV?$string_output_adapter@D@__crt_stdio_output@@@2@@__crt_stdio_output@@AEAA_NXZ 0000000140038d7c f i libucrt:output.obj
 0001:00037d84       ?state_case_dot@?$output_processor@DV?$string_output_adapter@D@__crt_stdio_output@@V?$positional_parameter_base@DV?$string_output_adapter@D@__crt_stdio_output@@@2@@__crt_stdio_output@@AEAA_NXZ 0000000140038d84 f i libucrt:output.obj
 0001:00037d8c       ?state_case_dot@?$output_processor@DV?$string_output_adapter@D@__crt_stdio_output@@V?$standard_base@DV?$string_output_adapter@D@__crt_stdio_output@@@2@@__crt_stdio_output@@AEAA_NXZ 0000000140038d8c f i libucrt:output.obj
 0001:00037d94       ?state_case_dot@?$output_processor@_WV?$stream_output_adapter@_W@__crt_stdio_output@@V?$format_validation_base@_WV?$stream_output_adapter@_W@__crt_stdio_output@@@2@@__crt_stdio_output@@AEAA_NXZ 0000000140038d94 f i libucrt:output.obj
 0001:00037d9c       ?state_case_dot@?$output_processor@_WV?$stream_output_adapter@_W@__crt_stdio_output@@V?$positional_parameter_base@_WV?$stream_output_adapter@_W@__crt_stdio_output@@@2@@__crt_stdio_output@@AEAA_NXZ 0000000140038d9c f i libucrt:output.obj
 0001:00037da4       ?state_case_dot@?$output_processor@_WV?$stream_output_adapter@_W@__crt_stdio_output@@V?$standard_base@_WV?$stream_output_adapter@_W@__crt_stdio_output@@@2@@__crt_stdio_output@@AEAA_NXZ 0000000140038da4 f i libucrt:output.obj
 0001:00037dac       ?state_case_dot@?$output_processor@_WV?$string_output_adapter@_W@__crt_stdio_output@@V?$format_validation_base@_WV?$string_output_adapter@_W@__crt_stdio_output@@@2@@__crt_stdio_output@@AEAA_NXZ 0000000140038dac f i libucrt:output.obj
 0001:00037db4       ?state_case_dot@?$output_processor@_WV?$string_output_adapter@_W@__crt_stdio_output@@V?$positional_parameter_base@_WV?$string_output_adapter@_W@__crt_stdio_output@@@2@@__crt_stdio_output@@AEAA_NXZ 0000000140038db4 f i libucrt:output.obj
 0001:00037dbc       ?state_case_dot@?$output_processor@_WV?$string_output_adapter@_W@__crt_stdio_output@@V?$standard_base@_WV?$string_output_adapter@_W@__crt_stdio_output@@@2@@__crt_stdio_output@@AEAA_NXZ 0000000140038dbc f i libucrt:output.obj
 0001:00037dc4       ?state_case_flag@?$output_processor@DV?$stream_output_adapter@D@__crt_stdio_output@@V?$format_validation_base@DV?$stream_output_adapter@D@__crt_stdio_output@@@2@@__crt_stdio_output@@AEAA_NXZ 0000000140038dc4 f i libucrt:output.obj
 0001:00037e08       ?state_case_flag@?$output_processor@DV?$stream_output_adapter@D@__crt_stdio_output@@V?$positional_parameter_base@DV?$stream_output_adapter@D@__crt_stdio_output@@@2@@__crt_stdio_output@@AEAA_NXZ 0000000140038e08 f i libucrt:output.obj
 0001:00037e4c       ?state_case_flag@?$output_processor@DV?$stream_output_adapter@D@__crt_stdio_output@@V?$standard_base@DV?$stream_output_adapter@D@__crt_stdio_output@@@2@@__crt_stdio_output@@AEAA_NXZ 0000000140038e4c f i libucrt:output.obj
 0001:00037e90       ?state_case_flag@?$output_processor@DV?$string_output_adapter@D@__crt_stdio_output@@V?$format_validation_base@DV?$string_output_adapter@D@__crt_stdio_output@@@2@@__crt_stdio_output@@AEAA_NXZ 0000000140038e90 f i libucrt:output.obj
 0001:00037ed4       ?state_case_flag@?$output_processor@DV?$string_output_adapter@D@__crt_stdio_output@@V?$positional_parameter_base@DV?$string_output_adapter@D@__crt_stdio_output@@@2@@__crt_stdio_output@@AEAA_NXZ 0000000140038ed4 f i libucrt:output.obj
 0001:00037f18       ?state_case_flag@?$output_processor@DV?$string_output_adapter@D@__crt_stdio_output@@V?$standard_base@DV?$string_output_adapter@D@__crt_stdio_output@@@2@@__crt_stdio_output@@AEAA_NXZ 0000000140038f18 f i libucrt:output.obj
 0001:00037f5c       ?state_case_flag@?$output_processor@_WV?$stream_output_adapter@_W@__crt_stdio_output@@V?$format_validation_base@_WV?$stream_output_adapter@_W@__crt_stdio_output@@@2@@__crt_stdio_output@@AEAA_NXZ 0000000140038f5c f i libucrt:output.obj
 0001:00037fb4       ?state_case_flag@?$output_processor@_WV?$stream_output_adapter@_W@__crt_stdio_output@@V?$positional_parameter_base@_WV?$stream_output_adapter@_W@__crt_stdio_output@@@2@@__crt_stdio_output@@AEAA_NXZ 0000000140038fb4 f i libucrt:output.obj
 0001:0003800c       ?state_case_flag@?$output_processor@_WV?$stream_output_adapter@_W@__crt_stdio_output@@V?$standard_base@_WV?$stream_output_adapter@_W@__crt_stdio_output@@@2@@__crt_stdio_output@@AEAA_NXZ 000000014003900c f i libucrt:output.obj
 0001:00038064       ?state_case_flag@?$output_processor@_WV?$string_output_adapter@_W@__crt_stdio_output@@V?$format_validation_base@_WV?$string_output_adapter@_W@__crt_stdio_output@@@2@@__crt_stdio_output@@AEAA_NXZ 0000000140039064 f i libucrt:output.obj
 0001:000380bc       ?state_case_flag@?$output_processor@_WV?$string_output_adapter@_W@__crt_stdio_output@@V?$positional_parameter_base@_WV?$string_output_adapter@_W@__crt_stdio_output@@@2@@__crt_stdio_output@@AEAA_NXZ 00000001400390bc f i libucrt:output.obj
 0001:00038114       ?state_case_flag@?$output_processor@_WV?$string_output_adapter@_W@__crt_stdio_output@@V?$standard_base@_WV?$string_output_adapter@_W@__crt_stdio_output@@@2@@__crt_stdio_output@@AEAA_NXZ 0000000140039114 f i libucrt:output.obj
 0001:0003816c       ?state_case_normal@?$output_processor@DV?$stream_output_adapter@D@__crt_stdio_output@@V?$format_validation_base@DV?$stream_output_adapter@D@__crt_stdio_output@@@2@@__crt_stdio_output@@AEAA_NXZ 000000014003916c f i libucrt:output.obj
 0001:00038314       ?state_case_normal@?$output_processor@DV?$stream_output_adapter@D@__crt_stdio_output@@V?$positional_parameter_base@DV?$stream_output_adapter@D@__crt_stdio_output@@@2@@__crt_stdio_output@@AEAA_NXZ 0000000140039314 f i libucrt:output.obj
 0001:000384f4       ?state_case_normal@?$output_processor@DV?$stream_output_adapter@D@__crt_stdio_output@@V?$standard_base@DV?$stream_output_adapter@D@__crt_stdio_output@@@2@@__crt_stdio_output@@AEAA_NXZ 00000001400394f4 f i libucrt:output.obj
 0001:0003869c       ?state_case_normal@?$output_processor@DV?$string_output_adapter@D@__crt_stdio_output@@V?$format_validation_base@DV?$string_output_adapter@D@__crt_stdio_output@@@2@@__crt_stdio_output@@AEAA_NXZ 000000014003969c f i libucrt:output.obj
 0001:0003883c       ?state_case_normal@?$output_processor@DV?$string_output_adapter@D@__crt_stdio_output@@V?$positional_parameter_base@DV?$string_output_adapter@D@__crt_stdio_output@@@2@@__crt_stdio_output@@AEAA_NXZ 000000014003983c f i libucrt:output.obj
 0001:00038a10       ?state_case_normal@?$output_processor@DV?$string_output_adapter@D@__crt_stdio_output@@V?$standard_base@DV?$string_output_adapter@D@__crt_stdio_output@@@2@@__crt_stdio_output@@AEAA_NXZ 0000000140039a10 f i libucrt:output.obj
 0001:00038bb0       ?state_case_normal@?$output_processor@_WV?$stream_output_adapter@_W@__crt_stdio_output@@V?$format_validation_base@_WV?$stream_output_adapter@_W@__crt_stdio_output@@@2@@__crt_stdio_output@@AEAA_NXZ 0000000140039bb0 f i libucrt:output.obj
 0001:00038c24       ?state_case_normal@?$output_processor@_WV?$stream_output_adapter@_W@__crt_stdio_output@@V?$positional_parameter_base@_WV?$stream_output_adapter@_W@__crt_stdio_output@@@2@@__crt_stdio_output@@AEAA_NXZ 0000000140039c24 f i libucrt:output.obj
 0001:00038cc8       ?state_case_normal@?$output_processor@_WV?$stream_output_adapter@_W@__crt_stdio_output@@V?$standard_base@_WV?$stream_output_adapter@_W@__crt_stdio_output@@@2@@__crt_stdio_output@@AEAA_NXZ 0000000140039cc8 f i libucrt:output.obj
 0001:00038d3c       ?state_case_normal@?$output_processor@_WV?$string_output_adapter@_W@__crt_stdio_output@@V?$format_validation_base@_WV?$string_output_adapter@_W@__crt_stdio_output@@@2@@__crt_stdio_output@@AEAA_NXZ 0000000140039d3c f i libucrt:output.obj
 0001:00038da8       ?state_case_normal@?$output_processor@_WV?$string_output_adapter@_W@__crt_stdio_output@@V?$positional_parameter_base@_WV?$string_output_adapter@_W@__crt_stdio_output@@@2@@__crt_stdio_output@@AEAA_NXZ 0000000140039da8 f i libucrt:output.obj
 0001:00038e40       ?state_case_normal@?$output_processor@_WV?$string_output_adapter@_W@__crt_stdio_output@@V?$standard_base@_WV?$string_output_adapter@_W@__crt_stdio_output@@@2@@__crt_stdio_output@@AEAA_NXZ 0000000140039e40 f i libucrt:output.obj
 0001:00038eac       ?state_case_normal_common@?$output_processor@DV?$stream_output_adapter@D@__crt_stdio_output@@V?$format_validation_base@DV?$stream_output_adapter@D@__crt_stdio_output@@@2@@__crt_stdio_output@@AEAA_NXZ 0000000140039eac f i libucrt:output.obj
 0001:00039020       ?state_case_normal_common@?$output_processor@DV?$stream_output_adapter@D@__crt_stdio_output@@V?$positional_parameter_base@DV?$stream_output_adapter@D@__crt_stdio_output@@@2@@__crt_stdio_output@@AEAA_NXZ 000000014003a020 f i libucrt:output.obj
 0001:00039194       ?state_case_normal_common@?$output_processor@DV?$stream_output_adapter@D@__crt_stdio_output@@V?$standard_base@DV?$stream_output_adapter@D@__crt_stdio_output@@@2@@__crt_stdio_output@@AEAA_NXZ 000000014003a194 f i libucrt:output.obj
 0001:00039308       ?state_case_normal_common@?$output_processor@DV?$string_output_adapter@D@__crt_stdio_output@@V?$format_validation_base@DV?$string_output_adapter@D@__crt_stdio_output@@@2@@__crt_stdio_output@@AEAA_NXZ 000000014003a308 f i libucrt:output.obj
 0001:00039474       ?state_case_normal_common@?$output_processor@DV?$string_output_adapter@D@__crt_stdio_output@@V?$positional_parameter_base@DV?$string_output_adapter@D@__crt_stdio_output@@@2@@__crt_stdio_output@@AEAA_NXZ 000000014003a474 f i libucrt:output.obj
 0001:000395e0       ?state_case_normal_common@?$output_processor@DV?$string_output_adapter@D@__crt_stdio_output@@V?$standard_base@DV?$string_output_adapter@D@__crt_stdio_output@@@2@@__crt_stdio_output@@AEAA_NXZ 000000014003a5e0 f i libucrt:output.obj
 0001:0003974c       ?state_case_normal_common@?$output_processor@_WV?$stream_output_adapter@_W@__crt_stdio_output@@V?$format_validation_base@_WV?$stream_output_adapter@_W@__crt_stdio_output@@@2@@__crt_stdio_output@@AEAA_NXZ 000000014003a74c f i libucrt:output.obj
 0001:000397c0       ?state_case_normal_common@?$output_processor@_WV?$stream_output_adapter@_W@__crt_stdio_output@@V?$positional_parameter_base@_WV?$stream_output_adapter@_W@__crt_stdio_output@@@2@@__crt_stdio_output@@AEAA_NXZ 000000014003a7c0 f i libucrt:output.obj
 0001:00039834       ?state_case_normal_common@?$output_processor@_WV?$stream_output_adapter@_W@__crt_stdio_output@@V?$standard_base@_WV?$stream_output_adapter@_W@__crt_stdio_output@@@2@@__crt_stdio_output@@AEAA_NXZ 000000014003a834 f i libucrt:output.obj
 0001:000398a8       ?state_case_normal_common@?$output_processor@_WV?$string_output_adapter@_W@__crt_stdio_output@@V?$format_validation_base@_WV?$string_output_adapter@_W@__crt_stdio_output@@@2@@__crt_stdio_output@@AEAA_NXZ 000000014003a8a8 f i libucrt:output.obj
 0001:00039914       ?state_case_normal_common@?$output_processor@_WV?$string_output_adapter@_W@__crt_stdio_output@@V?$positional_parameter_base@_WV?$string_output_adapter@_W@__crt_stdio_output@@@2@@__crt_stdio_output@@AEAA_NXZ 000000014003a914 f i libucrt:output.obj
 0001:00039980       ?state_case_normal_common@?$output_processor@_WV?$string_output_adapter@_W@__crt_stdio_output@@V?$standard_base@_WV?$string_output_adapter@_W@__crt_stdio_output@@@2@@__crt_stdio_output@@AEAA_NXZ 000000014003a980 f i libucrt:output.obj
 0001:000399ec       ?state_case_normal_tchar@?$output_processor@DV?$stream_output_adapter@D@__crt_stdio_output@@V?$format_validation_base@DV?$stream_output_adapter@D@__crt_stdio_output@@@2@@__crt_stdio_output@@AEAA_ND@Z 000000014003a9ec f i libucrt:output.obj
 0001:00039b00       ?state_case_normal_tchar@?$output_processor@DV?$stream_output_adapter@D@__crt_stdio_output@@V?$positional_parameter_base@DV?$stream_output_adapter@D@__crt_stdio_output@@@2@@__crt_stdio_output@@AEAA_ND@Z 000000014003ab00 f i libucrt:output.obj
 0001:00039c14       ?state_case_normal_tchar@?$output_processor@DV?$stream_output_adapter@D@__crt_stdio_output@@V?$standard_base@DV?$stream_output_adapter@D@__crt_stdio_output@@@2@@__crt_stdio_output@@AEAA_ND@Z 000000014003ac14 f i libucrt:output.obj
 0001:00039d28       ?state_case_normal_tchar@?$output_processor@DV?$string_output_adapter@D@__crt_stdio_output@@V?$format_validation_base@DV?$string_output_adapter@D@__crt_stdio_output@@@2@@__crt_stdio_output@@AEAA_ND@Z 000000014003ad28 f i libucrt:output.obj
 0001:00039e3c       ?state_case_normal_tchar@?$output_processor@DV?$string_output_adapter@D@__crt_stdio_output@@V?$positional_parameter_base@DV?$string_output_adapter@D@__crt_stdio_output@@@2@@__crt_stdio_output@@AEAA_ND@Z 000000014003ae3c f i libucrt:output.obj
 0001:00039f50       ?state_case_normal_tchar@?$output_processor@DV?$string_output_adapter@D@__crt_stdio_output@@V?$standard_base@DV?$string_output_adapter@D@__crt_stdio_output@@@2@@__crt_stdio_output@@AEAA_ND@Z 000000014003af50 f i libucrt:output.obj
 0001:0003a064       ?state_case_normal_tchar@?$output_processor@_WV?$stream_output_adapter@_W@__crt_stdio_output@@V?$format_validation_base@_WV?$stream_output_adapter@_W@__crt_stdio_output@@@2@@__crt_stdio_output@@AEAA_N_W@Z 000000014003b064 f i libucrt:output.obj
 0001:0003a06c       ?state_case_normal_tchar@?$output_processor@_WV?$stream_output_adapter@_W@__crt_stdio_output@@V?$positional_parameter_base@_WV?$stream_output_adapter@_W@__crt_stdio_output@@@2@@__crt_stdio_output@@AEAA_N_W@Z 000000014003b06c f i libucrt:output.obj
 0001:0003a074       ?state_case_normal_tchar@?$output_processor@_WV?$stream_output_adapter@_W@__crt_stdio_output@@V?$standard_base@_WV?$stream_output_adapter@_W@__crt_stdio_output@@@2@@__crt_stdio_output@@AEAA_N_W@Z 000000014003b074 f i libucrt:output.obj
 0001:0003a07c       ?state_case_normal_tchar@?$output_processor@_WV?$string_output_adapter@_W@__crt_stdio_output@@V?$format_validation_base@_WV?$string_output_adapter@_W@__crt_stdio_output@@@2@@__crt_stdio_output@@AEAA_N_W@Z 000000014003b07c f i libucrt:output.obj
 0001:0003a084       ?state_case_normal_tchar@?$output_processor@_WV?$string_output_adapter@_W@__crt_stdio_output@@V?$positional_parameter_base@_WV?$string_output_adapter@_W@__crt_stdio_output@@@2@@__crt_stdio_output@@AEAA_N_W@Z 000000014003b084 f i libucrt:output.obj
 0001:0003a08c       ?state_case_normal_tchar@?$output_processor@_WV?$string_output_adapter@_W@__crt_stdio_output@@V?$standard_base@_WV?$string_output_adapter@_W@__crt_stdio_output@@@2@@__crt_stdio_output@@AEAA_N_W@Z 000000014003b08c f i libucrt:output.obj
 0001:0003a094       ?state_case_percent@?$output_processor@DV?$stream_output_adapter@D@__crt_stdio_output@@V?$format_validation_base@DV?$stream_output_adapter@D@__crt_stdio_output@@@2@@__crt_stdio_output@@AEAA_NXZ 000000014003b094 f i libucrt:output.obj
 0001:0003a0b0       ?state_case_percent@?$output_processor@DV?$stream_output_adapter@D@__crt_stdio_output@@V?$positional_parameter_base@DV?$stream_output_adapter@D@__crt_stdio_output@@@2@@__crt_stdio_output@@AEAA_NXZ 000000014003b0b0 f i libucrt:output.obj
 0001:0003a0cc       ?state_case_percent@?$output_processor@DV?$stream_output_adapter@D@__crt_stdio_output@@V?$standard_base@DV?$stream_output_adapter@D@__crt_stdio_output@@@2@@__crt_stdio_output@@AEAA_NXZ 000000014003b0cc f i libucrt:output.obj
 0001:0003a0e8       ?state_case_percent@?$output_processor@DV?$string_output_adapter@D@__crt_stdio_output@@V?$format_validation_base@DV?$string_output_adapter@D@__crt_stdio_output@@@2@@__crt_stdio_output@@AEAA_NXZ 000000014003b0e8 f i libucrt:output.obj
 0001:0003a104       ?state_case_percent@?$output_processor@DV?$string_output_adapter@D@__crt_stdio_output@@V?$positional_parameter_base@DV?$string_output_adapter@D@__crt_stdio_output@@@2@@__crt_stdio_output@@AEAA_NXZ 000000014003b104 f i libucrt:output.obj
 0001:0003a120       ?state_case_percent@?$output_processor@DV?$string_output_adapter@D@__crt_stdio_output@@V?$standard_base@DV?$string_output_adapter@D@__crt_stdio_output@@@2@@__crt_stdio_output@@AEAA_NXZ 000000014003b120 f i libucrt:output.obj
 0001:0003a13c       ?state_case_percent@?$output_processor@_WV?$stream_output_adapter@_W@__crt_stdio_output@@V?$format_validation_base@_WV?$stream_output_adapter@_W@__crt_stdio_output@@@2@@__crt_stdio_output@@AEAA_NXZ 000000014003b13c f i libucrt:output.obj
 0001:0003a158       ?state_case_percent@?$output_processor@_WV?$stream_output_adapter@_W@__crt_stdio_output@@V?$positional_parameter_base@_WV?$stream_output_adapter@_W@__crt_stdio_output@@@2@@__crt_stdio_output@@AEAA_NXZ 000000014003b158 f i libucrt:output.obj
 0001:0003a174       ?state_case_percent@?$output_processor@_WV?$stream_output_adapter@_W@__crt_stdio_output@@V?$standard_base@_WV?$stream_output_adapter@_W@__crt_stdio_output@@@2@@__crt_stdio_output@@AEAA_NXZ 000000014003b174 f i libucrt:output.obj
 0001:0003a190       ?state_case_percent@?$output_processor@_WV?$string_output_adapter@_W@__crt_stdio_output@@V?$format_validation_base@_WV?$string_output_adapter@_W@__crt_stdio_output@@@2@@__crt_stdio_output@@AEAA_NXZ 000000014003b190 f i libucrt:output.obj
 0001:0003a1ac       ?state_case_percent@?$output_processor@_WV?$string_output_adapter@_W@__crt_stdio_output@@V?$positional_parameter_base@_WV?$string_output_adapter@_W@__crt_stdio_output@@@2@@__crt_stdio_output@@AEAA_NXZ 000000014003b1ac f i libucrt:output.obj
 0001:0003a1c8       ?state_case_percent@?$output_processor@_WV?$string_output_adapter@_W@__crt_stdio_output@@V?$standard_base@_WV?$string_output_adapter@_W@__crt_stdio_output@@@2@@__crt_stdio_output@@AEAA_NXZ 000000014003b1c8 f i libucrt:output.obj
 0001:0003a1e4       ?state_case_precision@?$output_processor@DV?$stream_output_adapter@D@__crt_stdio_output@@V?$format_validation_base@DV?$stream_output_adapter@D@__crt_stdio_output@@@2@@__crt_stdio_output@@AEAA_NXZ 000000014003b1e4 f i libucrt:output.obj
 0001:0003a220       ?state_case_precision@?$output_processor@DV?$stream_output_adapter@D@__crt_stdio_output@@V?$positional_parameter_base@DV?$stream_output_adapter@D@__crt_stdio_output@@@2@@__crt_stdio_output@@AEAA_NXZ 000000014003b220 f i libucrt:output.obj
 0001:0003a27c       ?state_case_precision@?$output_processor@DV?$stream_output_adapter@D@__crt_stdio_output@@V?$standard_base@DV?$stream_output_adapter@D@__crt_stdio_output@@@2@@__crt_stdio_output@@AEAA_NXZ 000000014003b27c f i libucrt:output.obj
 0001:0003a2b8       ?state_case_precision@?$output_processor@DV?$string_output_adapter@D@__crt_stdio_output@@V?$format_validation_base@DV?$string_output_adapter@D@__crt_stdio_output@@@2@@__crt_stdio_output@@AEAA_NXZ 000000014003b2b8 f i libucrt:output.obj
 0001:0003a2f4       ?state_case_precision@?$output_processor@DV?$string_output_adapter@D@__crt_stdio_output@@V?$positional_parameter_base@DV?$string_output_adapter@D@__crt_stdio_output@@@2@@__crt_stdio_output@@AEAA_NXZ 000000014003b2f4 f i libucrt:output.obj
 0001:0003a350       ?state_case_precision@?$output_processor@DV?$string_output_adapter@D@__crt_stdio_output@@V?$standard_base@DV?$string_output_adapter@D@__crt_stdio_output@@@2@@__crt_stdio_output@@AEAA_NXZ 000000014003b350 f i libucrt:output.obj
 0001:0003a38c       ?state_case_precision@?$output_processor@_WV?$stream_output_adapter@_W@__crt_stdio_output@@V?$format_validation_base@_WV?$stream_output_adapter@_W@__crt_stdio_output@@@2@@__crt_stdio_output@@AEAA_NXZ 000000014003b38c f i libucrt:output.obj
 0001:0003a3cc       ?state_case_precision@?$output_processor@_WV?$stream_output_adapter@_W@__crt_stdio_output@@V?$positional_parameter_base@_WV?$stream_output_adapter@_W@__crt_stdio_output@@@2@@__crt_stdio_output@@AEAA_NXZ 000000014003b3cc f i libucrt:output.obj
 0001:0003a42c       ?state_case_precision@?$output_processor@_WV?$stream_output_adapter@_W@__crt_stdio_output@@V?$standard_base@_WV?$stream_output_adapter@_W@__crt_stdio_output@@@2@@__crt_stdio_output@@AEAA_NXZ 000000014003b42c f i libucrt:output.obj
 0001:0003a46c       ?state_case_precision@?$output_processor@_WV?$string_output_adapter@_W@__crt_stdio_output@@V?$format_validation_base@_WV?$string_output_adapter@_W@__crt_stdio_output@@@2@@__crt_stdio_output@@AEAA_NXZ 000000014003b46c f i libucrt:output.obj
 0001:0003a4ac       ?state_case_precision@?$output_processor@_WV?$string_output_adapter@_W@__crt_stdio_output@@V?$positional_parameter_base@_WV?$string_output_adapter@_W@__crt_stdio_output@@@2@@__crt_stdio_output@@AEAA_NXZ 000000014003b4ac f i libucrt:output.obj
 0001:0003a50c       ?state_case_precision@?$output_processor@_WV?$string_output_adapter@_W@__crt_stdio_output@@V?$standard_base@_WV?$string_output_adapter@_W@__crt_stdio_output@@@2@@__crt_stdio_output@@AEAA_NXZ 000000014003b50c f i libucrt:output.obj
 0001:0003a54c       ?state_case_size@?$output_processor@DV?$stream_output_adapter@D@__crt_stdio_output@@V?$format_validation_base@DV?$stream_output_adapter@D@__crt_stdio_output@@@2@@__crt_stdio_output@@AEAA_NXZ 000000014003b54c f i libucrt:output.obj
 0001:0003a734       ?state_case_size@?$output_processor@DV?$stream_output_adapter@D@__crt_stdio_output@@V?$positional_parameter_base@DV?$stream_output_adapter@D@__crt_stdio_output@@@2@@__crt_stdio_output@@AEAA_NXZ 000000014003b734 f i libucrt:output.obj
 0001:0003a91c       ?state_case_size@?$output_processor@DV?$stream_output_adapter@D@__crt_stdio_output@@V?$standard_base@DV?$stream_output_adapter@D@__crt_stdio_output@@@2@@__crt_stdio_output@@AEAA_NXZ 000000014003b91c f i libucrt:output.obj
 0001:0003ab04       ?state_case_size@?$output_processor@DV?$string_output_adapter@D@__crt_stdio_output@@V?$format_validation_base@DV?$string_output_adapter@D@__crt_stdio_output@@@2@@__crt_stdio_output@@AEAA_NXZ 000000014003bb04 f i libucrt:output.obj
 0001:0003acec       ?state_case_size@?$output_processor@DV?$string_output_adapter@D@__crt_stdio_output@@V?$positional_parameter_base@DV?$string_output_adapter@D@__crt_stdio_output@@@2@@__crt_stdio_output@@AEAA_NXZ 000000014003bcec f i libucrt:output.obj
 0001:0003aed4       ?state_case_size@?$output_processor@DV?$string_output_adapter@D@__crt_stdio_output@@V?$standard_base@DV?$string_output_adapter@D@__crt_stdio_output@@@2@@__crt_stdio_output@@AEAA_NXZ 000000014003bed4 f i libucrt:output.obj
 0001:0003b0bc       ?state_case_size@?$output_processor@_WV?$stream_output_adapter@_W@__crt_stdio_output@@V?$format_validation_base@_WV?$stream_output_adapter@_W@__crt_stdio_output@@@2@@__crt_stdio_output@@AEAA_NXZ 000000014003c0bc f i libucrt:output.obj
 0001:0003b2d4       ?state_case_size@?$output_processor@_WV?$stream_output_adapter@_W@__crt_stdio_output@@V?$positional_parameter_base@_WV?$stream_output_adapter@_W@__crt_stdio_output@@@2@@__crt_stdio_output@@AEAA_NXZ 000000014003c2d4 f i libucrt:output.obj
 0001:0003b4ec       ?state_case_size@?$output_processor@_WV?$stream_output_adapter@_W@__crt_stdio_output@@V?$standard_base@_WV?$stream_output_adapter@_W@__crt_stdio_output@@@2@@__crt_stdio_output@@AEAA_NXZ 000000014003c4ec f i libucrt:output.obj
 0001:0003b704       ?state_case_size@?$output_processor@_WV?$string_output_adapter@_W@__crt_stdio_output@@V?$format_validation_base@_WV?$string_output_adapter@_W@__crt_stdio_output@@@2@@__crt_stdio_output@@AEAA_NXZ 000000014003c704 f i libucrt:output.obj
 0001:0003b91c       ?state_case_size@?$output_processor@_WV?$string_output_adapter@_W@__crt_stdio_output@@V?$positional_parameter_base@_WV?$string_output_adapter@_W@__crt_stdio_output@@@2@@__crt_stdio_output@@AEAA_NXZ 000000014003c91c f i libucrt:output.obj
 0001:0003bb34       ?state_case_size@?$output_processor@_WV?$string_output_adapter@_W@__crt_stdio_output@@V?$standard_base@_WV?$string_output_adapter@_W@__crt_stdio_output@@@2@@__crt_stdio_output@@AEAA_NXZ 000000014003cb34 f i libucrt:output.obj
 0001:0003bd4c       ?state_case_type@?$output_processor@DV?$stream_output_adapter@D@__crt_stdio_output@@V?$format_validation_base@DV?$stream_output_adapter@D@__crt_stdio_output@@@2@@__crt_stdio_output@@AEAA_NXZ 000000014003cd4c f i libucrt:output.obj
 0001:0003c290       ?state_case_type@?$output_processor@DV?$stream_output_adapter@D@__crt_stdio_output@@V?$positional_parameter_base@DV?$stream_output_adapter@D@__crt_stdio_output@@@2@@__crt_stdio_output@@AEAA_NXZ 000000014003d290 f i libucrt:output.obj
 0001:0003c810       ?state_case_type@?$output_processor@DV?$stream_output_adapter@D@__crt_stdio_output@@V?$standard_base@DV?$stream_output_adapter@D@__crt_stdio_output@@@2@@__crt_stdio_output@@AEAA_NXZ 000000014003d810 f i libucrt:output.obj
 0001:0003cd54       ?state_case_type@?$output_processor@DV?$string_output_adapter@D@__crt_stdio_output@@V?$format_validation_base@DV?$string_output_adapter@D@__crt_stdio_output@@@2@@__crt_stdio_output@@AEAA_NXZ 000000014003dd54 f i libucrt:output.obj
 0001:0003d258       ?state_case_type@?$output_processor@DV?$string_output_adapter@D@__crt_stdio_output@@V?$positional_parameter_base@DV?$string_output_adapter@D@__crt_stdio_output@@@2@@__crt_stdio_output@@AEAA_NXZ 000000014003e258 f i libucrt:output.obj
 0001:0003d774       ?state_case_type@?$output_processor@DV?$string_output_adapter@D@__crt_stdio_output@@V?$standard_base@DV?$string_output_adapter@D@__crt_stdio_output@@@2@@__crt_stdio_output@@AEAA_NXZ 000000014003e774 f i libucrt:output.obj
 0001:0003dc78       ?state_case_type@?$output_processor@_WV?$stream_output_adapter@_W@__crt_stdio_output@@V?$format_validation_base@_WV?$stream_output_adapter@_W@__crt_stdio_output@@@2@@__crt_stdio_output@@AEAA_NXZ 000000014003ec78 f i libucrt:output.obj
 0001:0003e26c       ?state_case_type@?$output_processor@_WV?$stream_output_adapter@_W@__crt_stdio_output@@V?$positional_parameter_base@_WV?$stream_output_adapter@_W@__crt_stdio_output@@@2@@__crt_stdio_output@@AEAA_NXZ 000000014003f26c f i libucrt:output.obj
 0001:0003e87c       ?state_case_type@?$output_processor@_WV?$stream_output_adapter@_W@__crt_stdio_output@@V?$standard_base@_WV?$stream_output_adapter@_W@__crt_stdio_output@@@2@@__crt_stdio_output@@AEAA_NXZ 000000014003f87c f i libucrt:output.obj
 0001:0003ee70       ?state_case_type@?$output_processor@_WV?$string_output_adapter@_W@__crt_stdio_output@@V?$format_validation_base@_WV?$string_output_adapter@_W@__crt_stdio_output@@@2@@__crt_stdio_output@@AEAA_NXZ 000000014003fe70 f i libucrt:output.obj
 0001:0003f3f0       ?state_case_type@?$output_processor@_WV?$string_output_adapter@_W@__crt_stdio_output@@V?$positional_parameter_base@_WV?$string_output_adapter@_W@__crt_stdio_output@@@2@@__crt_stdio_output@@AEAA_NXZ 00000001400403f0 f i libucrt:output.obj
 0001:0003f9a4       ?state_case_type@?$output_processor@_WV?$string_output_adapter@_W@__crt_stdio_output@@V?$standard_base@_WV?$string_output_adapter@_W@__crt_stdio_output@@@2@@__crt_stdio_output@@AEAA_NXZ 00000001400409a4 f i libucrt:output.obj
 0001:0003ff24       ?state_case_width@?$output_processor@DV?$stream_output_adapter@D@__crt_stdio_output@@V?$format_validation_base@DV?$stream_output_adapter@D@__crt_stdio_output@@@2@@__crt_stdio_output@@AEAA_NXZ 0000000140040f24 f i libucrt:output.obj
 0001:0003ff64       ?state_case_width@?$output_processor@DV?$stream_output_adapter@D@__crt_stdio_output@@V?$positional_parameter_base@DV?$stream_output_adapter@D@__crt_stdio_output@@@2@@__crt_stdio_output@@AEAA_NXZ 0000000140040f64 f i libucrt:output.obj
 0001:0003ffc8       ?state_case_width@?$output_processor@DV?$stream_output_adapter@D@__crt_stdio_output@@V?$standard_base@DV?$stream_output_adapter@D@__crt_stdio_output@@@2@@__crt_stdio_output@@AEAA_NXZ 0000000140040fc8 f i libucrt:output.obj
 0001:00040008       ?state_case_width@?$output_processor@DV?$string_output_adapter@D@__crt_stdio_output@@V?$format_validation_base@DV?$string_output_adapter@D@__crt_stdio_output@@@2@@__crt_stdio_output@@AEAA_NXZ 0000000140041008 f i libucrt:output.obj
 0001:00040048       ?state_case_width@?$output_processor@DV?$string_output_adapter@D@__crt_stdio_output@@V?$positional_parameter_base@DV?$string_output_adapter@D@__crt_stdio_output@@@2@@__crt_stdio_output@@AEAA_NXZ 0000000140041048 f i libucrt:output.obj
 0001:000400ac       ?state_case_width@?$output_processor@DV?$string_output_adapter@D@__crt_stdio_output@@V?$standard_base@DV?$string_output_adapter@D@__crt_stdio_output@@@2@@__crt_stdio_output@@AEAA_NXZ 00000001400410ac f i libucrt:output.obj
 0001:000400ec       ?state_case_width@?$output_processor@_WV?$stream_output_adapter@_W@__crt_stdio_output@@V?$format_validation_base@_WV?$stream_output_adapter@_W@__crt_stdio_output@@@2@@__crt_stdio_output@@AEAA_NXZ 00000001400410ec f i libucrt:output.obj
 0001:0004012c       ?state_case_width@?$output_processor@_WV?$stream_output_adapter@_W@__crt_stdio_output@@V?$positional_parameter_base@_WV?$stream_output_adapter@_W@__crt_stdio_output@@@2@@__crt_stdio_output@@AEAA_NXZ 000000014004112c f i libucrt:output.obj
 0001:00040194       ?state_case_width@?$output_processor@_WV?$stream_output_adapter@_W@__crt_stdio_output@@V?$standard_base@_WV?$stream_output_adapter@_W@__crt_stdio_output@@@2@@__crt_stdio_output@@AEAA_NXZ 0000000140041194 f i libucrt:output.obj
 0001:000401d4       ?state_case_width@?$output_processor@_WV?$string_output_adapter@_W@__crt_stdio_output@@V?$format_validation_base@_WV?$string_output_adapter@_W@__crt_stdio_output@@@2@@__crt_stdio_output@@AEAA_NXZ 00000001400411d4 f i libucrt:output.obj
 0001:00040214       ?state_case_width@?$output_processor@_WV?$string_output_adapter@_W@__crt_stdio_output@@V?$positional_parameter_base@_WV?$string_output_adapter@_W@__crt_stdio_output@@@2@@__crt_stdio_output@@AEAA_NXZ 0000000140041214 f i libucrt:output.obj
 0001:0004027c       ?state_case_width@?$output_processor@_WV?$string_output_adapter@_W@__crt_stdio_output@@V?$standard_base@_WV?$string_output_adapter@_W@__crt_stdio_output@@@2@@__crt_stdio_output@@AEAA_NXZ 000000014004127c f i libucrt:output.obj
 0001:000402bc       ?state_count@?$format_validation_base@DV?$stream_output_adapter@D@__crt_stdio_output@@@__crt_stdio_output@@KAIXZ 00000001400412bc f i libucrt:output.obj
 0001:000402c4       ?state_count@?$format_validation_base@DV?$string_output_adapter@D@__crt_stdio_output@@@__crt_stdio_output@@KAIXZ 00000001400412c4 f i libucrt:output.obj
 0001:000402cc       ?state_count@?$format_validation_base@_WV?$stream_output_adapter@_W@__crt_stdio_output@@@__crt_stdio_output@@KAIXZ 00000001400412cc f i libucrt:output.obj
 0001:000402d4       ?state_count@?$format_validation_base@_WV?$string_output_adapter@_W@__crt_stdio_output@@@__crt_stdio_output@@KAIXZ 00000001400412d4 f i libucrt:output.obj
 0001:000402dc       ?state_count@?$standard_base@DV?$stream_output_adapter@D@__crt_stdio_output@@@__crt_stdio_output@@KAIXZ 00000001400412dc f i libucrt:output.obj
 0001:000402e4       ?state_count@?$standard_base@DV?$string_output_adapter@D@__crt_stdio_output@@@__crt_stdio_output@@KAIXZ 00000001400412e4 f i libucrt:output.obj
 0001:000402ec       ?state_count@?$standard_base@_WV?$stream_output_adapter@_W@__crt_stdio_output@@@__crt_stdio_output@@KAIXZ 00000001400412ec f i libucrt:output.obj
 0001:000402f4       ?state_count@?$standard_base@_WV?$string_output_adapter@_W@__crt_stdio_output@@@__crt_stdio_output@@KAIXZ 00000001400412f4 f i libucrt:output.obj
 0001:000402fc       ?state_transition_table@?$format_validation_base@DV?$stream_output_adapter@D@__crt_stdio_output@@@__crt_stdio_output@@KAAEBV?$spectre_mitigated_lookup_table@Ustate_transition_pair@__crt_stdio_output@@$0IA@@2@XZ 00000001400412fc f i libucrt:output.obj
 0001:00040308       ?state_transition_table@?$format_validation_base@DV?$string_output_adapter@D@__crt_stdio_output@@@__crt_stdio_output@@KAAEBV?$spectre_mitigated_lookup_table@Ustate_transition_pair@__crt_stdio_output@@$0IA@@2@XZ 0000000140041308 f i libucrt:output.obj
 0001:00040314       ?state_transition_table@?$format_validation_base@_WV?$stream_output_adapter@_W@__crt_stdio_output@@@__crt_stdio_output@@KAAEBV?$spectre_mitigated_lookup_table@Ustate_transition_pair@__crt_stdio_output@@$0IA@@2@XZ 0000000140041314 f i libucrt:output.obj
 0001:00040320       ?state_transition_table@?$format_validation_base@_WV?$string_output_adapter@_W@__crt_stdio_output@@@__crt_stdio_output@@KAAEBV?$spectre_mitigated_lookup_table@Ustate_transition_pair@__crt_stdio_output@@$0IA@@2@XZ 0000000140041320 f i libucrt:output.obj
 0001:0004032c       ?state_transition_table@?$standard_base@DV?$stream_output_adapter@D@__crt_stdio_output@@@__crt_stdio_output@@KAAEBV?$spectre_mitigated_lookup_table@Ustate_transition_pair@__crt_stdio_output@@$0IA@@2@XZ 000000014004132c f i libucrt:output.obj
 0001:00040338       ?state_transition_table@?$standard_base@DV?$string_output_adapter@D@__crt_stdio_output@@@__crt_stdio_output@@KAAEBV?$spectre_mitigated_lookup_table@Ustate_transition_pair@__crt_stdio_output@@$0IA@@2@XZ 0000000140041338 f i libucrt:output.obj
 0001:00040344       ?state_transition_table@?$standard_base@_WV?$stream_output_adapter@_W@__crt_stdio_output@@@__crt_stdio_output@@KAAEBV?$spectre_mitigated_lookup_table@Ustate_transition_pair@__crt_stdio_output@@$0IA@@2@XZ 0000000140041344 f i libucrt:output.obj
 0001:00040350       ?state_transition_table@?$standard_base@_WV?$string_output_adapter@_W@__crt_stdio_output@@@__crt_stdio_output@@KAAEBV?$spectre_mitigated_lookup_table@Ustate_transition_pair@__crt_stdio_output@@$0IA@@2@XZ 0000000140041350 f i libucrt:output.obj
 0001:0004035c       ?tchar_string@?$common_data@D@__crt_stdio_output@@IEAAAEAPEADD@Z 000000014004135c f i libucrt:output.obj
 0001:00040364       ?tchar_string@?$common_data@D@__crt_stdio_output@@IEAAAEAPEADXZ 0000000140041364 f i libucrt:output.obj
 0001:0004036c       ?tchar_string@?$common_data@_W@__crt_stdio_output@@IEAAAEAPEA_WXZ 000000014004136c f i libucrt:output.obj
 0001:00040374       ?tchar_string@?$common_data@_W@__crt_stdio_output@@IEAAAEAPEA_W_W@Z 0000000140041374 f i libucrt:output.obj
 0001:0004037c       ?to_integer_size@__crt_stdio_output@@YA_KW4length_modifier@1@@Z 000000014004137c f i libucrt:output.obj
 0001:000403d4       ?type_case_X@?$output_processor@DV?$stream_output_adapter@D@__crt_stdio_output@@V?$format_validation_base@DV?$stream_output_adapter@D@__crt_stdio_output@@@2@@__crt_stdio_output@@AEAA_NXZ 00000001400413d4 f i libucrt:output.obj
 0001:000403dc       ?type_case_X@?$output_processor@DV?$stream_output_adapter@D@__crt_stdio_output@@V?$positional_parameter_base@DV?$stream_output_adapter@D@__crt_stdio_output@@@2@@__crt_stdio_output@@AEAA_NXZ 00000001400413dc f i libucrt:output.obj
 0001:000403e4       ?type_case_X@?$output_processor@DV?$stream_output_adapter@D@__crt_stdio_output@@V?$standard_base@DV?$stream_output_adapter@D@__crt_stdio_output@@@2@@__crt_stdio_output@@AEAA_NXZ 00000001400413e4 f i libucrt:output.obj
 0001:000403ec       ?type_case_X@?$output_processor@DV?$string_output_adapter@D@__crt_stdio_output@@V?$format_validation_base@DV?$string_output_adapter@D@__crt_stdio_output@@@2@@__crt_stdio_output@@AEAA_NXZ 00000001400413ec f i libucrt:output.obj
 0001:000403f4       ?type_case_X@?$output_processor@DV?$string_output_adapter@D@__crt_stdio_output@@V?$positional_parameter_base@DV?$string_output_adapter@D@__crt_stdio_output@@@2@@__crt_stdio_output@@AEAA_NXZ 00000001400413f4 f i libucrt:output.obj
 0001:000403fc       ?type_case_X@?$output_processor@DV?$string_output_adapter@D@__crt_stdio_output@@V?$standard_base@DV?$string_output_adapter@D@__crt_stdio_output@@@2@@__crt_stdio_output@@AEAA_NXZ 00000001400413fc f i libucrt:output.obj
 0001:00040404       ?type_case_X@?$output_processor@_WV?$stream_output_adapter@_W@__crt_stdio_output@@V?$format_validation_base@_WV?$stream_output_adapter@_W@__crt_stdio_output@@@2@@__crt_stdio_output@@AEAA_NXZ 0000000140041404 f i libucrt:output.obj
 0001:0004040c       ?type_case_X@?$output_processor@_WV?$stream_output_adapter@_W@__crt_stdio_output@@V?$positional_parameter_base@_WV?$stream_output_adapter@_W@__crt_stdio_output@@@2@@__crt_stdio_output@@AEAA_NXZ 000000014004140c f i libucrt:output.obj
 0001:00040414       ?type_case_X@?$output_processor@_WV?$stream_output_adapter@_W@__crt_stdio_output@@V?$standard_base@_WV?$stream_output_adapter@_W@__crt_stdio_output@@@2@@__crt_stdio_output@@AEAA_NXZ 0000000140041414 f i libucrt:output.obj
 0001:0004041c       ?type_case_X@?$output_processor@_WV?$string_output_adapter@_W@__crt_stdio_output@@V?$format_validation_base@_WV?$string_output_adapter@_W@__crt_stdio_output@@@2@@__crt_stdio_output@@AEAA_NXZ 000000014004141c f i libucrt:output.obj
 0001:00040424       ?type_case_X@?$output_processor@_WV?$string_output_adapter@_W@__crt_stdio_output@@V?$positional_parameter_base@_WV?$string_output_adapter@_W@__crt_stdio_output@@@2@@__crt_stdio_output@@AEAA_NXZ 0000000140041424 f i libucrt:output.obj
 0001:0004042c       ?type_case_X@?$output_processor@_WV?$string_output_adapter@_W@__crt_stdio_output@@V?$standard_base@_WV?$string_output_adapter@_W@__crt_stdio_output@@@2@@__crt_stdio_output@@AEAA_NXZ 000000014004142c f i libucrt:output.obj
 0001:00040434       ?type_case_Z@?$output_processor@DV?$stream_output_adapter@D@__crt_stdio_output@@V?$format_validation_base@DV?$stream_output_adapter@D@__crt_stdio_output@@@2@@__crt_stdio_output@@AEAA_NXZ 0000000140041434 f i libucrt:output.obj
 0001:000404d0       ?type_case_Z@?$output_processor@DV?$stream_output_adapter@D@__crt_stdio_output@@V?$positional_parameter_base@DV?$stream_output_adapter@D@__crt_stdio_output@@@2@@__crt_stdio_output@@AEAA_NXZ 00000001400414d0 f i libucrt:output.obj
 0001:000405a0       ?type_case_Z@?$output_processor@DV?$stream_output_adapter@D@__crt_stdio_output@@V?$standard_base@DV?$stream_output_adapter@D@__crt_stdio_output@@@2@@__crt_stdio_output@@AEAA_NXZ 00000001400415a0 f i libucrt:output.obj
 0001:0004063c       ?type_case_Z@?$output_processor@DV?$string_output_adapter@D@__crt_stdio_output@@V?$format_validation_base@DV?$string_output_adapter@D@__crt_stdio_output@@@2@@__crt_stdio_output@@AEAA_NXZ 000000014004163c f i libucrt:output.obj
 0001:000406d8       ?type_case_Z@?$output_processor@DV?$string_output_adapter@D@__crt_stdio_output@@V?$positional_parameter_base@DV?$string_output_adapter@D@__crt_stdio_output@@@2@@__crt_stdio_output@@AEAA_NXZ 00000001400416d8 f i libucrt:output.obj
 0001:000407a8       ?type_case_Z@?$output_processor@DV?$string_output_adapter@D@__crt_stdio_output@@V?$standard_base@DV?$string_output_adapter@D@__crt_stdio_output@@@2@@__crt_stdio_output@@AEAA_NXZ 00000001400417a8 f i libucrt:output.obj
 0001:00040844       ?type_case_Z@?$output_processor@_WV?$stream_output_adapter@_W@__crt_stdio_output@@V?$format_validation_base@_WV?$stream_output_adapter@_W@__crt_stdio_output@@@2@@__crt_stdio_output@@AEAA_NXZ 0000000140041844 f i libucrt:output.obj
 0001:000408e0       ?type_case_Z@?$output_processor@_WV?$stream_output_adapter@_W@__crt_stdio_output@@V?$positional_parameter_base@_WV?$stream_output_adapter@_W@__crt_stdio_output@@@2@@__crt_stdio_output@@AEAA_NXZ 00000001400418e0 f i libucrt:output.obj
 0001:0004099c       ?type_case_Z@?$output_processor@_WV?$stream_output_adapter@_W@__crt_stdio_output@@V?$standard_base@_WV?$stream_output_adapter@_W@__crt_stdio_output@@@2@@__crt_stdio_output@@AEAA_NXZ 000000014004199c f i libucrt:output.obj
 0001:00040a38       ?type_case_Z@?$output_processor@_WV?$string_output_adapter@_W@__crt_stdio_output@@V?$format_validation_base@_WV?$string_output_adapter@_W@__crt_stdio_output@@@2@@__crt_stdio_output@@AEAA_NXZ 0000000140041a38 f i libucrt:output.obj
 0001:00040ad4       ?type_case_Z@?$output_processor@_WV?$string_output_adapter@_W@__crt_stdio_output@@V?$positional_parameter_base@_WV?$string_output_adapter@_W@__crt_stdio_output@@@2@@__crt_stdio_output@@AEAA_NXZ 0000000140041ad4 f i libucrt:output.obj
 0001:00040b90       ?type_case_Z@?$output_processor@_WV?$string_output_adapter@_W@__crt_stdio_output@@V?$standard_base@_WV?$string_output_adapter@_W@__crt_stdio_output@@@2@@__crt_stdio_output@@AEAA_NXZ 0000000140041b90 f i libucrt:output.obj
 0001:00040c2c       ?type_case_a@?$output_processor@DV?$stream_output_adapter@D@__crt_stdio_output@@V?$format_validation_base@DV?$stream_output_adapter@D@__crt_stdio_output@@@2@@__crt_stdio_output@@AEAA_NXZ 0000000140041c2c f i libucrt:output.obj
 0001:00040f14       ?type_case_a@?$output_processor@DV?$stream_output_adapter@D@__crt_stdio_output@@V?$positional_parameter_base@DV?$stream_output_adapter@D@__crt_stdio_output@@@2@@__crt_stdio_output@@AEAA_NXZ 0000000140041f14 f i libucrt:output.obj
 0001:00041230       ?type_case_a@?$output_processor@DV?$stream_output_adapter@D@__crt_stdio_output@@V?$standard_base@DV?$stream_output_adapter@D@__crt_stdio_output@@@2@@__crt_stdio_output@@AEAA_NXZ 0000000140042230 f i libucrt:output.obj
 0001:00041518       ?type_case_a@?$output_processor@DV?$string_output_adapter@D@__crt_stdio_output@@V?$format_validation_base@DV?$string_output_adapter@D@__crt_stdio_output@@@2@@__crt_stdio_output@@AEAA_NXZ 0000000140042518 f i libucrt:output.obj
 0001:00041800       ?type_case_a@?$output_processor@DV?$string_output_adapter@D@__crt_stdio_output@@V?$positional_parameter_base@DV?$string_output_adapter@D@__crt_stdio_output@@@2@@__crt_stdio_output@@AEAA_NXZ 0000000140042800 f i libucrt:output.obj
 0001:00041b1c       ?type_case_a@?$output_processor@DV?$string_output_adapter@D@__crt_stdio_output@@V?$standard_base@DV?$string_output_adapter@D@__crt_stdio_output@@@2@@__crt_stdio_output@@AEAA_NXZ 0000000140042b1c f i libucrt:output.obj
 0001:00041e04       ?type_case_a@?$output_processor@_WV?$stream_output_adapter@_W@__crt_stdio_output@@V?$format_validation_base@_WV?$stream_output_adapter@_W@__crt_stdio_output@@@2@@__crt_stdio_output@@AEAA_NXZ 0000000140042e04 f i libucrt:output.obj
 0001:00042104       ?type_case_a@?$output_processor@_WV?$stream_output_adapter@_W@__crt_stdio_output@@V?$positional_parameter_base@_WV?$stream_output_adapter@_W@__crt_stdio_output@@@2@@__crt_stdio_output@@AEAA_NXZ 0000000140043104 f i libucrt:output.obj
 0001:0004243c       ?type_case_a@?$output_processor@_WV?$stream_output_adapter@_W@__crt_stdio_output@@V?$standard_base@_WV?$stream_output_adapter@_W@__crt_stdio_output@@@2@@__crt_stdio_output@@AEAA_NXZ 000000014004343c f i libucrt:output.obj
 0001:0004273c       ?type_case_a@?$output_processor@_WV?$string_output_adapter@_W@__crt_stdio_output@@V?$format_validation_base@_WV?$string_output_adapter@_W@__crt_stdio_output@@@2@@__crt_stdio_output@@AEAA_NXZ 000000014004373c f i libucrt:output.obj
 0001:00042a3c       ?type_case_a@?$output_processor@_WV?$string_output_adapter@_W@__crt_stdio_output@@V?$positional_parameter_base@_WV?$string_output_adapter@_W@__crt_stdio_output@@@2@@__crt_stdio_output@@AEAA_NXZ 0000000140043a3c f i libucrt:output.obj
 0001:00042d74       ?type_case_a@?$output_processor@_WV?$string_output_adapter@_W@__crt_stdio_output@@V?$standard_base@_WV?$string_output_adapter@_W@__crt_stdio_output@@@2@@__crt_stdio_output@@AEAA_NXZ 0000000140043d74 f i libucrt:output.obj
 0001:00043074       ?type_case_c@?$output_processor@DV?$stream_output_adapter@D@__crt_stdio_output@@V?$format_validation_base@DV?$stream_output_adapter@D@__crt_stdio_output@@@2@@__crt_stdio_output@@AEAA_NXZ 0000000140044074 f i libucrt:output.obj
 0001:0004307c       ?type_case_c@?$output_processor@DV?$stream_output_adapter@D@__crt_stdio_output@@V?$positional_parameter_base@DV?$stream_output_adapter@D@__crt_stdio_output@@@2@@__crt_stdio_output@@AEAA_NXZ 000000014004407c f i libucrt:output.obj
 0001:00043084       ?type_case_c@?$output_processor@DV?$stream_output_adapter@D@__crt_stdio_output@@V?$standard_base@DV?$stream_output_adapter@D@__crt_stdio_output@@@2@@__crt_stdio_output@@AEAA_NXZ 0000000140044084 f i libucrt:output.obj
 0001:0004308c       ?type_case_c@?$output_processor@DV?$string_output_adapter@D@__crt_stdio_output@@V?$format_validation_base@DV?$string_output_adapter@D@__crt_stdio_output@@@2@@__crt_stdio_output@@AEAA_NXZ 000000014004408c f i libucrt:output.obj
 0001:00043094       ?type_case_c@?$output_processor@DV?$string_output_adapter@D@__crt_stdio_output@@V?$positional_parameter_base@DV?$string_output_adapter@D@__crt_stdio_output@@@2@@__crt_stdio_output@@AEAA_NXZ 0000000140044094 f i libucrt:output.obj
 0001:0004309c       ?type_case_c@?$output_processor@DV?$string_output_adapter@D@__crt_stdio_output@@V?$standard_base@DV?$string_output_adapter@D@__crt_stdio_output@@@2@@__crt_stdio_output@@AEAA_NXZ 000000014004409c f i libucrt:output.obj
 0001:000430a4       ?type_case_c@?$output_processor@_WV?$stream_output_adapter@_W@__crt_stdio_output@@V?$format_validation_base@_WV?$stream_output_adapter@_W@__crt_stdio_output@@@2@@__crt_stdio_output@@AEAA_NXZ 00000001400440a4 f i libucrt:output.obj
 0001:000430ac       ?type_case_c@?$output_processor@_WV?$stream_output_adapter@_W@__crt_stdio_output@@V?$positional_parameter_base@_WV?$stream_output_adapter@_W@__crt_stdio_output@@@2@@__crt_stdio_output@@AEAA_NXZ 00000001400440ac f i libucrt:output.obj
 0001:000430b4       ?type_case_c@?$output_processor@_WV?$stream_output_adapter@_W@__crt_stdio_output@@V?$standard_base@_WV?$stream_output_adapter@_W@__crt_stdio_output@@@2@@__crt_stdio_output@@AEAA_NXZ 00000001400440b4 f i libucrt:output.obj
 0001:000430bc       ?type_case_c@?$output_processor@_WV?$string_output_adapter@_W@__crt_stdio_output@@V?$format_validation_base@_WV?$string_output_adapter@_W@__crt_stdio_output@@@2@@__crt_stdio_output@@AEAA_NXZ 00000001400440bc f i libucrt:output.obj
 0001:000430c4       ?type_case_c@?$output_processor@_WV?$string_output_adapter@_W@__crt_stdio_output@@V?$positional_parameter_base@_WV?$string_output_adapter@_W@__crt_stdio_output@@@2@@__crt_stdio_output@@AEAA_NXZ 00000001400440c4 f i libucrt:output.obj
 0001:000430cc       ?type_case_c@?$output_processor@_WV?$string_output_adapter@_W@__crt_stdio_output@@V?$standard_base@_WV?$string_output_adapter@_W@__crt_stdio_output@@@2@@__crt_stdio_output@@AEAA_NXZ 00000001400440cc f i libucrt:output.obj
 0001:000430d4       ?type_case_c_tchar@?$output_processor@DV?$stream_output_adapter@D@__crt_stdio_output@@V?$format_validation_base@DV?$stream_output_adapter@D@__crt_stdio_output@@@2@@__crt_stdio_output@@AEAA_ND@Z 00000001400440d4 f i libucrt:output.obj
 0001:000431dc       ?type_case_c_tchar@?$output_processor@DV?$stream_output_adapter@D@__crt_stdio_output@@V?$positional_parameter_base@DV?$stream_output_adapter@D@__crt_stdio_output@@@2@@__crt_stdio_output@@AEAA_ND@Z 00000001400441dc f i libucrt:output.obj
 0001:0004333c       ?type_case_c_tchar@?$output_processor@DV?$stream_output_adapter@D@__crt_stdio_output@@V?$standard_base@DV?$stream_output_adapter@D@__crt_stdio_output@@@2@@__crt_stdio_output@@AEAA_ND@Z 000000014004433c f i libucrt:output.obj
 0001:00043444       ?type_case_c_tchar@?$output_processor@DV?$string_output_adapter@D@__crt_stdio_output@@V?$format_validation_base@DV?$string_output_adapter@D@__crt_stdio_output@@@2@@__crt_stdio_output@@AEAA_ND@Z 0000000140044444 f i libucrt:output.obj
 0001:0004354c       ?type_case_c_tchar@?$output_processor@DV?$string_output_adapter@D@__crt_stdio_output@@V?$positional_parameter_base@DV?$string_output_adapter@D@__crt_stdio_output@@@2@@__crt_stdio_output@@AEAA_ND@Z 000000014004454c f i libucrt:output.obj
 0001:000436ac       ?type_case_c_tchar@?$output_processor@DV?$string_output_adapter@D@__crt_stdio_output@@V?$standard_base@DV?$string_output_adapter@D@__crt_stdio_output@@@2@@__crt_stdio_output@@AEAA_ND@Z 00000001400446ac f i libucrt:output.obj
 0001:000437b4       ?type_case_c_tchar@?$output_processor@_WV?$stream_output_adapter@_W@__crt_stdio_output@@V?$format_validation_base@_WV?$stream_output_adapter@_W@__crt_stdio_output@@@2@@__crt_stdio_output@@AEAA_N_W@Z 00000001400447b4 f i libucrt:output.obj
 0001:000438ac       ?type_case_c_tchar@?$output_processor@_WV?$stream_output_adapter@_W@__crt_stdio_output@@V?$positional_parameter_base@_WV?$stream_output_adapter@_W@__crt_stdio_output@@@2@@__crt_stdio_output@@AEAA_N_W@Z 00000001400448ac f i libucrt:output.obj
 0001:000439e0       ?type_case_c_tchar@?$output_processor@_WV?$stream_output_adapter@_W@__crt_stdio_output@@V?$standard_base@_WV?$stream_output_adapter@_W@__crt_stdio_output@@@2@@__crt_stdio_output@@AEAA_N_W@Z 00000001400449e0 f i libucrt:output.obj
 0001:00043ad8       ?type_case_c_tchar@?$output_processor@_WV?$string_output_adapter@_W@__crt_stdio_output@@V?$format_validation_base@_WV?$string_output_adapter@_W@__crt_stdio_output@@@2@@__crt_stdio_output@@AEAA_N_W@Z 0000000140044ad8 f i libucrt:output.obj
 0001:00043bd0       ?type_case_c_tchar@?$output_processor@_WV?$string_output_adapter@_W@__crt_stdio_output@@V?$positional_parameter_base@_WV?$string_output_adapter@_W@__crt_stdio_output@@@2@@__crt_stdio_output@@AEAA_N_W@Z 0000000140044bd0 f i libucrt:output.obj
 0001:00043d04       ?type_case_c_tchar@?$output_processor@_WV?$string_output_adapter@_W@__crt_stdio_output@@V?$standard_base@_WV?$string_output_adapter@_W@__crt_stdio_output@@@2@@__crt_stdio_output@@AEAA_N_W@Z 0000000140044d04 f i libucrt:output.obj
 0001:00043dfc       ?type_case_d@?$output_processor@DV?$stream_output_adapter@D@__crt_stdio_output@@V?$format_validation_base@DV?$stream_output_adapter@D@__crt_stdio_output@@@2@@__crt_stdio_output@@AEAA_NXZ 0000000140044dfc f i libucrt:output.obj
 0001:00043e0c       ?type_case_d@?$output_processor@DV?$stream_output_adapter@D@__crt_stdio_output@@V?$positional_parameter_base@DV?$stream_output_adapter@D@__crt_stdio_output@@@2@@__crt_stdio_output@@AEAA_NXZ 0000000140044e0c f i libucrt:output.obj
 0001:00043e1c       ?type_case_d@?$output_processor@DV?$stream_output_adapter@D@__crt_stdio_output@@V?$standard_base@DV?$stream_output_adapter@D@__crt_stdio_output@@@2@@__crt_stdio_output@@AEAA_NXZ 0000000140044e1c f i libucrt:output.obj
 0001:00043e2c       ?type_case_d@?$output_processor@DV?$string_output_adapter@D@__crt_stdio_output@@V?$format_validation_base@DV?$string_output_adapter@D@__crt_stdio_output@@@2@@__crt_stdio_output@@AEAA_NXZ 0000000140044e2c f i libucrt:output.obj
 0001:00043e3c       ?type_case_d@?$output_processor@DV?$string_output_adapter@D@__crt_stdio_output@@V?$positional_parameter_base@DV?$string_output_adapter@D@__crt_stdio_output@@@2@@__crt_stdio_output@@AEAA_NXZ 0000000140044e3c f i libucrt:output.obj
 0001:00043e4c       ?type_case_d@?$output_processor@DV?$string_output_adapter@D@__crt_stdio_output@@V?$standard_base@DV?$string_output_adapter@D@__crt_stdio_output@@@2@@__crt_stdio_output@@AEAA_NXZ 0000000140044e4c f i libucrt:output.obj
 0001:00043e5c       ?type_case_d@?$output_processor@_WV?$stream_output_adapter@_W@__crt_stdio_output@@V?$format_validation_base@_WV?$stream_output_adapter@_W@__crt_stdio_output@@@2@@__crt_stdio_output@@AEAA_NXZ 0000000140044e5c f i libucrt:output.obj
 0001:00043e6c       ?type_case_d@?$output_processor@_WV?$stream_output_adapter@_W@__crt_stdio_output@@V?$positional_parameter_base@_WV?$stream_output_adapter@_W@__crt_stdio_output@@@2@@__crt_stdio_output@@AEAA_NXZ 0000000140044e6c f i libucrt:output.obj
 0001:00043e7c       ?type_case_d@?$output_processor@_WV?$stream_output_adapter@_W@__crt_stdio_output@@V?$standard_base@_WV?$stream_output_adapter@_W@__crt_stdio_output@@@2@@__crt_stdio_output@@AEAA_NXZ 0000000140044e7c f i libucrt:output.obj
 0001:00043e8c       ?type_case_d@?$output_processor@_WV?$string_output_adapter@_W@__crt_stdio_output@@V?$format_validation_base@_WV?$string_output_adapter@_W@__crt_stdio_output@@@2@@__crt_stdio_output@@AEAA_NXZ 0000000140044e8c f i libucrt:output.obj
 0001:00043e9c       ?type_case_d@?$output_processor@_WV?$string_output_adapter@_W@__crt_stdio_output@@V?$positional_parameter_base@_WV?$string_output_adapter@_W@__crt_stdio_output@@@2@@__crt_stdio_output@@AEAA_NXZ 0000000140044e9c f i libucrt:output.obj
 0001:00043eac       ?type_case_d@?$output_processor@_WV?$string_output_adapter@_W@__crt_stdio_output@@V?$standard_base@_WV?$string_output_adapter@_W@__crt_stdio_output@@@2@@__crt_stdio_output@@AEAA_NXZ 0000000140044eac f i libucrt:output.obj
 0001:00043ebc       ?type_case_n@?$output_processor@DV?$stream_output_adapter@D@__crt_stdio_output@@V?$format_validation_base@DV?$stream_output_adapter@D@__crt_stdio_output@@@2@@__crt_stdio_output@@AEAA_NXZ 0000000140044ebc f i libucrt:output.obj
 0001:00043fa0       ?type_case_n@?$output_processor@DV?$stream_output_adapter@D@__crt_stdio_output@@V?$positional_parameter_base@DV?$stream_output_adapter@D@__crt_stdio_output@@@2@@__crt_stdio_output@@AEAA_NXZ 0000000140044fa0 f i libucrt:output.obj
 0001:000440bc       ?type_case_n@?$output_processor@DV?$stream_output_adapter@D@__crt_stdio_output@@V?$standard_base@DV?$stream_output_adapter@D@__crt_stdio_output@@@2@@__crt_stdio_output@@AEAA_NXZ 00000001400450bc f i libucrt:output.obj
 0001:000441a0       ?type_case_n@?$output_processor@DV?$string_output_adapter@D@__crt_stdio_output@@V?$format_validation_base@DV?$string_output_adapter@D@__crt_stdio_output@@@2@@__crt_stdio_output@@AEAA_NXZ 00000001400451a0 f i libucrt:output.obj
 0001:00044284       ?type_case_n@?$output_processor@DV?$string_output_adapter@D@__crt_stdio_output@@V?$positional_parameter_base@DV?$string_output_adapter@D@__crt_stdio_output@@@2@@__crt_stdio_output@@AEAA_NXZ 0000000140045284 f i libucrt:output.obj
 0001:000443a0       ?type_case_n@?$output_processor@DV?$string_output_adapter@D@__crt_stdio_output@@V?$standard_base@DV?$string_output_adapter@D@__crt_stdio_output@@@2@@__crt_stdio_output@@AEAA_NXZ 00000001400453a0 f i libucrt:output.obj
 0001:00044484       ?type_case_n@?$output_processor@_WV?$stream_output_adapter@_W@__crt_stdio_output@@V?$format_validation_base@_WV?$stream_output_adapter@_W@__crt_stdio_output@@@2@@__crt_stdio_output@@AEAA_NXZ 0000000140045484 f i libucrt:output.obj
 0001:00044568       ?type_case_n@?$output_processor@_WV?$stream_output_adapter@_W@__crt_stdio_output@@V?$positional_parameter_base@_WV?$stream_output_adapter@_W@__crt_stdio_output@@@2@@__crt_stdio_output@@AEAA_NXZ 0000000140045568 f i libucrt:output.obj
 0001:00044684       ?type_case_n@?$output_processor@_WV?$stream_output_adapter@_W@__crt_stdio_output@@V?$standard_base@_WV?$stream_output_adapter@_W@__crt_stdio_output@@@2@@__crt_stdio_output@@AEAA_NXZ 0000000140045684 f i libucrt:output.obj
 0001:00044768       ?type_case_n@?$output_processor@_WV?$string_output_adapter@_W@__crt_stdio_output@@V?$format_validation_base@_WV?$string_output_adapter@_W@__crt_stdio_output@@@2@@__crt_stdio_output@@AEAA_NXZ 0000000140045768 f i libucrt:output.obj
 0001:0004484c       ?type_case_n@?$output_processor@_WV?$string_output_adapter@_W@__crt_stdio_output@@V?$positional_parameter_base@_WV?$string_output_adapter@_W@__crt_stdio_output@@@2@@__crt_stdio_output@@AEAA_NXZ 000000014004584c f i libucrt:output.obj
 0001:00044968       ?type_case_n@?$output_processor@_WV?$string_output_adapter@_W@__crt_stdio_output@@V?$standard_base@_WV?$string_output_adapter@_W@__crt_stdio_output@@@2@@__crt_stdio_output@@AEAA_NXZ 0000000140045968 f i libucrt:output.obj
 0001:00044a4c       ?type_case_o@?$output_processor@DV?$stream_output_adapter@D@__crt_stdio_output@@V?$format_validation_base@DV?$stream_output_adapter@D@__crt_stdio_output@@@2@@__crt_stdio_output@@AEAA_NXZ 0000000140045a4c f i libucrt:output.obj
 0001:00044a6c       ?type_case_o@?$output_processor@DV?$stream_output_adapter@D@__crt_stdio_output@@V?$positional_parameter_base@DV?$stream_output_adapter@D@__crt_stdio_output@@@2@@__crt_stdio_output@@AEAA_NXZ 0000000140045a6c f i libucrt:output.obj
 0001:00044a8c       ?type_case_o@?$output_processor@DV?$stream_output_adapter@D@__crt_stdio_output@@V?$standard_base@DV?$stream_output_adapter@D@__crt_stdio_output@@@2@@__crt_stdio_output@@AEAA_NXZ 0000000140045a8c f i libucrt:output.obj
 0001:00044aac       ?type_case_o@?$output_processor@DV?$string_output_adapter@D@__crt_stdio_output@@V?$format_validation_base@DV?$string_output_adapter@D@__crt_stdio_output@@@2@@__crt_stdio_output@@AEAA_NXZ 0000000140045aac f i libucrt:output.obj
 0001:00044acc       ?type_case_o@?$output_processor@DV?$string_output_adapter@D@__crt_stdio_output@@V?$positional_parameter_base@DV?$string_output_adapter@D@__crt_stdio_output@@@2@@__crt_stdio_output@@AEAA_NXZ 0000000140045acc f i libucrt:output.obj
 0001:00044aec       ?type_case_o@?$output_processor@DV?$string_output_adapter@D@__crt_stdio_output@@V?$standard_base@DV?$string_output_adapter@D@__crt_stdio_output@@@2@@__crt_stdio_output@@AEAA_NXZ 0000000140045aec f i libucrt:output.obj
 0001:00044b0c       ?type_case_o@?$output_processor@_WV?$stream_output_adapter@_W@__crt_stdio_output@@V?$format_validation_base@_WV?$stream_output_adapter@_W@__crt_stdio_output@@@2@@__crt_stdio_output@@AEAA_NXZ 0000000140045b0c f i libucrt:output.obj
 0001:00044b2c       ?type_case_o@?$output_processor@_WV?$stream_output_adapter@_W@__crt_stdio_output@@V?$positional_parameter_base@_WV?$stream_output_adapter@_W@__crt_stdio_output@@@2@@__crt_stdio_output@@AEAA_NXZ 0000000140045b2c f i libucrt:output.obj
 0001:00044b4c       ?type_case_o@?$output_processor@_WV?$stream_output_adapter@_W@__crt_stdio_output@@V?$standard_base@_WV?$stream_output_adapter@_W@__crt_stdio_output@@@2@@__crt_stdio_output@@AEAA_NXZ 0000000140045b4c f i libucrt:output.obj
 0001:00044b6c       ?type_case_o@?$output_processor@_WV?$string_output_adapter@_W@__crt_stdio_output@@V?$format_validation_base@_WV?$string_output_adapter@_W@__crt_stdio_output@@@2@@__crt_stdio_output@@AEAA_NXZ 0000000140045b6c f i libucrt:output.obj
 0001:00044b8c       ?type_case_o@?$output_processor@_WV?$string_output_adapter@_W@__crt_stdio_output@@V?$positional_parameter_base@_WV?$string_output_adapter@_W@__crt_stdio_output@@@2@@__crt_stdio_output@@AEAA_NXZ 0000000140045b8c f i libucrt:output.obj
 0001:00044bac       ?type_case_o@?$output_processor@_WV?$string_output_adapter@_W@__crt_stdio_output@@V?$standard_base@_WV?$string_output_adapter@_W@__crt_stdio_output@@@2@@__crt_stdio_output@@AEAA_NXZ 0000000140045bac f i libucrt:output.obj
 0001:00044bcc       ?type_case_p@?$output_processor@DV?$stream_output_adapter@D@__crt_stdio_output@@V?$format_validation_base@DV?$stream_output_adapter@D@__crt_stdio_output@@@2@@__crt_stdio_output@@AEAA_NXZ 0000000140045bcc f i libucrt:output.obj
 0001:00044be8       ?type_case_p@?$output_processor@DV?$stream_output_adapter@D@__crt_stdio_output@@V?$positional_parameter_base@DV?$stream_output_adapter@D@__crt_stdio_output@@@2@@__crt_stdio_output@@AEAA_NXZ 0000000140045be8 f i libucrt:output.obj
 0001:00044c04       ?type_case_p@?$output_processor@DV?$stream_output_adapter@D@__crt_stdio_output@@V?$standard_base@DV?$stream_output_adapter@D@__crt_stdio_output@@@2@@__crt_stdio_output@@AEAA_NXZ 0000000140045c04 f i libucrt:output.obj
 0001:00044c20       ?type_case_p@?$output_processor@DV?$string_output_adapter@D@__crt_stdio_output@@V?$format_validation_base@DV?$string_output_adapter@D@__crt_stdio_output@@@2@@__crt_stdio_output@@AEAA_NXZ 0000000140045c20 f i libucrt:output.obj
 0001:00044c3c       ?type_case_p@?$output_processor@DV?$string_output_adapter@D@__crt_stdio_output@@V?$positional_parameter_base@DV?$string_output_adapter@D@__crt_stdio_output@@@2@@__crt_stdio_output@@AEAA_NXZ 0000000140045c3c f i libucrt:output.obj
 0001:00044c58       ?type_case_p@?$output_processor@DV?$string_output_adapter@D@__crt_stdio_output@@V?$standard_base@DV?$string_output_adapter@D@__crt_stdio_output@@@2@@__crt_stdio_output@@AEAA_NXZ 0000000140045c58 f i libucrt:output.obj
 0001:00044c74       ?type_case_p@?$output_processor@_WV?$stream_output_adapter@_W@__crt_stdio_output@@V?$format_validation_base@_WV?$stream_output_adapter@_W@__crt_stdio_output@@@2@@__crt_stdio_output@@AEAA_NXZ 0000000140045c74 f i libucrt:output.obj
 0001:00044c90       ?type_case_p@?$output_processor@_WV?$stream_output_adapter@_W@__crt_stdio_output@@V?$positional_parameter_base@_WV?$stream_output_adapter@_W@__crt_stdio_output@@@2@@__crt_stdio_output@@AEAA_NXZ 0000000140045c90 f i libucrt:output.obj
 0001:00044cac       ?type_case_p@?$output_processor@_WV?$stream_output_adapter@_W@__crt_stdio_output@@V?$standard_base@_WV?$stream_output_adapter@_W@__crt_stdio_output@@@2@@__crt_stdio_output@@AEAA_NXZ 0000000140045cac f i libucrt:output.obj
 0001:00044cc8       ?type_case_p@?$output_processor@_WV?$string_output_adapter@_W@__crt_stdio_output@@V?$format_validation_base@_WV?$string_output_adapter@_W@__crt_stdio_output@@@2@@__crt_stdio_output@@AEAA_NXZ 0000000140045cc8 f i libucrt:output.obj
 0001:00044ce4       ?type_case_p@?$output_processor@_WV?$string_output_adapter@_W@__crt_stdio_output@@V?$positional_parameter_base@_WV?$string_output_adapter@_W@__crt_stdio_output@@@2@@__crt_stdio_output@@AEAA_NXZ 0000000140045ce4 f i libucrt:output.obj
 0001:00044d00       ?type_case_p@?$output_processor@_WV?$string_output_adapter@_W@__crt_stdio_output@@V?$standard_base@_WV?$string_output_adapter@_W@__crt_stdio_output@@@2@@__crt_stdio_output@@AEAA_NXZ 0000000140045d00 f i libucrt:output.obj
 0001:00044d1c       ?type_case_s@?$output_processor@DV?$stream_output_adapter@D@__crt_stdio_output@@V?$format_validation_base@DV?$stream_output_adapter@D@__crt_stdio_output@@@2@@__crt_stdio_output@@AEAA_NXZ 0000000140045d1c f i libucrt:output.obj
 0001:00044ddc       ?type_case_s@?$output_processor@DV?$stream_output_adapter@D@__crt_stdio_output@@V?$positional_parameter_base@DV?$stream_output_adapter@D@__crt_stdio_output@@@2@@__crt_stdio_output@@AEAA_NXZ 0000000140045ddc f i libucrt:output.obj
 0001:00044ec8       ?type_case_s@?$output_processor@DV?$stream_output_adapter@D@__crt_stdio_output@@V?$standard_base@DV?$stream_output_adapter@D@__crt_stdio_output@@@2@@__crt_stdio_output@@AEAA_NXZ 0000000140045ec8 f i libucrt:output.obj
 0001:00044f88       ?type_case_s@?$output_processor@DV?$string_output_adapter@D@__crt_stdio_output@@V?$format_validation_base@DV?$string_output_adapter@D@__crt_stdio_output@@@2@@__crt_stdio_output@@AEAA_NXZ 0000000140045f88 f i libucrt:output.obj
 0001:00045048       ?type_case_s@?$output_processor@DV?$string_output_adapter@D@__crt_stdio_output@@V?$positional_parameter_base@DV?$string_output_adapter@D@__crt_stdio_output@@@2@@__crt_stdio_output@@AEAA_NXZ 0000000140046048 f i libucrt:output.obj
 0001:00045134       ?type_case_s@?$output_processor@DV?$string_output_adapter@D@__crt_stdio_output@@V?$standard_base@DV?$string_output_adapter@D@__crt_stdio_output@@@2@@__crt_stdio_output@@AEAA_NXZ 0000000140046134 f i libucrt:output.obj
 0001:000451f4       ?type_case_s@?$output_processor@_WV?$stream_output_adapter@_W@__crt_stdio_output@@V?$format_validation_base@_WV?$stream_output_adapter@_W@__crt_stdio_output@@@2@@__crt_stdio_output@@AEAA_NXZ 00000001400461f4 f i libucrt:output.obj
 0001:000452b8       ?type_case_s@?$output_processor@_WV?$stream_output_adapter@_W@__crt_stdio_output@@V?$positional_parameter_base@_WV?$stream_output_adapter@_W@__crt_stdio_output@@@2@@__crt_stdio_output@@AEAA_NXZ 00000001400462b8 f i libucrt:output.obj
 0001:0004539c       ?type_case_s@?$output_processor@_WV?$stream_output_adapter@_W@__crt_stdio_output@@V?$standard_base@_WV?$stream_output_adapter@_W@__crt_stdio_output@@@2@@__crt_stdio_output@@AEAA_NXZ 000000014004639c f i libucrt:output.obj
 0001:00045460       ?type_case_s@?$output_processor@_WV?$string_output_adapter@_W@__crt_stdio_output@@V?$format_validation_base@_WV?$string_output_adapter@_W@__crt_stdio_output@@@2@@__crt_stdio_output@@AEAA_NXZ 0000000140046460 f i libucrt:output.obj
 0001:00045524       ?type_case_s@?$output_processor@_WV?$string_output_adapter@_W@__crt_stdio_output@@V?$positional_parameter_base@_WV?$string_output_adapter@_W@__crt_stdio_output@@@2@@__crt_stdio_output@@AEAA_NXZ 0000000140046524 f i libucrt:output.obj
 0001:00045608       ?type_case_s@?$output_processor@_WV?$string_output_adapter@_W@__crt_stdio_output@@V?$standard_base@_WV?$string_output_adapter@_W@__crt_stdio_output@@@2@@__crt_stdio_output@@AEAA_NXZ 0000000140046608 f i libucrt:output.obj
 0001:000456cc       ?type_case_s_compute_narrow_string_length@?$output_processor@DV?$stream_output_adapter@D@__crt_stdio_output@@V?$format_validation_base@DV?$stream_output_adapter@D@__crt_stdio_output@@@2@@__crt_stdio_output@@AEAAHHD@Z 00000001400466cc f i libucrt:output.obj
 0001:000456dc       ?type_case_s_compute_narrow_string_length@?$output_processor@DV?$stream_output_adapter@D@__crt_stdio_output@@V?$positional_parameter_base@DV?$stream_output_adapter@D@__crt_stdio_output@@@2@@__crt_stdio_output@@AEAAHHD@Z 00000001400466dc f i libucrt:output.obj
 0001:000456ec       ?type_case_s_compute_narrow_string_length@?$output_processor@DV?$stream_output_adapter@D@__crt_stdio_output@@V?$standard_base@DV?$stream_output_adapter@D@__crt_stdio_output@@@2@@__crt_stdio_output@@AEAAHHD@Z 00000001400466ec f i libucrt:output.obj
 0001:000456fc       ?type_case_s_compute_narrow_string_length@?$output_processor@DV?$string_output_adapter@D@__crt_stdio_output@@V?$format_validation_base@DV?$string_output_adapter@D@__crt_stdio_output@@@2@@__crt_stdio_output@@AEAAHHD@Z 00000001400466fc f i libucrt:output.obj
 0001:0004570c       ?type_case_s_compute_narrow_string_length@?$output_processor@DV?$string_output_adapter@D@__crt_stdio_output@@V?$positional_parameter_base@DV?$string_output_adapter@D@__crt_stdio_output@@@2@@__crt_stdio_output@@AEAAHHD@Z 000000014004670c f i libucrt:output.obj
 0001:0004571c       ?type_case_s_compute_narrow_string_length@?$output_processor@DV?$string_output_adapter@D@__crt_stdio_output@@V?$standard_base@DV?$string_output_adapter@D@__crt_stdio_output@@@2@@__crt_stdio_output@@AEAAHHD@Z 000000014004671c f i libucrt:output.obj
 0001:0004572c       ?type_case_s_compute_narrow_string_length@?$output_processor@_WV?$stream_output_adapter@_W@__crt_stdio_output@@V?$format_validation_base@_WV?$stream_output_adapter@_W@__crt_stdio_output@@@2@@__crt_stdio_output@@AEAAHH_W@Z 000000014004672c f i libucrt:output.obj
 0001:000457bc       ?type_case_s_compute_narrow_string_length@?$output_processor@_WV?$stream_output_adapter@_W@__crt_stdio_output@@V?$positional_parameter_base@_WV?$stream_output_adapter@_W@__crt_stdio_output@@@2@@__crt_stdio_output@@AEAAHH_W@Z 00000001400467bc f i libucrt:output.obj
 0001:0004584c       ?type_case_s_compute_narrow_string_length@?$output_processor@_WV?$stream_output_adapter@_W@__crt_stdio_output@@V?$standard_base@_WV?$stream_output_adapter@_W@__crt_stdio_output@@@2@@__crt_stdio_output@@AEAAHH_W@Z 000000014004684c f i libucrt:output.obj
 0001:000458dc       ?type_case_s_compute_narrow_string_length@?$output_processor@_WV?$string_output_adapter@_W@__crt_stdio_output@@V?$format_validation_base@_WV?$string_output_adapter@_W@__crt_stdio_output@@@2@@__crt_stdio_output@@AEAAHH_W@Z 00000001400468dc f i libucrt:output.obj
 0001:0004596c       ?type_case_s_compute_narrow_string_length@?$output_processor@_WV?$string_output_adapter@_W@__crt_stdio_output@@V?$positional_parameter_base@_WV?$string_output_adapter@_W@__crt_stdio_output@@@2@@__crt_stdio_output@@AEAAHH_W@Z 000000014004696c f i libucrt:output.obj
 0001:000459fc       ?type_case_s_compute_narrow_string_length@?$output_processor@_WV?$string_output_adapter@_W@__crt_stdio_output@@V?$standard_base@_WV?$string_output_adapter@_W@__crt_stdio_output@@@2@@__crt_stdio_output@@AEAAHH_W@Z 00000001400469fc f i libucrt:output.obj
 0001:00045a8c       ?type_case_u@?$output_processor@DV?$stream_output_adapter@D@__crt_stdio_output@@V?$format_validation_base@DV?$stream_output_adapter@D@__crt_stdio_output@@@2@@__crt_stdio_output@@AEAA_NXZ 0000000140046a8c f i libucrt:output.obj
 0001:00045a94       ?type_case_u@?$output_processor@DV?$stream_output_adapter@D@__crt_stdio_output@@V?$positional_parameter_base@DV?$stream_output_adapter@D@__crt_stdio_output@@@2@@__crt_stdio_output@@AEAA_NXZ 0000000140046a94 f i libucrt:output.obj
 0001:00045a9c       ?type_case_u@?$output_processor@DV?$stream_output_adapter@D@__crt_stdio_output@@V?$standard_base@DV?$stream_output_adapter@D@__crt_stdio_output@@@2@@__crt_stdio_output@@AEAA_NXZ 0000000140046a9c f i libucrt:output.obj
 0001:00045aa4       ?type_case_u@?$output_processor@DV?$string_output_adapter@D@__crt_stdio_output@@V?$format_validation_base@DV?$string_output_adapter@D@__crt_stdio_output@@@2@@__crt_stdio_output@@AEAA_NXZ 0000000140046aa4 f i libucrt:output.obj
 0001:00045aac       ?type_case_u@?$output_processor@DV?$string_output_adapter@D@__crt_stdio_output@@V?$positional_parameter_base@DV?$string_output_adapter@D@__crt_stdio_output@@@2@@__crt_stdio_output@@AEAA_NXZ 0000000140046aac f i libucrt:output.obj
 0001:00045ab4       ?type_case_u@?$output_processor@DV?$string_output_adapter@D@__crt_stdio_output@@V?$standard_base@DV?$string_output_adapter@D@__crt_stdio_output@@@2@@__crt_stdio_output@@AEAA_NXZ 0000000140046ab4 f i libucrt:output.obj
 0001:00045abc       ?type_case_u@?$output_processor@_WV?$stream_output_adapter@_W@__crt_stdio_output@@V?$format_validation_base@_WV?$stream_output_adapter@_W@__crt_stdio_output@@@2@@__crt_stdio_output@@AEAA_NXZ 0000000140046abc f i libucrt:output.obj
 0001:00045ac4       ?type_case_u@?$output_processor@_WV?$stream_output_adapter@_W@__crt_stdio_output@@V?$positional_parameter_base@_WV?$stream_output_adapter@_W@__crt_stdio_output@@@2@@__crt_stdio_output@@AEAA_NXZ 0000000140046ac4 f i libucrt:output.obj
 0001:00045acc       ?type_case_u@?$output_processor@_WV?$stream_output_adapter@_W@__crt_stdio_output@@V?$standard_base@_WV?$stream_output_adapter@_W@__crt_stdio_output@@@2@@__crt_stdio_output@@AEAA_NXZ 0000000140046acc f i libucrt:output.obj
 0001:00045ad4       ?type_case_u@?$output_processor@_WV?$string_output_adapter@_W@__crt_stdio_output@@V?$format_validation_base@_WV?$string_output_adapter@_W@__crt_stdio_output@@@2@@__crt_stdio_output@@AEAA_NXZ 0000000140046ad4 f i libucrt:output.obj
 0001:00045adc       ?type_case_u@?$output_processor@_WV?$string_output_adapter@_W@__crt_stdio_output@@V?$positional_parameter_base@_WV?$string_output_adapter@_W@__crt_stdio_output@@@2@@__crt_stdio_output@@AEAA_NXZ 0000000140046adc f i libucrt:output.obj
 0001:00045ae4       ?type_case_u@?$output_processor@_WV?$string_output_adapter@_W@__crt_stdio_output@@V?$standard_base@_WV?$string_output_adapter@_W@__crt_stdio_output@@@2@@__crt_stdio_output@@AEAA_NXZ 0000000140046ae4 f i libucrt:output.obj
 0001:00045aec       ?type_case_x@?$output_processor@DV?$stream_output_adapter@D@__crt_stdio_output@@V?$format_validation_base@DV?$stream_output_adapter@D@__crt_stdio_output@@@2@@__crt_stdio_output@@AEAA_NXZ 0000000140046aec f i libucrt:output.obj
 0001:00045af4       ?type_case_x@?$output_processor@DV?$stream_output_adapter@D@__crt_stdio_output@@V?$positional_parameter_base@DV?$stream_output_adapter@D@__crt_stdio_output@@@2@@__crt_stdio_output@@AEAA_NXZ 0000000140046af4 f i libucrt:output.obj
 0001:00045afc       ?type_case_x@?$output_processor@DV?$stream_output_adapter@D@__crt_stdio_output@@V?$standard_base@DV?$stream_output_adapter@D@__crt_stdio_output@@@2@@__crt_stdio_output@@AEAA_NXZ 0000000140046afc f i libucrt:output.obj
 0001:00045b04       ?type_case_x@?$output_processor@DV?$string_output_adapter@D@__crt_stdio_output@@V?$format_validation_base@DV?$string_output_adapter@D@__crt_stdio_output@@@2@@__crt_stdio_output@@AEAA_NXZ 0000000140046b04 f i libucrt:output.obj
 0001:00045b0c       ?type_case_x@?$output_processor@DV?$string_output_adapter@D@__crt_stdio_output@@V?$positional_parameter_base@DV?$string_output_adapter@D@__crt_stdio_output@@@2@@__crt_stdio_output@@AEAA_NXZ 0000000140046b0c f i libucrt:output.obj
 0001:00045b14       ?type_case_x@?$output_processor@DV?$string_output_adapter@D@__crt_stdio_output@@V?$standard_base@DV?$string_output_adapter@D@__crt_stdio_output@@@2@@__crt_stdio_output@@AEAA_NXZ 0000000140046b14 f i libucrt:output.obj
 0001:00045b1c       ?type_case_x@?$output_processor@_WV?$stream_output_adapter@_W@__crt_stdio_output@@V?$format_validation_base@_WV?$stream_output_adapter@_W@__crt_stdio_output@@@2@@__crt_stdio_output@@AEAA_NXZ 0000000140046b1c f i libucrt:output.obj
 0001:00045b24       ?type_case_x@?$output_processor@_WV?$stream_output_adapter@_W@__crt_stdio_output@@V?$positional_parameter_base@_WV?$stream_output_adapter@_W@__crt_stdio_output@@@2@@__crt_stdio_output@@AEAA_NXZ 0000000140046b24 f i libucrt:output.obj
 0001:00045b2c       ?type_case_x@?$output_processor@_WV?$stream_output_adapter@_W@__crt_stdio_output@@V?$standard_base@_WV?$stream_output_adapter@_W@__crt_stdio_output@@@2@@__crt_stdio_output@@AEAA_NXZ 0000000140046b2c f i libucrt:output.obj
 0001:00045b34       ?type_case_x@?$output_processor@_WV?$string_output_adapter@_W@__crt_stdio_output@@V?$format_validation_base@_WV?$string_output_adapter@_W@__crt_stdio_output@@@2@@__crt_stdio_output@@AEAA_NXZ 0000000140046b34 f i libucrt:output.obj
 0001:00045b3c       ?type_case_x@?$output_processor@_WV?$string_output_adapter@_W@__crt_stdio_output@@V?$positional_parameter_base@_WV?$string_output_adapter@_W@__crt_stdio_output@@@2@@__crt_stdio_output@@AEAA_NXZ 0000000140046b3c f i libucrt:output.obj
 0001:00045b44       ?type_case_x@?$output_processor@_WV?$string_output_adapter@_W@__crt_stdio_output@@V?$standard_base@_WV?$string_output_adapter@_W@__crt_stdio_output@@@2@@__crt_stdio_output@@AEAA_NXZ 0000000140046b44 f i libucrt:output.obj
 0001:00045b4c       ?unget@?$c_string_character_source@D@__crt_strtox@@QEAAXD@Z 0000000140046b4c f i libucrt:output.obj
 0001:00045b80       ?unget@?$c_string_character_source@_W@__crt_strtox@@QEAAX_W@Z 0000000140046b80 f i libucrt:output.obj
 0001:00045bb8       ?unsafe_value@?$cached@H@__crt_cached_ptd_host@@QEAAHXZ 0000000140046bb8 f i libucrt:output.obj
 0001:00045bbc       ?unsafe_value@?$cached@K@__crt_cached_ptd_host@@QEAAKXZ 0000000140046bbc f i libucrt:output.obj
 0001:00045bc0       ?unset_flag@?$output_processor@DV?$stream_output_adapter@D@__crt_stdio_output@@V?$format_validation_base@DV?$stream_output_adapter@D@__crt_stdio_output@@@2@@__crt_stdio_output@@AEAAXI@Z 0000000140046bc0 f i libucrt:output.obj
 0001:00045bc8       ?unset_flag@?$output_processor@DV?$stream_output_adapter@D@__crt_stdio_output@@V?$positional_parameter_base@DV?$stream_output_adapter@D@__crt_stdio_output@@@2@@__crt_stdio_output@@AEAAXI@Z 0000000140046bc8 f i libucrt:output.obj
 0001:00045bd0       ?unset_flag@?$output_processor@DV?$stream_output_adapter@D@__crt_stdio_output@@V?$standard_base@DV?$stream_output_adapter@D@__crt_stdio_output@@@2@@__crt_stdio_output@@AEAAXI@Z 0000000140046bd0 f i libucrt:output.obj
 0001:00045bd8       ?unset_flag@?$output_processor@DV?$string_output_adapter@D@__crt_stdio_output@@V?$format_validation_base@DV?$string_output_adapter@D@__crt_stdio_output@@@2@@__crt_stdio_output@@AEAAXI@Z 0000000140046bd8 f i libucrt:output.obj
 0001:00045be0       ?unset_flag@?$output_processor@DV?$string_output_adapter@D@__crt_stdio_output@@V?$positional_parameter_base@DV?$string_output_adapter@D@__crt_stdio_output@@@2@@__crt_stdio_output@@AEAAXI@Z 0000000140046be0 f i libucrt:output.obj
 0001:00045be8       ?unset_flag@?$output_processor@DV?$string_output_adapter@D@__crt_stdio_output@@V?$standard_base@DV?$string_output_adapter@D@__crt_stdio_output@@@2@@__crt_stdio_output@@AEAAXI@Z 0000000140046be8 f i libucrt:output.obj
 0001:00045bf0       ?unset_flag@?$output_processor@_WV?$stream_output_adapter@_W@__crt_stdio_output@@V?$format_validation_base@_WV?$stream_output_adapter@_W@__crt_stdio_output@@@2@@__crt_stdio_output@@AEAAXI@Z 0000000140046bf0 f i libucrt:output.obj
 0001:00045bf8       ?unset_flag@?$output_processor@_WV?$stream_output_adapter@_W@__crt_stdio_output@@V?$positional_parameter_base@_WV?$stream_output_adapter@_W@__crt_stdio_output@@@2@@__crt_stdio_output@@AEAAXI@Z 0000000140046bf8 f i libucrt:output.obj
 0001:00045c00       ?unset_flag@?$output_processor@_WV?$stream_output_adapter@_W@__crt_stdio_output@@V?$standard_base@_WV?$stream_output_adapter@_W@__crt_stdio_output@@@2@@__crt_stdio_output@@AEAAXI@Z 0000000140046c00 f i libucrt:output.obj
 0001:00045c08       ?unset_flag@?$output_processor@_WV?$string_output_adapter@_W@__crt_stdio_output@@V?$format_validation_base@_WV?$string_output_adapter@_W@__crt_stdio_output@@@2@@__crt_stdio_output@@AEAAXI@Z 0000000140046c08 f i libucrt:output.obj
 0001:00045c10       ?unset_flag@?$output_processor@_WV?$string_output_adapter@_W@__crt_stdio_output@@V?$positional_parameter_base@_WV?$string_output_adapter@_W@__crt_stdio_output@@@2@@__crt_stdio_output@@AEAAXI@Z 0000000140046c10 f i libucrt:output.obj
 0001:00045c18       ?unset_flag@?$output_processor@_WV?$string_output_adapter@_W@__crt_stdio_output@@V?$standard_base@_WV?$string_output_adapter@_W@__crt_stdio_output@@@2@@__crt_stdio_output@@AEAAXI@Z 0000000140046c18 f i libucrt:output.obj
 0001:00045c20       ?update_field_width@?$positional_parameter_base@DV?$stream_output_adapter@D@__crt_stdio_output@@@__crt_stdio_output@@IEAA_NXZ 0000000140046c20 f i libucrt:output.obj
 0001:00045dec       ?update_field_width@?$positional_parameter_base@DV?$string_output_adapter@D@__crt_stdio_output@@@__crt_stdio_output@@IEAA_NXZ 0000000140046dec f i libucrt:output.obj
 0001:00045fb8       ?update_field_width@?$positional_parameter_base@_WV?$stream_output_adapter@_W@__crt_stdio_output@@@__crt_stdio_output@@IEAA_NXZ 0000000140046fb8 f i libucrt:output.obj
 0001:00046188       ?update_field_width@?$positional_parameter_base@_WV?$string_output_adapter@_W@__crt_stdio_output@@@__crt_stdio_output@@IEAA_NXZ 0000000140047188 f i libucrt:output.obj
 0001:00046358       ?update_field_width@?$standard_base@DV?$stream_output_adapter@D@__crt_stdio_output@@@__crt_stdio_output@@IEAA_NXZ 0000000140047358 f i libucrt:output.obj
 0001:00046374       ?update_field_width@?$standard_base@DV?$string_output_adapter@D@__crt_stdio_output@@@__crt_stdio_output@@IEAA_NXZ 0000000140047374 f i libucrt:output.obj
 0001:00046390       ?update_field_width@?$standard_base@_WV?$stream_output_adapter@_W@__crt_stdio_output@@@__crt_stdio_output@@IEAA_NXZ 0000000140047390 f i libucrt:output.obj
 0001:000463ac       ?update_field_width@?$standard_base@_WV?$string_output_adapter@_W@__crt_stdio_output@@@__crt_stdio_output@@IEAA_NXZ 00000001400473ac f i libucrt:output.obj
 0001:000463d0       ?update_locale@__crt_cached_ptd_host@@AEAAXXZ 00000001400473d0 f i libucrt:output.obj
 0001:000463e0       ?update_locale_slow@__crt_cached_ptd_host@@AEAAXXZ 00000001400473e0 f i libucrt:output.obj
 0001:00046474       ?update_precision@?$positional_parameter_base@DV?$stream_output_adapter@D@__crt_stdio_output@@@__crt_stdio_output@@IEAA_NXZ 0000000140047474 f i libucrt:output.obj
 0001:00046640       ?update_precision@?$positional_parameter_base@DV?$string_output_adapter@D@__crt_stdio_output@@@__crt_stdio_output@@IEAA_NXZ 0000000140047640 f i libucrt:output.obj
 0001:0004680c       ?update_precision@?$positional_parameter_base@_WV?$stream_output_adapter@_W@__crt_stdio_output@@@__crt_stdio_output@@IEAA_NXZ 000000014004780c f i libucrt:output.obj
 0001:000469dc       ?update_precision@?$positional_parameter_base@_WV?$string_output_adapter@_W@__crt_stdio_output@@@__crt_stdio_output@@IEAA_NXZ 00000001400479dc f i libucrt:output.obj
 0001:00046bac       ?update_precision@?$standard_base@DV?$stream_output_adapter@D@__crt_stdio_output@@@__crt_stdio_output@@IEAA_NXZ 0000000140047bac f i libucrt:output.obj
 0001:00046bc8       ?update_precision@?$standard_base@DV?$string_output_adapter@D@__crt_stdio_output@@@__crt_stdio_output@@IEAA_NXZ 0000000140047bc8 f i libucrt:output.obj
 0001:00046be4       ?update_precision@?$standard_base@_WV?$stream_output_adapter@_W@__crt_stdio_output@@@__crt_stdio_output@@IEAA_NXZ 0000000140047be4 f i libucrt:output.obj
 0001:00046c00       ?update_precision@?$standard_base@_WV?$string_output_adapter@_W@__crt_stdio_output@@@__crt_stdio_output@@IEAA_NXZ 0000000140047c00 f i libucrt:output.obj
 0001:00046c1c       ?valid@?$cached@H@__crt_cached_ptd_host@@QEBA_NXZ 0000000140047c1c f i libucrt:output.obj
 0001:00046c20       ?valid@?$cached@K@__crt_cached_ptd_host@@QEBA_NXZ 0000000140047c20 f i libucrt:output.obj
 0001:00046c24       ?valid@__crt_stdio_stream@@QEBA_NXZ 0000000140047c24 f i libucrt:output.obj
 0001:00046c30       ?validate@?$c_string_character_source@D@__crt_strtox@@QEBA_NXZ 0000000140047c30 f i libucrt:output.obj
 0001:00046c60       ?validate@?$c_string_character_source@_W@__crt_strtox@@QEBA_NXZ 0000000140047c60 f i libucrt:output.obj
 0001:00046c90       ?validate@?$stream_output_adapter@D@__crt_stdio_output@@QEBA_NAEAV__crt_cached_ptd_host@@@Z 0000000140047c90 f i libucrt:output.obj
 0001:00046ce0       ?validate@?$stream_output_adapter@_W@__crt_stdio_output@@QEBA_NAEAV__crt_cached_ptd_host@@@Z 0000000140047ce0 f i libucrt:output.obj
 0001:00046d28       ?validate@?$string_output_adapter@D@__crt_stdio_output@@QEBA_NAEAV__crt_cached_ptd_host@@@Z 0000000140047d28 f i libucrt:output.obj
 0001:00046d70       ?validate@?$string_output_adapter@_W@__crt_stdio_output@@QEBA_NAEAV__crt_cached_ptd_host@@@Z 0000000140047d70 f i libucrt:output.obj
 0001:00046db8       ?validate_and_store_parameter_data@?$positional_parameter_base@DV?$stream_output_adapter@D@__crt_stdio_output@@@__crt_stdio_output@@AEAA_NAEAUparameter_data@12@W4parameter_type@12@DW4length_modifier@2@@Z 0000000140047db8 f i libucrt:output.obj
 0001:00046e34       ?validate_and_store_parameter_data@?$positional_parameter_base@DV?$string_output_adapter@D@__crt_stdio_output@@@__crt_stdio_output@@AEAA_NAEAUparameter_data@12@W4parameter_type@12@DW4length_modifier@2@@Z 0000000140047e34 f i libucrt:output.obj
 0001:00046eb0       ?validate_and_store_parameter_data@?$positional_parameter_base@_WV?$stream_output_adapter@_W@__crt_stdio_output@@@__crt_stdio_output@@AEAA_NAEAUparameter_data@12@W4parameter_type@12@_WW4length_modifier@2@@Z 0000000140047eb0 f i libucrt:output.obj
 0001:00046f2c       ?validate_and_store_parameter_data@?$positional_parameter_base@_WV?$string_output_adapter@_W@__crt_stdio_output@@@__crt_stdio_output@@AEAA_NAEAUparameter_data@12@W4parameter_type@12@_WW4length_modifier@2@@Z 0000000140047f2c f i libucrt:output.obj
 0001:00046fa8       ?validate_and_update_state_at_beginning_of_format_character@?$positional_parameter_base@DV?$stream_output_adapter@D@__crt_stdio_output@@@__crt_stdio_output@@IEAA_NXZ 0000000140047fa8 f i libucrt:output.obj
 0001:0004713c       ?validate_and_update_state_at_beginning_of_format_character@?$positional_parameter_base@DV?$string_output_adapter@D@__crt_stdio_output@@@__crt_stdio_output@@IEAA_NXZ 000000014004813c f i libucrt:output.obj
 0001:000472d0       ?validate_and_update_state_at_beginning_of_format_character@?$positional_parameter_base@_WV?$stream_output_adapter@_W@__crt_stdio_output@@@__crt_stdio_output@@IEAA_NXZ 00000001400482d0 f i libucrt:output.obj
 0001:00047474       ?validate_and_update_state_at_beginning_of_format_character@?$positional_parameter_base@_WV?$string_output_adapter@_W@__crt_stdio_output@@@__crt_stdio_output@@IEAA_NXZ 0000000140048474 f i libucrt:output.obj
 0001:00047618       ?validate_and_update_state_at_beginning_of_format_character@?$standard_base@DV?$stream_output_adapter@D@__crt_stdio_output@@@__crt_stdio_output@@IEAA_NXZ 0000000140048618 f i libucrt:output.obj
 0001:0004761c       ?validate_and_update_state_at_beginning_of_format_character@?$standard_base@DV?$string_output_adapter@D@__crt_stdio_output@@@__crt_stdio_output@@IEAA_NXZ 000000014004861c f i libucrt:output.obj
 0001:00047620       ?validate_and_update_state_at_beginning_of_format_character@?$standard_base@_WV?$stream_output_adapter@_W@__crt_stdio_output@@@__crt_stdio_output@@IEAA_NXZ 0000000140048620 f i libucrt:output.obj
 0001:00047624       ?validate_and_update_state_at_beginning_of_format_character@?$standard_base@_WV?$string_output_adapter@_W@__crt_stdio_output@@@__crt_stdio_output@@IEAA_NXZ 0000000140048624 f i libucrt:output.obj
 0001:00047628       ?validate_and_update_state_at_end_of_format_string@?$format_validation_base@DV?$stream_output_adapter@D@__crt_stdio_output@@@__crt_stdio_output@@IEAA_NXZ 0000000140048628 f i libucrt:output.obj
 0001:00047680       ?validate_and_update_state_at_end_of_format_string@?$format_validation_base@DV?$string_output_adapter@D@__crt_stdio_output@@@__crt_stdio_output@@IEAA_NXZ 0000000140048680 f i libucrt:output.obj
 0001:000476d8       ?validate_and_update_state_at_end_of_format_string@?$format_validation_base@_WV?$stream_output_adapter@_W@__crt_stdio_output@@@__crt_stdio_output@@IEAA_NXZ 00000001400486d8 f i libucrt:output.obj
 0001:00047730       ?validate_and_update_state_at_end_of_format_string@?$format_validation_base@_WV?$string_output_adapter@_W@__crt_stdio_output@@@__crt_stdio_output@@IEAA_NXZ 0000000140048730 f i libucrt:output.obj
 0001:00047788       ?validate_and_update_state_at_end_of_format_string@?$positional_parameter_base@DV?$stream_output_adapter@D@__crt_stdio_output@@@__crt_stdio_output@@IEAA_NXZ 0000000140048788 f i libucrt:output.obj
 0001:0004786c       ?validate_and_update_state_at_end_of_format_string@?$positional_parameter_base@DV?$string_output_adapter@D@__crt_stdio_output@@@__crt_stdio_output@@IEAA_NXZ 000000014004886c f i libucrt:output.obj
 0001:00047950       ?validate_and_update_state_at_end_of_format_string@?$positional_parameter_base@_WV?$stream_output_adapter@_W@__crt_stdio_output@@@__crt_stdio_output@@IEAA_NXZ 0000000140048950 f i libucrt:output.obj
 0001:00047a34       ?validate_and_update_state_at_end_of_format_string@?$positional_parameter_base@_WV?$string_output_adapter@_W@__crt_stdio_output@@@__crt_stdio_output@@IEAA_NXZ 0000000140048a34 f i libucrt:output.obj
 0001:00047b18       ?validate_and_update_state_at_end_of_format_string@?$standard_base@DV?$stream_output_adapter@D@__crt_stdio_output@@@__crt_stdio_output@@IEBA_NXZ 0000000140048b18 f i libucrt:output.obj
 0001:00047b1c       ?validate_and_update_state_at_end_of_format_string@?$standard_base@DV?$string_output_adapter@D@__crt_stdio_output@@@__crt_stdio_output@@IEBA_NXZ 0000000140048b1c f i libucrt:output.obj
 0001:00047b20       ?validate_and_update_state_at_end_of_format_string@?$standard_base@_WV?$stream_output_adapter@_W@__crt_stdio_output@@@__crt_stdio_output@@IEBA_NXZ 0000000140048b20 f i libucrt:output.obj
 0001:00047b24       ?validate_and_update_state_at_end_of_format_string@?$standard_base@_WV?$string_output_adapter@_W@__crt_stdio_output@@@__crt_stdio_output@@IEBA_NXZ 0000000140048b24 f i libucrt:output.obj
 0001:00047b28       ?validate_state_for_type_case_a@?$positional_parameter_base@DV?$stream_output_adapter@D@__crt_stdio_output@@@__crt_stdio_output@@IEAA_NXZ 0000000140048b28 f i libucrt:output.obj
 0001:00047c44       ?validate_state_for_type_case_a@?$positional_parameter_base@DV?$string_output_adapter@D@__crt_stdio_output@@@__crt_stdio_output@@IEAA_NXZ 0000000140048c44 f i libucrt:output.obj
 0001:00047d60       ?validate_state_for_type_case_a@?$positional_parameter_base@_WV?$stream_output_adapter@_W@__crt_stdio_output@@@__crt_stdio_output@@IEAA_NXZ 0000000140048d60 f i libucrt:output.obj
 0001:00047e80       ?validate_state_for_type_case_a@?$positional_parameter_base@_WV?$string_output_adapter@_W@__crt_stdio_output@@@__crt_stdio_output@@IEAA_NXZ 0000000140048e80 f i libucrt:output.obj
 0001:00047fa0       ?validate_state_for_type_case_a@?$standard_base@DV?$stream_output_adapter@D@__crt_stdio_output@@@__crt_stdio_output@@IEBA_NXZ 0000000140048fa0 f i libucrt:output.obj
 0001:00047fa4       ?validate_state_for_type_case_a@?$standard_base@DV?$string_output_adapter@D@__crt_stdio_output@@@__crt_stdio_output@@IEBA_NXZ 0000000140048fa4 f i libucrt:output.obj
 0001:00047fa8       ?validate_state_for_type_case_a@?$standard_base@_WV?$stream_output_adapter@_W@__crt_stdio_output@@@__crt_stdio_output@@IEBA_NXZ 0000000140048fa8 f i libucrt:output.obj
 0001:00047fac       ?validate_state_for_type_case_a@?$standard_base@_WV?$string_output_adapter@_W@__crt_stdio_output@@@__crt_stdio_output@@IEBA_NXZ 0000000140048fac f i libucrt:output.obj
 0001:00047fb0       ?validate_stream_is_ansi_if_required@?$__acrt_stdio_char_traits@D@@SA_NQEAU_iobuf@@@Z 0000000140048fb0 f i libucrt:output.obj
 0001:00048074       ?validate_stream_is_ansi_if_required@?$__acrt_stdio_char_traits@_W@@SA_NQEAU_iobuf@@@Z 0000000140049074 f i libucrt:output.obj
 0001:00048078       ?wide_character_to_digit@__crt_strtox@@YAH_W@Z 0000000140049078 f i libucrt:output.obj
 0001:00048280       ?wide_null_string@?$output_processor@DV?$stream_output_adapter@D@__crt_stdio_output@@V?$format_validation_base@DV?$stream_output_adapter@D@__crt_stdio_output@@@2@@__crt_stdio_output@@CAPEA_WXZ 0000000140049280 f i libucrt:output.obj
 0001:0004828c       ?wide_null_string@?$output_processor@DV?$stream_output_adapter@D@__crt_stdio_output@@V?$positional_parameter_base@DV?$stream_output_adapter@D@__crt_stdio_output@@@2@@__crt_stdio_output@@CAPEA_WXZ 000000014004928c f i libucrt:output.obj
 0001:00048298       ?wide_null_string@?$output_processor@DV?$stream_output_adapter@D@__crt_stdio_output@@V?$standard_base@DV?$stream_output_adapter@D@__crt_stdio_output@@@2@@__crt_stdio_output@@CAPEA_WXZ 0000000140049298 f i libucrt:output.obj
 0001:000482a4       ?wide_null_string@?$output_processor@DV?$string_output_adapter@D@__crt_stdio_output@@V?$format_validation_base@DV?$string_output_adapter@D@__crt_stdio_output@@@2@@__crt_stdio_output@@CAPEA_WXZ 00000001400492a4 f i libucrt:output.obj
 0001:000482b0       ?wide_null_string@?$output_processor@DV?$string_output_adapter@D@__crt_stdio_output@@V?$positional_parameter_base@DV?$string_output_adapter@D@__crt_stdio_output@@@2@@__crt_stdio_output@@CAPEA_WXZ 00000001400492b0 f i libucrt:output.obj
 0001:000482bc       ?wide_null_string@?$output_processor@DV?$string_output_adapter@D@__crt_stdio_output@@V?$standard_base@DV?$string_output_adapter@D@__crt_stdio_output@@@2@@__crt_stdio_output@@CAPEA_WXZ 00000001400492bc f i libucrt:output.obj
 0001:000482c8       ?wide_null_string@?$output_processor@_WV?$stream_output_adapter@_W@__crt_stdio_output@@V?$format_validation_base@_WV?$stream_output_adapter@_W@__crt_stdio_output@@@2@@__crt_stdio_output@@CAPEA_WXZ 00000001400492c8 f i libucrt:output.obj
 0001:000482d4       ?wide_null_string@?$output_processor@_WV?$stream_output_adapter@_W@__crt_stdio_output@@V?$positional_parameter_base@_WV?$stream_output_adapter@_W@__crt_stdio_output@@@2@@__crt_stdio_output@@CAPEA_WXZ 00000001400492d4 f i libucrt:output.obj
 0001:000482e0       ?wide_null_string@?$output_processor@_WV?$stream_output_adapter@_W@__crt_stdio_output@@V?$standard_base@_WV?$stream_output_adapter@_W@__crt_stdio_output@@@2@@__crt_stdio_output@@CAPEA_WXZ 00000001400492e0 f i libucrt:output.obj
 0001:000482ec       ?wide_null_string@?$output_processor@_WV?$string_output_adapter@_W@__crt_stdio_output@@V?$format_validation_base@_WV?$string_output_adapter@_W@__crt_stdio_output@@@2@@__crt_stdio_output@@CAPEA_WXZ 00000001400492ec f i libucrt:output.obj
 0001:000482f8       ?wide_null_string@?$output_processor@_WV?$string_output_adapter@_W@__crt_stdio_output@@V?$positional_parameter_base@_WV?$string_output_adapter@_W@__crt_stdio_output@@@2@@__crt_stdio_output@@CAPEA_WXZ 00000001400492f8 f i libucrt:output.obj
 0001:00048304       ?wide_null_string@?$output_processor@_WV?$string_output_adapter@_W@__crt_stdio_output@@V?$standard_base@_WV?$string_output_adapter@_W@__crt_stdio_output@@@2@@__crt_stdio_output@@CAPEA_WXZ 0000000140049304 f i libucrt:output.obj
 0001:00048310       ?write_character@?$output_adapter_common@DV?$stream_output_adapter@D@__crt_stdio_output@@@__crt_stdio_output@@QEBAXDQEAHAEAV__crt_cached_ptd_host@@@Z 0000000140049310 f i libucrt:output.obj
 0001:00048370       ?write_character@?$output_adapter_common@_WV?$stream_output_adapter@_W@__crt_stdio_output@@@__crt_stdio_output@@QEBAX_WQEAHAEAV__crt_cached_ptd_host@@@Z 0000000140049370 f i libucrt:output.obj
 0001:000483d4       ?write_character@?$string_output_adapter@D@__crt_stdio_output@@QEBA_NDQEAHAEAV__crt_cached_ptd_host@@@Z 00000001400493d4 f i libucrt:output.obj
 0001:0004842c       ?write_character@?$string_output_adapter@_W@__crt_stdio_output@@QEBA_N_WQEAHAEAV__crt_cached_ptd_host@@@Z 000000014004942c f i libucrt:output.obj
 0001:00048488       ?write_character_without_count_update@?$stream_output_adapter@D@__crt_stdio_output@@QEBA_NDAEAV__crt_cached_ptd_host@@@Z 0000000140049488 f i libucrt:output.obj
 0001:000484d8       ?write_character_without_count_update@?$stream_output_adapter@_W@__crt_stdio_output@@QEBA_N_WAEAV__crt_cached_ptd_host@@@Z 00000001400494d8 f i libucrt:output.obj
 0001:0004852c       ?write_stored_string_tchar@?$output_processor@DV?$stream_output_adapter@D@__crt_stdio_output@@V?$format_validation_base@DV?$stream_output_adapter@D@__crt_stdio_output@@@2@@__crt_stdio_output@@AEAA_ND@Z 000000014004952c f i libucrt:output.obj
 0001:000486ac       ?write_stored_string_tchar@?$output_processor@DV?$stream_output_adapter@D@__crt_stdio_output@@V?$positional_parameter_base@DV?$stream_output_adapter@D@__crt_stdio_output@@@2@@__crt_stdio_output@@AEAA_ND@Z 00000001400496ac f i libucrt:output.obj
 0001:0004882c       ?write_stored_string_tchar@?$output_processor@DV?$stream_output_adapter@D@__crt_stdio_output@@V?$standard_base@DV?$stream_output_adapter@D@__crt_stdio_output@@@2@@__crt_stdio_output@@AEAA_ND@Z 000000014004982c f i libucrt:output.obj
 0001:000489ac       ?write_stored_string_tchar@?$output_processor@DV?$string_output_adapter@D@__crt_stdio_output@@V?$format_validation_base@DV?$string_output_adapter@D@__crt_stdio_output@@@2@@__crt_stdio_output@@AEAA_ND@Z 00000001400499ac f i libucrt:output.obj
 0001:00048acc       ?write_stored_string_tchar@?$output_processor@DV?$string_output_adapter@D@__crt_stdio_output@@V?$positional_parameter_base@DV?$string_output_adapter@D@__crt_stdio_output@@@2@@__crt_stdio_output@@AEAA_ND@Z 0000000140049acc f i libucrt:output.obj
 0001:00048bec       ?write_stored_string_tchar@?$output_processor@DV?$string_output_adapter@D@__crt_stdio_output@@V?$standard_base@DV?$string_output_adapter@D@__crt_stdio_output@@@2@@__crt_stdio_output@@AEAA_ND@Z 0000000140049bec f i libucrt:output.obj
 0001:00048d0c       ?write_stored_string_tchar@?$output_processor@_WV?$stream_output_adapter@_W@__crt_stdio_output@@V?$format_validation_base@_WV?$stream_output_adapter@_W@__crt_stdio_output@@@2@@__crt_stdio_output@@AEAA_N_W@Z 0000000140049d0c f i libucrt:output.obj
 0001:00048e90       ?write_stored_string_tchar@?$output_processor@_WV?$stream_output_adapter@_W@__crt_stdio_output@@V?$positional_parameter_base@_WV?$stream_output_adapter@_W@__crt_stdio_output@@@2@@__crt_stdio_output@@AEAA_N_W@Z 0000000140049e90 f i libucrt:output.obj
 0001:00049014       ?write_stored_string_tchar@?$output_processor@_WV?$stream_output_adapter@_W@__crt_stdio_output@@V?$standard_base@_WV?$stream_output_adapter@_W@__crt_stdio_output@@@2@@__crt_stdio_output@@AEAA_N_W@Z 000000014004a014 f i libucrt:output.obj
 0001:00049198       ?write_stored_string_tchar@?$output_processor@_WV?$string_output_adapter@_W@__crt_stdio_output@@V?$format_validation_base@_WV?$string_output_adapter@_W@__crt_stdio_output@@@2@@__crt_stdio_output@@AEAA_N_W@Z 000000014004a198 f i libucrt:output.obj
 0001:000492f0       ?write_stored_string_tchar@?$output_processor@_WV?$string_output_adapter@_W@__crt_stdio_output@@V?$positional_parameter_base@_WV?$string_output_adapter@_W@__crt_stdio_output@@@2@@__crt_stdio_output@@AEAA_N_W@Z 000000014004a2f0 f i libucrt:output.obj
 0001:00049448       ?write_stored_string_tchar@?$output_processor@_WV?$string_output_adapter@_W@__crt_stdio_output@@V?$standard_base@_WV?$string_output_adapter@_W@__crt_stdio_output@@@2@@__crt_stdio_output@@AEAA_N_W@Z 000000014004a448 f i libucrt:output.obj
 0001:000495a0       ?write_string@?$stream_output_adapter@D@__crt_stdio_output@@QEBAXQEBDHQEAHAEAV__crt_cached_ptd_host@@@Z 000000014004a5a0 f i libucrt:output.obj
 0001:000495d0       ?write_string@?$stream_output_adapter@_W@__crt_stdio_output@@QEBAXQEB_WHQEAHAEAV__crt_cached_ptd_host@@@Z 000000014004a5d0 f i libucrt:output.obj
 0001:00049600       ?write_string@?$string_output_adapter@D@__crt_stdio_output@@QEBAXQEBDHQEAHAEAV__crt_cached_ptd_host@@@Z 000000014004a600 f i libucrt:output.obj
 0001:000496cc       ?write_string@?$string_output_adapter@_W@__crt_stdio_output@@QEBAXQEB_WHQEAHAEAV__crt_cached_ptd_host@@@Z 000000014004a6cc f i libucrt:output.obj
 0001:0004979c       ?write_string_impl@?$output_adapter_common@DV?$stream_output_adapter@D@__crt_stdio_output@@@__crt_stdio_output@@IEBAXQEBDHQEAHAEAV__crt_cached_ptd_host@@@Z 000000014004a79c f i libucrt:output.obj
 0001:0004989c       ?write_string_impl@?$output_adapter_common@_WV?$stream_output_adapter@_W@__crt_stdio_output@@@__crt_stdio_output@@IEBAXQEB_WHQEAHAEAV__crt_cached_ptd_host@@@Z 000000014004a89c f i libucrt:output.obj
 0001:000499b0       __acrt_disable_global_locale_sync 000000014004a9b0 f i libucrt:output.obj
 0001:000499b8       __acrt_enable_global_locale_sync 000000014004a9b8 f i libucrt:output.obj
 0001:000499c4       __acrt_isleadbyte_l_noupdate 000000014004a9c4 f i libucrt:output.obj
 0001:000499f0       __acrt_locale_changed      000000014004a9f0 f i libucrt:output.obj
 0001:00049a00       __acrt_locale_get_ctype_array_value 000000014004aa00 f i libucrt:output.obj
 0001:00049a20       __ascii_iswalpha           000000014004aa20 f i libucrt:output.obj
 0001:00049a40       __ascii_toupper            000000014004aa40 f i libucrt:output.obj
 0001:00049a54       __ascii_towupper           000000014004aa54 f i libucrt:output.obj
 0001:00049a64       __stdio_common_vfprintf    000000014004aa64 f   libucrt:output.obj
 0001:00049bd4       __stdio_common_vfprintf_p  000000014004abd4 f   libucrt:output.obj
 0001:00049d44       __stdio_common_vfprintf_s  000000014004ad44 f   libucrt:output.obj
 0001:00049eb4       __stdio_common_vfwprintf   000000014004aeb4 f   libucrt:output.obj
 0001:0004a024       __stdio_common_vfwprintf_p 000000014004b024 f   libucrt:output.obj
 0001:0004a194       __stdio_common_vfwprintf_s 000000014004b194 f   libucrt:output.obj
 0001:0004a304       __stdio_common_vsnprintf_s 000000014004b304 f   libucrt:output.obj
 0001:0004a550       __stdio_common_vsnwprintf_s 000000014004b550 f   libucrt:output.obj
 0001:0004a7a0       __stdio_common_vsprintf    000000014004b7a0 f   libucrt:output.obj
 0001:0004aa88       __stdio_common_vsprintf_p  000000014004ba88 f   libucrt:output.obj
 0001:0004ab6c       __stdio_common_vsprintf_s  000000014004bb6c f   libucrt:output.obj
 0001:0004acc4       __stdio_common_vswprintf   000000014004bcc4 f   libucrt:output.obj
 0001:0004afb4       __stdio_common_vswprintf_p 000000014004bfb4 f   libucrt:output.obj
 0001:0004b098       __stdio_common_vswprintf_s 000000014004c098 f   libucrt:output.obj
 0001:0004b1f0       _ctype_fast_check_internal 000000014004c1f0 f i libucrt:output.obj
 0001:0004b208       _isdigit_fast_internal     000000014004c208 f i libucrt:output.obj
 0001:0004b224       _tolower_fast_internal     000000014004c224 f i libucrt:output.obj
 0001:0004b260       _seh_filter_dll            000000014004c260 f   libucrt:exception_filter.obj
 0001:0004b278       _seh_filter_exe            000000014004c278 f   libucrt:exception_filter.obj
 0001:0004b56c       __acrt_report_runtime_error 000000014004c56c f   libucrt:report_runtime_error.obj
 0001:0004b720       _invoke_watson_if_error    000000014004c720 f i libucrt:report_runtime_error.obj
 0001:0004b760       _query_app_type            000000014004c760 f   libucrt:report_runtime_error.obj
 0001:0004b768       _set_app_type              000000014004c768 f   libucrt:report_runtime_error.obj
 0001:0004b770       ??$__crt_fast_decode_pointer@P6AHPEAU_exception@@@Z@@YAP6AHPEAU_exception@@@ZQ6AH0@Z@Z 000000014004c770 f i libucrt:matherr.obj
 0001:0004b78c       ??$__crt_fast_encode_pointer@P6AHPEAU_exception@@@Z@@YAP6AHPEAU_exception@@@ZQ6AH0@Z@Z 000000014004c78c f i libucrt:matherr.obj
 0001:0004b7b4       ?__crt_rotate_pointer_value@@YA_K_KH@Z 000000014004c7b4 f i libucrt:matherr.obj
 0001:0004b7c0       ?get_current_state_index@__crt_state_management@@YA_KXZ 000000014004c7c0 f i libucrt:matherr.obj
 0001:0004b7c4       ?initialize@?$dual_state_global@P6AHPEAU_exception@@@Z@__crt_state_management@@QEAAXQ6AHPEAU_exception@@@Z@Z 000000014004c7c4 f i libucrt:matherr.obj
 0001:0004b7d4       ?value@?$dual_state_global@P6AHPEAU_exception@@@Z@__crt_state_management@@QEAAAEAP6AHPEAU_exception@@@ZXZ 000000014004c7d4 f i libucrt:matherr.obj
 0001:0004b7d8       __acrt_has_user_matherr    000000014004c7d8 f   libucrt:matherr.obj
 0001:0004b800       __acrt_initialize_user_matherr 000000014004c800 f   libucrt:matherr.obj
 0001:0004b80c       __acrt_invoke_user_matherr 000000014004c80c f   libucrt:matherr.obj
 0001:0004b858       __setusermatherr           000000014004c858 f   libucrt:matherr.obj
 0001:0004b888       ??$?RE@__crt_internal_free_policy@@QEBAXQEBE@Z 000000014004c888 f i libucrt:argv_parsing.obj
 0001:0004b894       ??$?RPEAD@__crt_internal_free_policy@@QEBAXQEBQEAD@Z 000000014004c894 f i libucrt:argv_parsing.obj
 0001:0004b8a0       ??$?RPEA_W@__crt_internal_free_policy@@QEBAXQEBQEA_W@Z 000000014004c8a0 f i libucrt:argv_parsing.obj
 0001:0004bc58       ??$get_module_file_name@$$TAEAY0BAF@DH@?$__crt_char_traits@D@@SAK$$QEA$$TAEAY0BAF@D$$QEAH@Z 000000014004cc58 f i libucrt:argv_parsing.obj
 0001:0004bc68       ??$get_module_file_name@$$TAEAY0BAF@_WH@?$__crt_char_traits@_W@@SAK$$QEA$$TAEAY0BAF@_W$$QEAH@Z 000000014004cc68 f i libucrt:argv_parsing.obj
 0001:0004c0bc       ??$set_program_name@PEAD@?$__crt_char_traits@D@@SAX$$QEAPEAD@Z 000000014004d0bc f i libucrt:argv_parsing.obj
 0001:0004c0cc       ??$set_program_name@PEA_W@?$__crt_char_traits@_W@@SAX$$QEAPEA_W@Z 000000014004d0cc f i libucrt:argv_parsing.obj
 0001:0004c0ec       ??0?$__crt_unique_heap_ptr@EU__crt_internal_free_policy@@@@QEAA@QEAE@Z 000000014004d0ec f i libucrt:argv_parsing.obj
 0001:0004c0f4       ??0?$__crt_unique_heap_ptr@PEADU__crt_internal_free_policy@@@@QEAA@QEAPEAD@Z 000000014004d0f4 f i libucrt:argv_parsing.obj
 0001:0004c0fc       ??0?$__crt_unique_heap_ptr@PEA_WU__crt_internal_free_policy@@@@QEAA@QEAPEA_W@Z 000000014004d0fc f i libucrt:argv_parsing.obj
 0001:0004c104       ??1?$__crt_unique_heap_ptr@EU__crt_internal_free_policy@@@@QEAA@XZ 000000014004d104 f i libucrt:argv_parsing.obj
 0001:0004c128       ??1?$__crt_unique_heap_ptr@PEADU__crt_internal_free_policy@@@@QEAA@XZ 000000014004d128 f i libucrt:argv_parsing.obj
 0001:0004c14c       ??1?$__crt_unique_heap_ptr@PEA_WU__crt_internal_free_policy@@@@QEAA@XZ 000000014004d14c f i libucrt:argv_parsing.obj
 0001:0004c170       ??B?$__crt_unique_heap_ptr@EU__crt_internal_free_policy@@@@QEBA_NXZ 000000014004d170 f i libucrt:argv_parsing.obj
 0001:0004c1c4       ?detach@?$__crt_unique_heap_ptr@EU__crt_internal_free_policy@@@@QEAAPEAEXZ 000000014004d1c4 f i libucrt:argv_parsing.obj
 0001:0004c1d0       ?detach@?$__crt_unique_heap_ptr@PEADU__crt_internal_free_policy@@@@QEAAPEAPEADXZ 000000014004d1d0 f i libucrt:argv_parsing.obj
 0001:0004c1dc       ?detach@?$__crt_unique_heap_ptr@PEA_WU__crt_internal_free_policy@@@@QEAAPEAPEA_WXZ 000000014004d1dc f i libucrt:argv_parsing.obj
 0001:0004c204       ?get@?$__crt_unique_heap_ptr@EU__crt_internal_free_policy@@@@QEBAPEAEXZ 000000014004d204 f i libucrt:argv_parsing.obj
 0001:0004c208       ?get@?$__crt_unique_heap_ptr@PEADU__crt_internal_free_policy@@@@QEBAPEAPEADXZ 000000014004d208 f i libucrt:argv_parsing.obj
 0001:0004c20c       ?get@?$__crt_unique_heap_ptr@PEA_WU__crt_internal_free_policy@@@@QEBAPEAPEA_WXZ 000000014004d20c f i libucrt:argv_parsing.obj
 0001:0004c210       ?get_address_of@?$__crt_unique_heap_ptr@PEADU__crt_internal_free_policy@@@@QEAAPEAPEAPEADXZ 000000014004d210 f i libucrt:argv_parsing.obj
 0001:0004c214       ?get_address_of@?$__crt_unique_heap_ptr@PEA_WU__crt_internal_free_policy@@@@QEAAPEAPEAPEA_WXZ 000000014004d214 f i libucrt:argv_parsing.obj
 0001:0004c248       ?is_valid@?$__crt_unique_heap_ptr@EU__crt_internal_free_policy@@@@QEBA_NXZ 000000014004d248 f i libucrt:argv_parsing.obj
 0001:0004c254       ?release@?$__crt_unique_heap_ptr@EU__crt_internal_free_policy@@@@QEAAXXZ 000000014004d254 f i libucrt:argv_parsing.obj
 0001:0004c278       ?release@?$__crt_unique_heap_ptr@PEADU__crt_internal_free_policy@@@@QEAAXXZ 000000014004d278 f i libucrt:argv_parsing.obj
 0001:0004c29c       ?release@?$__crt_unique_heap_ptr@PEA_WU__crt_internal_free_policy@@@@QEAAXXZ 000000014004d29c f i libucrt:argv_parsing.obj
 0001:0004c2e0       __acrt_allocate_buffer_for_argv 000000014004d2e0 f   libucrt:argv_parsing.obj
 0001:0004c354       _configure_narrow_argv     000000014004d354 f   libucrt:argv_parsing.obj
 0001:0004c53c       _configure_wide_argv       000000014004d53c f   libucrt:argv_parsing.obj
 0001:0004c720       _set_pgmptr                000000014004d720 f i libucrt:argv_parsing.obj
 0001:0004c72c       _set_wpgmptr               000000014004d72c f i libucrt:argv_parsing.obj
 0001:0004c738       ??$?R_W@__crt_internal_free_policy@@QEBAXQEB_W@Z 000000014004d738 f i libucrt:environment_initialization.obj
 0001:0004cdac       ??$get_environment_from_os@$$V@?$__crt_char_traits@D@@SAPEADXZ 000000014004ddac f i libucrt:environment_initialization.obj
 0001:0004cdb4       ??$get_environment_from_os@$$V@?$__crt_char_traits@_W@@SAPEA_WXZ 000000014004ddb4 f i libucrt:environment_initialization.obj
 0001:0004cfbc       ??$set_variable_in_environment_nolock@PEADH@?$__crt_char_traits@D@@SAH$$QEAPEAD$$QEAH@Z 000000014004dfbc f i libucrt:environment_initialization.obj
 0001:0004cfc8       ??$set_variable_in_environment_nolock@PEA_WH@?$__crt_char_traits@_W@@SAH$$QEAPEA_W$$QEAH@Z 000000014004dfc8 f i libucrt:environment_initialization.obj
 0001:0004cfd4       ??$tcscpy_s@PEADAEB_KAEAPEAD@?$__crt_char_traits@D@@SAH$$QEAPEADAEB_KAEAPEAD@Z 000000014004dfd4 f i libucrt:environment_initialization.obj
 0001:0004cfe8       ??$tcscpy_s@PEA_WAEB_KAEAPEA_W@?$__crt_char_traits@_W@@SAH$$QEAPEA_WAEB_KAEAPEA_W@Z 000000014004dfe8 f i libucrt:environment_initialization.obj
 0001:0004cffc       ??$tcslen@AEAPEAD@?$__crt_char_traits@D@@SA_KAEAPEAD@Z 000000014004dffc f i libucrt:environment_initialization.obj
 0001:0004d014       ??$tcslen@AEAPEA_W@?$__crt_char_traits@_W@@SA_KAEAPEA_W@Z 000000014004e014 f i libucrt:environment_initialization.obj
 0001:0004d02c       ??$uninitialize@A6AXAEAPEAPEAD@_E@?$dual_state_global@PEAPEAD@__crt_state_management@@QEAAXA6AXAEAPEAPEAD@_E@Z 000000014004e02c f i libucrt:environment_initialization.obj
 0001:0004d098       ??$uninitialize@A6AXAEAPEAPEA_W@_E@?$dual_state_global@PEAPEA_W@__crt_state_management@@QEAAXA6AXAEAPEAPEA_W@_E@Z 000000014004e098 f i libucrt:environment_initialization.obj
 0001:0004d144       ??0?$__crt_unique_heap_ptr@_WU__crt_internal_free_policy@@@@QEAA@QEA_W@Z 000000014004e144 f i libucrt:environment_initialization.obj
 0001:0004d14c       ??1?$__crt_unique_heap_ptr@_WU__crt_internal_free_policy@@@@QEAA@XZ 000000014004e14c f i libucrt:environment_initialization.obj
 0001:0004d170       ??B?$__crt_unique_heap_ptr@PEADU__crt_internal_free_policy@@@@QEBA_NXZ 000000014004e170 f i libucrt:environment_initialization.obj
 0001:0004d17c       ??B?$__crt_unique_heap_ptr@PEA_WU__crt_internal_free_policy@@@@QEBA_NXZ 000000014004e17c f i libucrt:environment_initialization.obj
 0001:0004d188       ??B?$__crt_unique_heap_ptr@_WU__crt_internal_free_policy@@@@QEBA_NXZ 000000014004e188 f i libucrt:environment_initialization.obj
 0001:0004d194       ?__crt_compute_required_transform_buffer_count@@YA_KIQEBD@Z 000000014004e194 f i libucrt:environment_initialization.obj
 0001:0004d1c4       ?__crt_compute_required_transform_buffer_count@@YA_KIQEB_W@Z 000000014004e1c4 f i libucrt:environment_initialization.obj
 0001:0004d200       ?__crt_transform_string@@YA_KIQEBDQEA_W_K@Z 000000014004e200 f i libucrt:environment_initialization.obj
 0001:0004d22c       ?__crt_transform_string@@YA_KIQEB_WQEAD_K@Z 000000014004e22c f i libucrt:environment_initialization.obj
 0001:0004d268       ?detach@?$__crt_unique_heap_ptr@DU__crt_internal_free_policy@@@@QEAAPEADXZ 000000014004e268 f i libucrt:environment_initialization.obj
 0001:0004d274       ?detach@?$__crt_unique_heap_ptr@_WU__crt_internal_free_policy@@@@QEAAPEA_WXZ 000000014004e274 f i libucrt:environment_initialization.obj
 0001:0004d280       ?get@?$__crt_unique_heap_ptr@_WU__crt_internal_free_policy@@@@QEBAPEA_WXZ 000000014004e280 f i libucrt:environment_initialization.obj
 0001:0004d2cc       ?initialize@?$dual_state_global@PEAPEAD@__crt_state_management@@QEAAXQEAPEAD@Z 000000014004e2cc f i libucrt:environment_initialization.obj
 0001:0004d2dc       ?initialize@?$dual_state_global@PEAPEA_W@__crt_state_management@@QEAAXQEAPEA_W@Z 000000014004e2dc f i libucrt:environment_initialization.obj
 0001:0004d2ec       ?is_valid@?$__crt_unique_heap_ptr@PEADU__crt_internal_free_policy@@@@QEBA_NXZ 000000014004e2ec f i libucrt:environment_initialization.obj
 0001:0004d2f8       ?is_valid@?$__crt_unique_heap_ptr@PEA_WU__crt_internal_free_policy@@@@QEBA_NXZ 000000014004e2f8 f i libucrt:environment_initialization.obj
 0001:0004d304       ?is_valid@?$__crt_unique_heap_ptr@_WU__crt_internal_free_policy@@@@QEBA_NXZ 000000014004e304 f i libucrt:environment_initialization.obj
 0001:0004d31c       ?release@?$__crt_unique_heap_ptr@_WU__crt_internal_free_policy@@@@QEAAXXZ 000000014004e31c f i libucrt:environment_initialization.obj
 0001:0004d340       ?value@?$dual_state_global@PEAPEAD@__crt_state_management@@QEAAAEAPEAPEADXZ 000000014004e340 f i libucrt:environment_initialization.obj
 0001:0004d344       ?value@?$dual_state_global@PEAPEA_W@__crt_state_management@@QEAAAEAPEAPEA_WXZ 000000014004e344 f i libucrt:environment_initialization.obj
 0001:0004d348       __dcrt_get_or_create_narrow_environment_nolock 000000014004e348 f   libucrt:environment_initialization.obj
 0001:0004d394       __dcrt_get_or_create_wide_environment_nolock 000000014004e394 f   libucrt:environment_initialization.obj
 0001:0004d3e0       __dcrt_uninitialize_environments_nolock 000000014004e3e0 f   libucrt:environment_initialization.obj
 0001:0004d434       __p__environ               000000014004e434 f   libucrt:environment_initialization.obj
 0001:0004d440       __p__wenviron              000000014004e440 f   libucrt:environment_initialization.obj
 0001:0004d44c       _get_initial_narrow_environment 000000014004e44c f   libucrt:environment_initialization.obj
 0001:0004d4b0       _get_initial_wide_environment 000000014004e4b0 f   libucrt:environment_initialization.obj
 0001:0004d514       _initialize_narrow_environment 000000014004e514 f   libucrt:environment_initialization.obj
 0001:0004d51c       _initialize_wide_environment 000000014004e51c f   libucrt:environment_initialization.obj
 0001:0004d660       _get_narrow_winmain_command_line 000000014004e660 f   libucrt:argv_winmain.obj
 0001:0004d6ec       _get_wide_winmain_command_line 000000014004e6ec f   libucrt:argv_winmain.obj
 0001:0004d758       _initterm                  000000014004e758 f   libucrt:initterm.obj
 0001:0004d7ac       _initterm_e                000000014004e7ac f   libucrt:initterm.obj
 0001:0004d804       ??$?B$$A6AXPEAXK0@Z@__crt_fast_encoded_nullptr_t@@QEBAP6AXPEAXK0@ZXZ 000000014004e804 f i libucrt:exit.obj
 0001:0004d894       ??$__crt_fast_decode_pointer@P6AXPEAXK0@Z@@YAP6AXPEAXK0@ZQ6AX0K0@Z@Z 000000014004e894 f i libucrt:exit.obj
 0001:0004d8b0       ??$__crt_fast_encode_pointer@P6AXPEAXK0@Z@@YAP6AXPEAXK0@ZQ6AX0K0@Z@Z 000000014004e8b0 f i libucrt:exit.obj
 0001:0004d8d8       ??$__crt_get_proc_address@P6AXI@Z@@YAP6AXI@ZQEAUHINSTANCE__@@QEBD@Z 000000014004e8d8 f i libucrt:exit.obj
 0001:0004d90c       ??0?$__crt_unique_handle_t@U__crt_hmodule_traits@@@@QEAA@QEAUHINSTANCE__@@@Z 000000014004e90c f i libucrt:exit.obj
 0001:0004d914       ??1?$__crt_unique_handle_t@U__crt_hmodule_traits@@@@QEAA@XZ 000000014004e914 f i libucrt:exit.obj
 0001:0004da50       ?__acrt_select_exit_lock@@YA?AW4__acrt_lock_id@@XZ 000000014004ea50 f i libucrt:exit.obj
 0001:0004da58       ?__crt_fast_encode_pointer@@YA?AU__crt_fast_encoded_nullptr_t@@$$T@Z 000000014004ea58 f i libucrt:exit.obj
 0001:0004da70       ?close@?$__crt_unique_handle_t@U__crt_hmodule_traits@@@@QEAAXXZ 000000014004ea70 f i libucrt:exit.obj
 0001:0004da9c       ?close@__crt_hmodule_traits@@SA_NPEAUHINSTANCE__@@@Z 000000014004ea9c f i libucrt:exit.obj
 0001:0004dbf0       ?get@?$__crt_unique_handle_t@U__crt_hmodule_traits@@@@QEBAPEAUHINSTANCE__@@XZ 000000014004ebf0 f i libucrt:exit.obj
 0001:0004dbf4       ?get_address_of@?$__crt_unique_handle_t@U__crt_hmodule_traits@@@@QEAAPEAPEAUHINSTANCE__@@XZ 000000014004ebf4 f i libucrt:exit.obj
 0001:0004dbf8       ?get_invalid_value@__crt_hmodule_traits@@SAPEAUHINSTANCE__@@XZ 000000014004ebf8 f i libucrt:exit.obj
 0001:0004dd1c       _Exit                      000000014004ed1c f   libucrt:exit.obj
 0001:0004dd2c       __acrt_initialize_thread_local_exit_callback 000000014004ed2c f   libucrt:exit.obj
 0001:0004dd38       _c_exit                    000000014004ed38 f   libucrt:exit.obj
 0001:0004dd4c       _cexit                     000000014004ed4c f   libucrt:exit.obj
 0001:0004dd5c       _exit                      000000014004ed5c f   libucrt:exit.obj
 0001:0004dd6c       _is_c_termination_complete 000000014004ed6c f   libucrt:exit.obj
 0001:0004dd78       _register_thread_local_exe_atexit_callback 000000014004ed78 f   libucrt:exit.obj
 0001:0004ddc8       exit                       000000014004edc8 f   libucrt:exit.obj
 0001:0004ddd4       quick_exit                 000000014004edd4 f   libucrt:exit.obj
 0001:0004dde4       ??$__crt_interlocked_read@H@@YAHPEDH@Z 000000014004ede4 f i libucrt:setmode.obj
 0001:0004dde8       ?value@?$dual_state_global@H@__crt_state_management@@QEAAAEAHXZ 000000014004ede8 f i libucrt:setmode.obj
 0001:0004ddec       _get_fmode                 000000014004edec f   libucrt:setmode.obj
 0001:0004de28       _set_fmode                 000000014004ee28 f   libucrt:setmode.obj
 0001:0004de74       _setmode                   000000014004ee74 f   libucrt:setmode.obj
 0001:0004dfd8       _setmode_nolock            000000014004efd8 f   libucrt:setmode.obj
 0001:0004e0fc       ??$?RU__crt_locale_data@@@__crt_internal_free_policy@@QEBAXQEBU__crt_locale_data@@@Z 000000014004f0fc f i libucrt:wsetlocale.obj
 0001:0004e108       ??$?RU__crt_locale_pointers@@@__crt_internal_free_policy@@QEBAXQEBU__crt_locale_pointers@@@Z 000000014004f108 f i libucrt:wsetlocale.obj
 0001:0004e114       ??$?RU__crt_multibyte_data@@@__crt_internal_free_policy@@QEBAXQEBU__crt_multibyte_data@@@Z 000000014004f114 f i libucrt:wsetlocale.obj
 0001:0004e614       ??0?$__crt_unique_heap_ptr@U__crt_locale_data@@U__crt_internal_free_policy@@@@QEAA@QEAU__crt_locale_data@@@Z 000000014004f614 f i libucrt:wsetlocale.obj
 0001:0004e61c       ??0?$__crt_unique_heap_ptr@U__crt_locale_pointers@@U__crt_internal_free_policy@@@@QEAA@QEAU__crt_locale_pointers@@@Z 000000014004f61c f i libucrt:wsetlocale.obj
 0001:0004e624       ??0?$__crt_unique_heap_ptr@U__crt_multibyte_data@@U__crt_internal_free_policy@@@@QEAA@QEAU__crt_multibyte_data@@@Z 000000014004f624 f i libucrt:wsetlocale.obj
 0001:0004e62c       ??0_expandlocale_locale_name_cache@@QEAA@QEA_W_KQEAU__crt_qualified_locale_data@@@Z 000000014004f62c f i libucrt:wsetlocale.obj
 0001:0004e69c       ??1?$__crt_unique_heap_ptr@U__crt_locale_data@@U__crt_internal_free_policy@@@@QEAA@XZ 000000014004f69c f i libucrt:wsetlocale.obj
 0001:0004e6c0       ??1?$__crt_unique_heap_ptr@U__crt_locale_pointers@@U__crt_internal_free_policy@@@@QEAA@XZ 000000014004f6c0 f i libucrt:wsetlocale.obj
 0001:0004e6e4       ??1?$__crt_unique_heap_ptr@U__crt_multibyte_data@@U__crt_internal_free_policy@@@@QEAA@XZ 000000014004f6e4 f i libucrt:wsetlocale.obj
 0001:0004e708       ??1_expandlocale_locale_name_cache@@QEAA@XZ 000000014004f708 f i libucrt:wsetlocale.obj
 0001:0004e764       ??B?$__crt_unique_heap_ptr@U__crt_locale_data@@U__crt_internal_free_policy@@@@QEBA_NXZ 000000014004f764 f i libucrt:wsetlocale.obj
 0001:0004e770       ??B?$__crt_unique_heap_ptr@U__crt_locale_pointers@@U__crt_internal_free_policy@@@@QEBA_NXZ 000000014004f770 f i libucrt:wsetlocale.obj
 0001:0004e77c       ??B?$__crt_unique_heap_ptr@U__crt_multibyte_data@@U__crt_internal_free_policy@@@@QEBA_NXZ 000000014004f77c f i libucrt:wsetlocale.obj
 0001:0004ea88       ?commit_locale_name@_expandlocale_locale_name_cache@@QEAAXQEB_W_K@Z 000000014004fa88 f i libucrt:wsetlocale.obj
 0001:0004eb1c       ?commit_locale_name_cache_already_updated@_expandlocale_locale_name_cache@@QEAAXQEB_W_K@Z 000000014004fb1c f i libucrt:wsetlocale.obj
 0001:0004eb6c       ?detach@?$__crt_unique_heap_ptr@U__crt_locale_data@@U__crt_internal_free_policy@@@@QEAAPEAU__crt_locale_data@@XZ 000000014004fb6c f i libucrt:wsetlocale.obj
 0001:0004eb78       ?detach@?$__crt_unique_heap_ptr@U__crt_locale_pointers@@U__crt_internal_free_policy@@@@QEAAPEAU__crt_locale_pointers@@XZ 000000014004fb78 f i libucrt:wsetlocale.obj
 0001:0004eb84       ?detach@?$__crt_unique_heap_ptr@U__crt_multibyte_data@@U__crt_internal_free_policy@@@@QEAAPEAU__crt_multibyte_data@@XZ 000000014004fb84 f i libucrt:wsetlocale.obj
 0001:0004eb90       ?get@?$__crt_unique_heap_ptr@U__crt_locale_data@@U__crt_internal_free_policy@@@@QEBAPEAU__crt_locale_data@@XZ 000000014004fb90 f i libucrt:wsetlocale.obj
 0001:0004eb94       ?get@?$__crt_unique_heap_ptr@U__crt_locale_pointers@@U__crt_internal_free_policy@@@@QEBAPEAU__crt_locale_pointers@@XZ 000000014004fb94 f i libucrt:wsetlocale.obj
 0001:0004eb98       ?get@?$__crt_unique_heap_ptr@U__crt_multibyte_data@@U__crt_internal_free_policy@@@@QEBAPEAU__crt_multibyte_data@@XZ 000000014004fb98 f i libucrt:wsetlocale.obj
 0001:0004eb9c       ?is_valid@?$__crt_unique_heap_ptr@U__crt_locale_data@@U__crt_internal_free_policy@@@@QEBA_NXZ 000000014004fb9c f i libucrt:wsetlocale.obj
 0001:0004eba8       ?is_valid@?$__crt_unique_heap_ptr@U__crt_locale_pointers@@U__crt_internal_free_policy@@@@QEBA_NXZ 000000014004fba8 f i libucrt:wsetlocale.obj
 0001:0004ebb4       ?is_valid@?$__crt_unique_heap_ptr@U__crt_multibyte_data@@U__crt_internal_free_policy@@@@QEBA_NXZ 000000014004fbb4 f i libucrt:wsetlocale.obj
 0001:0004ebc0       ?release@?$__crt_unique_heap_ptr@U__crt_locale_data@@U__crt_internal_free_policy@@@@QEAAXXZ 000000014004fbc0 f i libucrt:wsetlocale.obj
 0001:0004ebe4       ?release@?$__crt_unique_heap_ptr@U__crt_locale_pointers@@U__crt_internal_free_policy@@@@QEAAXXZ 000000014004fbe4 f i libucrt:wsetlocale.obj
 0001:0004ec08       ?release@?$__crt_unique_heap_ptr@U__crt_multibyte_data@@U__crt_internal_free_policy@@@@QEAAXXZ 000000014004fc08 f i libucrt:wsetlocale.obj
 0001:0004ec2c       ?value@?$dual_state_global@PEAU__crt_locale_data@@@__crt_state_management@@QEAAAEAPEAU__crt_locale_data@@XZ 000000014004fc2c f i libucrt:wsetlocale.obj
 0001:0004ec30       __acrt_copy_locale_name    000000014004fc30 f   libucrt:wsetlocale.obj
 0001:0004ecd4       __acrt_set_locale_changed  000000014004fcd4 f   libucrt:wsetlocale.obj
 0001:0004ece4       __acrt_uninitialize_locale 000000014004fce4 f   libucrt:wsetlocale.obj
 0001:0004ed20       __ascii_tolower            000000014004fd20 f i libucrt:wsetlocale.obj
 0001:0004ed34       __ascii_towlower           000000014004fd34 f i libucrt:wsetlocale.obj
 0001:0004ed44       __lc_lctowcs               000000014004fd44 f   libucrt:wsetlocale.obj
 0001:0004ee10       __lc_wcstolc               000000014004fe10 f   libucrt:wsetlocale.obj
 0001:0004efd0       _configthreadlocale        000000014004ffd0 f   libucrt:wsetlocale.obj
 0001:0004f144       _create_locale             0000000140050144 f   libucrt:wsetlocale.obj
 0001:0004f774       _free_locale               0000000140050774 f   libucrt:wsetlocale.obj
 0001:0004f840       _get_current_locale        0000000140050840 f   libucrt:wsetlocale.obj
 0001:0004f92c       _wcreate_locale            000000014005092c f   libucrt:wsetlocale.obj
 0001:0004fac8       _wcscats                   0000000140050ac8 f   libucrt:wsetlocale.obj
 0001:0004fb48       _wsetlocale                0000000140050b48 f   libucrt:wsetlocale.obj
 0001:00050ce0       ?value@?$dual_state_global@J@__crt_state_management@@QEAAAEAJXZ 0000000140051ce0 f i libucrt:new_mode.obj
 0001:00050ce4       _query_new_mode            0000000140051ce4 f   libucrt:new_mode.obj
 0001:00050cf0       _set_new_mode              0000000140051cf0 f   libucrt:new_mode.obj
 0001:00050d28       __p__commode               0000000140051d28 f   libucrt:ncommode.obj
 0001:00050d34       ??$?B$$A6AXXZ@__crt_fast_encoded_nullptr_t@@QEBAP6AXXZXZ 0000000140051d34 f i libucrt:onexit.obj
 0001:00050d40       ??$?BP6AXXZ@__crt_fast_encoded_nullptr_t@@QEBAPEAP6AXXZXZ 0000000140051d40 f i libucrt:onexit.obj
 0001:00050d4c       ??$?RP6AXXZ@__crt_internal_free_policy@@QEBAXQEBQ6AXXZ@Z 0000000140051d4c f i libucrt:onexit.obj
 0001:00050e5c       ??$__crt_fast_decode_pointer@P6AXXZ@@YAP6AXXZQ6AXXZ@Z 0000000140051e5c f i libucrt:onexit.obj
 0001:00050e78       ??$__crt_fast_decode_pointer@PEAP6AXXZ@@YAPEAP6AXXZQEAP6AXXZ@Z 0000000140051e78 f i libucrt:onexit.obj
 0001:00050e94       ??$__crt_fast_encode_pointer@P6AHXZ@@YAP6AHXZQ6AHXZ@Z 0000000140051e94 f i libucrt:onexit.obj
 0001:00050ebc       ??$__crt_fast_encode_pointer@P6AXXZ@@YAP6AXXZQ6AXXZ@Z 0000000140051ebc f i libucrt:onexit.obj
 0001:00050ee4       ??$__crt_fast_encode_pointer@PEAP6AXXZ@@YAPEAP6AXXZQEAP6AXXZ@Z 0000000140051ee4 f i libucrt:onexit.obj
 0001:00050f54       ??0?$__crt_unique_heap_ptr@P6AXXZU__crt_internal_free_policy@@@@QEAA@QEAP6AXXZ@Z 0000000140051f54 f i libucrt:onexit.obj
 0001:00050f5c       ??1?$__crt_unique_heap_ptr@P6AXXZU__crt_internal_free_policy@@@@QEAA@XZ 0000000140051f5c f i libucrt:onexit.obj
 0001:00050f80       ??1scoped_global_state_reset@__crt_state_management@@QEAA@XZ 0000000140051f80 f i libucrt:onexit.obj
 0001:00051328       ?detach@?$__crt_unique_heap_ptr@P6AXXZU__crt_internal_free_policy@@@@QEAAPEAP6AXXZXZ 0000000140052328 f i libucrt:onexit.obj
 0001:00051334       ?release@?$__crt_unique_heap_ptr@P6AXXZU__crt_internal_free_policy@@@@QEAAXXZ 0000000140052334 f i libucrt:onexit.obj
 0001:00051358       _crt_at_quick_exit         0000000140052358 f   libucrt:onexit.obj
 0001:0005136c       _crt_atexit                000000014005236c f   libucrt:onexit.obj
 0001:00051380       _execute_onexit_table      0000000140052380 f   libucrt:onexit.obj
 0001:000513d4       _initialize_onexit_table   00000001400523d4 f   libucrt:onexit.obj
 0001:00051404       _register_onexit_function  0000000140052404 f   libucrt:onexit.obj
 0001:000515e4       ??$?BX@__crt_fast_encoded_nullptr_t@@QEBAPEAXXZ 00000001400525e4 f i libucrt:initialization.obj
 0001:000515f0       ??$__crt_fast_encode_pointer@PEAX@@YAPEAXQEAX@Z 00000001400525f0 f i libucrt:initialization.obj
 0001:000516d8       ?__acrt_stdio_is_initialized@@YA_NXZ 00000001400526d8 f i libucrt:initialization.obj
 0001:000516e8       ?initialize@?$dual_state_global@PEAU__crt_locale_data@@@__crt_state_management@@QEAAXQEAU__crt_locale_data@@@Z 00000001400526e8 f i libucrt:initialization.obj
 0001:000516f8       __acrt_initialize          00000001400526f8 f   libucrt:initialization.obj
 0001:00051710       __acrt_thread_attach       0000000140052710 f   libucrt:initialization.obj
 0001:0005172c       __acrt_thread_detach       000000014005272c f   libucrt:initialization.obj
 0001:00051740       __acrt_uninitialize        0000000140052740 f   libucrt:initialization.obj
 0001:00051784       __acrt_uninitialize_critical 0000000140052784 f   libucrt:initialization.obj
 0001:000517b0       _get_terminate             00000001400527b0 f   libucrt:terminate.obj
 0001:000517dc       set_terminate              00000001400527dc f   libucrt:terminate.obj
 0001:00051814       terminate                  0000000140052814 f   libucrt:terminate.obj
 0001:00051848       free                       0000000140052848 f   libucrt:free.obj
 0001:00051860       malloc                     0000000140052860 f   libucrt:malloc.obj
 0001:000518e4       strcpy_s                   00000001400528e4 f   libucrt:strcpy_s.obj
 0001:0005195c       _set_abort_behavior        000000014005295c f   libucrt:abort.obj
 0001:00051980       abort                      0000000140052980 f   libucrt:abort.obj
 0001:000519ec       calloc                     00000001400529ec f   libucrt:calloc.obj
 0001:000519f4       ??$is_overflow_condition@_K@__crt_strtox@@YA_NI_K@Z 00000001400529f4 f i libucrt:atox.obj
 0001:00051a38       ??$make_c_string_character_source@D$$T@__crt_strtox@@YA?AV?$c_string_character_source@D@0@QEBD$$T@Z 0000000140052a38 f i libucrt:atox.obj
 0001:00051a50       ??$make_c_string_character_source@_W$$T@__crt_strtox@@YA?AV?$c_string_character_source@_W@0@QEB_W$$T@Z 0000000140052a50 f i libucrt:atox.obj
 0001:00051a68       ??$parse_integer@KV?$c_string_character_source@D@__crt_strtox@@$00@__crt_strtox@@YAKAEAV__crt_cached_ptd_host@@V?$c_string_character_source@D@0@H_N@Z 0000000140052a68 f i libucrt:atox.obj
 0001:00051e10       ??$parse_integer@KV?$c_string_character_source@_W@__crt_strtox@@$00@__crt_strtox@@YAKAEAV__crt_cached_ptd_host@@V?$c_string_character_source@_W@0@H_N@Z 0000000140052e10 f i libucrt:atox.obj
 0001:00052790       ??$parse_integer@_KV?$c_string_character_source@D@__crt_strtox@@$00@__crt_strtox@@YA_KAEAV__crt_cached_ptd_host@@V?$c_string_character_source@D@0@H_N@Z 0000000140053790 f i libucrt:atox.obj
 0001:00052b24       ??$parse_integer@_KV?$c_string_character_source@_W@__crt_strtox@@$00@__crt_strtox@@YA_KAEAV__crt_cached_ptd_host@@V?$c_string_character_source@_W@0@H_N@Z 0000000140053b24 f i libucrt:atox.obj
 0001:00053488       ??$parse_integer_from_string@JD$$T@__crt_strtox@@YAJQEBD$$THQEAU__crt_locale_pointers@@@Z 0000000140054488 f i libucrt:atox.obj
 0001:00053574       ??$parse_integer_from_string@J_W$$T@__crt_strtox@@YAJQEB_W$$THQEAU__crt_locale_pointers@@@Z 0000000140054574 f i libucrt:atox.obj
 0001:00053660       ??$parse_integer_from_string@_JD$$T@__crt_strtox@@YA_JQEBD$$THQEAU__crt_locale_pointers@@@Z 0000000140054660 f i libucrt:atox.obj
 0001:00053750       ??$parse_integer_from_string@_J_W$$T@__crt_strtox@@YA_JQEB_W$$THQEAU__crt_locale_pointers@@@Z 0000000140054750 f i libucrt:atox.obj
 0001:00053840       ?is_space@__crt_strtox@@YA_NDQEAU__crt_locale_pointers@@@Z 0000000140054840 f i libucrt:atox.obj
 0001:00053868       ?is_space@__crt_strtox@@YA_N_WPEAU__crt_locale_pointers@@@Z 0000000140054868 f i libucrt:atox.obj
 0001:00053888       ?maximum_signed_value@__crt_strtox@@YA_J_K@Z 0000000140054888 f i libucrt:atox.obj
 0001:00053898       ?minimum_signed_value@__crt_strtox@@YA_J_K@Z 0000000140054898 f i libucrt:atox.obj
 0001:000538a8       __acrt_get_locale_data_prefix 00000001400548a8 f i libucrt:atox.obj
 0001:000538ac       _atoi64                    00000001400548ac f   libucrt:atox.obj
 0001:0005398c       _atoi64_l                  000000014005498c f   libucrt:atox.obj
 0001:00053a78       _atoi_l                    0000000140054a78 f   libucrt:atox.obj
 0001:00053b60       _atol_l                    0000000140054b60 f   libucrt:atox.obj
 0001:00053c48       _atoll_l                   0000000140054c48 f   libucrt:atox.obj
 0001:00053d34       _chvalidchk_l              0000000140054d34 f i libucrt:atox.obj
 0001:00053db0       _ischartype_l              0000000140054db0 f i libucrt:atox.obj
 0001:00053e44       _wtoi                      0000000140054e44 f   libucrt:atox.obj
 0001:00053f20       _wtoi64                    0000000140054f20 f   libucrt:atox.obj
 0001:00054000       _wtoi64_l                  0000000140055000 f   libucrt:atox.obj
 0001:000540ec       _wtoi_l                    00000001400550ec f   libucrt:atox.obj
 0001:000541d4       _wtol                      00000001400551d4 f   libucrt:atox.obj
 0001:000542b0       _wtol_l                    00000001400552b0 f   libucrt:atox.obj
 0001:00054398       _wtoll                     0000000140055398 f   libucrt:atox.obj
 0001:00054478       _wtoll_l                   0000000140055478 f   libucrt:atox.obj
 0001:00054564       atoi                       0000000140055564 f   libucrt:atox.obj
 0001:00054640       atol                       0000000140055640 f   libucrt:atox.obj
 0001:0005471c       atoll                      000000014005571c f   libucrt:atox.obj
 0001:00054810       strncmp                    0000000140055810 f   libucrt:strncmp.obj
 0001:000548b0       wcsncmp                    00000001400558b0 f   libucrt:wcsncmp.obj
 0001:000548e8       ??$__crt_fast_decode_pointer@P6AXPEB_W00I_K@Z@@YAP6AXPEB_W00I_K@ZQ6AX000I1@Z@Z 00000001400558e8 f i libucrt:invalid_parameter.obj
 0001:00054904       ??$__crt_fast_encode_pointer@P6AXPEB_W00I_K@Z@@YAP6AXPEB_W00I_K@ZQ6AX000I1@Z@Z 0000000140055904 f i libucrt:invalid_parameter.obj
 0001:0005492c       ??$initialize_from_array@$$BY00Q6AXPEB_W00I_K@Z@?$dual_state_global@P6AXPEB_W00I_K@Z@__crt_state_management@@QEAAXAEAY00Q6AXPEB_W00I_K@Z@Z 000000014005592c f i libucrt:invalid_parameter.obj
 0001:000549bc       ?check_synchronize_global_state_index@__crt_cached_ptd_host@@AEAA_KXZ 00000001400559bc f i libucrt:invalid_parameter.obj
 0001:00054a00       ?dangerous_get_state_array@?$dual_state_global@P6AXPEB_W00I_K@Z@__crt_state_management@@QEAAPEAP6AXPEB_W00I_K@ZXZ 0000000140055a00 f i libucrt:invalid_parameter.obj
 0001:00054a04       ?get_current_global_state_index@__crt_cached_ptd_host@@QEAA_KXZ 0000000140055a04 f i libucrt:invalid_parameter.obj
 0001:00054a54       ?get_raw_ptd_noexit@__crt_cached_ptd_host@@QEAAPEAU__acrt_ptd@@XZ 0000000140055a54 f i libucrt:invalid_parameter.obj
 0001:00054ad8       ?try_synchronize_per_thread_data@__crt_cached_ptd_host@@AEAAPEAU__acrt_ptd@@XZ 0000000140055ad8 f i libucrt:invalid_parameter.obj
 0001:00054b54       ?value@?$dual_state_global@P6AXPEB_W00I_K@Z@__crt_state_management@@QEAAAEAP6AXPEB_W00I_K@ZAEAV__crt_cached_ptd_host@@@Z 0000000140055b54 f i libucrt:invalid_parameter.obj
 0001:00054bb4       ?value@?$dual_state_global@P6AXPEB_W00I_K@Z@__crt_state_management@@QEAAAEAP6AXPEB_W00I_K@ZXZ 0000000140055bb4 f i libucrt:invalid_parameter.obj
 0001:00054bb8       __acrt_call_reportfault    0000000140055bb8 f   libucrt:invalid_parameter.obj
 0001:00054d6c       __acrt_initialize_invalid_parameter_handler 0000000140055d6c f   libucrt:invalid_parameter.obj
 0001:00054d78       _get_invalid_parameter_handler 0000000140055d78 f   libucrt:invalid_parameter.obj
 0001:00054d98       _get_thread_local_invalid_parameter_handler 0000000140055d98 f   libucrt:invalid_parameter.obj
 0001:00054db8       _invalid_parameter         0000000140055db8 f   libucrt:invalid_parameter.obj
 0001:00054e7c       _invalid_parameter_internal 0000000140055e7c f   libucrt:invalid_parameter.obj
 0001:00054f7c       _invalid_parameter_noinfo  0000000140055f7c f   libucrt:invalid_parameter.obj
 0001:00054fa4       _invalid_parameter_noinfo_noreturn 0000000140055fa4 f   libucrt:invalid_parameter.obj
 0001:00054fe0       _invoke_watson             0000000140055fe0 f   libucrt:invalid_parameter.obj
 0001:00055038       _set_invalid_parameter_handler 0000000140056038 f   libucrt:invalid_parameter.obj
 0001:0005507c       _set_thread_local_invalid_parameter_handler 000000014005607c f   libucrt:invalid_parameter.obj
 0001:000550ac       ?get_doserrno@__crt_cached_ptd_host@@QEAA@XZ 00000001400560ac f i libucrt:errno.obj
 0001:000550b4       ?set@?$cached@K@__crt_cached_ptd_host@@QEAAKK@Z 00000001400560b4 f i libucrt:errno.obj
 0001:000550c0       __acrt_errno_from_os_error 00000001400560c0 f   libucrt:errno.obj
 0001:00055118       __acrt_errno_map_os_error  0000000140056118 f   libucrt:errno.obj
 0001:00055170       __acrt_errno_map_os_error_ptd 0000000140056170 f   libucrt:errno.obj
 0001:0005519c       __doserrno                 000000014005619c f   libucrt:errno.obj
 0001:000551c4       _errno                     00000001400561c4 f   libucrt:errno.obj
 0001:000551ec       _get_doserrno              00000001400561ec f   libucrt:errno.obj
 0001:00055238       _get_errno                 0000000140056238 f   libucrt:errno.obj
 0001:00055284       _set_doserrno              0000000140056284 f   libucrt:errno.obj
 0001:000552cc       _set_errno                 00000001400562cc f   libucrt:errno.obj
 0001:00055320       _free_base                 0000000140056320 f   libucrt:free_base.obj
 0001:0005536c       _malloc_base               000000014005636c f   libucrt:malloc_base.obj
 0001:00055eb0       ??1?$__crt_simd_cleanup_guard@$00@@QEAA@XZ 0000000140056eb0 f i libucrt:strnlen.obj
 0001:00055eb4       ??1?$__crt_simd_cleanup_guard@$0A@@@QEAA@XZ 0000000140056eb4 f i libucrt:strnlen.obj
 0001:00055eb8       ?compare_equals@?$__crt_simd_traits@$00E@@SA?AT__m256i@@T2@0@Z 0000000140056eb8 f i libucrt:strnlen.obj
 0001:00055ec4       ?compare_equals@?$__crt_simd_traits@$00G@@SA?AT__m256i@@T2@0@Z 0000000140056ec4 f i libucrt:strnlen.obj
 0001:00055ed0       ?compare_equals@?$__crt_simd_traits@$0A@E@@SA?AT__m128i@@T2@0@Z 0000000140056ed0 f i libucrt:strnlen.obj
 0001:00055edc       ?compare_equals@?$__crt_simd_traits@$0A@G@@SA?AT__m128i@@T2@0@Z 0000000140056edc f i libucrt:strnlen.obj
 0001:00055ee8       ?compute_byte_mask@?$__crt_simd_pack_traits@$00@@SAHT__m256i@@@Z 0000000140056ee8 f i libucrt:strnlen.obj
 0001:00055ef8       ?compute_byte_mask@?$__crt_simd_pack_traits@$0A@@@SAHT__m128i@@@Z 0000000140056ef8 f i libucrt:strnlen.obj
 0001:00055f04       ?get_zero_pack@?$__crt_simd_pack_traits@$00@@SA?AT__m256i@@XZ 0000000140056f04 f i libucrt:strnlen.obj
 0001:00055f0c       ?get_zero_pack@?$__crt_simd_pack_traits@$0A@@@SA?AT__m128i@@XZ 0000000140056f0c f i libucrt:strnlen.obj
 0001:00055f10       strnlen                    0000000140056f10 f   libucrt:strnlen.obj
 0001:000560b4       wcslen                     00000001400570b4 f   libucrt:strnlen.obj
 0001:00056228       wcsnlen                    0000000140057228 f   libucrt:strnlen.obj
 0001:00056474       ?value@?$dual_state_global@PEAU__crt_multibyte_data@@@__crt_state_management@@QEAAAEAPEAU__crt_multibyte_data@@XZ 0000000140057474 f i libucrt:locale_update.obj
 0001:00056478       ?value_explicit@?$dual_state_global@PEAU__crt_locale_data@@@__crt_state_management@@QEAAAEAPEAU__crt_locale_data@@_K@Z 0000000140057478 f i libucrt:locale_update.obj
 0001:00056480       ?value_explicit@?$dual_state_global@PEAU__crt_multibyte_data@@@__crt_state_management@@QEAAAEAPEAU__crt_multibyte_data@@_K@Z 0000000140057480 f i libucrt:locale_update.obj
 0001:00056488       __acrt_should_sync_with_global_locale 0000000140057488 f i libucrt:locale_update.obj
 0001:0005649c       __acrt_update_locale_info  000000014005749c f   libucrt:locale_update.obj
 0001:000564dc       __acrt_update_locale_info_explicit 00000001400574dc f   libucrt:locale_update.obj
 0001:00056520       __acrt_update_multibyte_info 0000000140057520 f   libucrt:locale_update.obj
 0001:00056560       __acrt_update_multibyte_info_explicit 0000000140057560 f   libucrt:locale_update.obj
 0001:000565a4       ?__acrt_fp_classify@@YA?AW4__acrt_fp_class@@AEBN@Z 00000001400575a4 f i libucrt:cvt.obj
 0001:00056618       ?__acrt_fp_is_negative@@YA_NAEBN@Z 0000000140057618 f i libucrt:cvt.obj
 0001:00057594       ?strrchr@@YAPEADQEADH@Z    0000000140058594 f i libucrt:cvt.obj
 0001:0005759c       __acrt_fp_format           000000014005859c f   libucrt:cvt.obj
 0001:0005793c       ?value_or@?$cached@H@__crt_cached_ptd_host@@QEBAHH@Z 000000014005893c f i libucrt:wctomb.obj
 0001:0005794c       _wctomb_internal           000000014005894c f   libucrt:wctomb.obj
 0001:00057b68       _wctomb_l                  0000000140058b68 f   libucrt:wctomb.obj
 0001:00057c90       _wctomb_s_l                0000000140058c90 f   libucrt:wctomb.obj
 0001:00057d68       wctomb                     0000000140058d68 f   libucrt:wctomb.obj
 0001:00057e60       wctomb_s                   0000000140058e60 f   libucrt:wctomb.obj
 0001:00057f28       _isleadbyte_fast_internal  0000000140058f28 f i libucrt:mbtowc.obj
 0001:00057f48       _mbtowc_internal           0000000140058f48 f   libucrt:mbtowc.obj
 0001:00058120       _mbtowc_l                  0000000140059120 f   libucrt:mbtowc.obj
 0001:000581ec       mbtowc                     00000001400591ec f   libucrt:mbtowc.obj
 0001:000582ac       ?lowio_handle@__crt_stdio_stream@@QEBAHXZ 00000001400592ac f i libucrt:fileno.obj
 0001:000582b8       _fileno                    00000001400592b8 f   libucrt:fileno.obj
 0001:000582e8       ??$?RPEAU__crt_stdio_stream_data@@@__crt_internal_free_policy@@QEBAXQEBQEAU__crt_stdio_stream_data@@@Z 00000001400592e8 f i libucrt:_file.obj
 0001:000582f4       ??0?$__crt_unique_heap_ptr@PEAU__crt_stdio_stream_data@@U__crt_internal_free_policy@@@@QEAA@QEAPEAU__crt_stdio_stream_data@@@Z 00000001400592f4 f i libucrt:_file.obj
 0001:000582fc       ??1?$__crt_unique_heap_ptr@PEAU__crt_stdio_stream_data@@U__crt_internal_free_policy@@@@QEAA@XZ 00000001400592fc f i libucrt:_file.obj
 0001:00058320       ?detach@?$__crt_unique_heap_ptr@PEAU__crt_stdio_stream_data@@U__crt_internal_free_policy@@@@QEAAPEAPEAU__crt_stdio_stream_data@@XZ 0000000140059320 f i libucrt:_file.obj
 0001:0005832c       ?release@?$__crt_unique_heap_ptr@PEAU__crt_stdio_stream_data@@U__crt_internal_free_policy@@@@QEAAXXZ 000000014005932c f i libucrt:_file.obj
 0001:00058350       __acrt_initialize_stdio    0000000140059350 f   libucrt:_file.obj
 0001:000584b8       __acrt_iob_func            00000001400594b8 f   libucrt:_file.obj
 0001:000584d0       __acrt_uninitialize_stdio  00000001400594d0 f   libucrt:_file.obj
 0001:00058544       _get_stream_buffer_pointers 0000000140059544 f   libucrt:_file.obj
 0001:0005859c       _lock_file                 000000014005959c f   libucrt:_file.obj
 0001:000585ac       _unlock_file               00000001400595ac f   libucrt:_file.obj
 0001:000585bc       _get_printf_count_output   00000001400595bc f   libucrt:printf_count_output.obj
 0001:000585dc       _set_printf_count_output   00000001400595dc f   libucrt:printf_count_output.obj
 0001:000586d0       _fputwc_nolock             00000001400596d0 f   libucrt:fputwc.obj
 0001:00058790       _fputwc_nolock_internal    0000000140059790 f   libucrt:fputwc.obj
 0001:0005897c       _fputwchar                 000000014005997c f   libucrt:fputwc.obj
 0001:000589a8       _putwc_nolock              00000001400599a8 f   libucrt:fputwc.obj
 0001:000589b0       fputwc                     00000001400599b0 f   libucrt:fputwc.obj
 0001:00058a70       putwc                      0000000140059a70 f   libucrt:fputwc.obj
 0001:00058a78       putwchar                   0000000140059a78 f   libucrt:fputwc.obj
 0001:00058c40       _fputc_nolock              0000000140059c40 f   libucrt:fputc.obj
 0001:00058d18       _fputc_nolock_internal     0000000140059d18 f   libucrt:fputc.obj
 0001:00058d34       _fputchar                  0000000140059d34 f   libucrt:fputc.obj
 0001:00058d60       _putc_nolock               0000000140059d60 f   libucrt:fputc.obj
 0001:00058d68       fputc                      0000000140059d68 f   libucrt:fputc.obj
 0001:00058e28       putc                       0000000140059e28 f   libucrt:fputc.obj
 0001:00058e30       putchar                    0000000140059e30 f   libucrt:fputc.obj
 0001:00058e38       ?has_any_buffer@__crt_stdio_stream@@QEBA_NXZ 0000000140059e38 f i libucrt:_sftbuf.obj
 0001:00058e50       ?has_any_of@__crt_stdio_stream@@QEBA_NJ@Z 0000000140059e50 f i libucrt:_sftbuf.obj
 0001:00058e60       ?has_temporary_buffer@__crt_stdio_stream@@QEBA_NXZ 0000000140059e60 f i libucrt:_sftbuf.obj
 0001:00058e70       ?set_flags@__crt_stdio_stream@@QEBA_NJ@Z 0000000140059e70 f i libucrt:_sftbuf.obj
 0001:00058e98       ?unset_flags@__crt_stdio_stream@@QEBA_NJ@Z 0000000140059e98 f i libucrt:_sftbuf.obj
 0001:00058ec8       __acrt_should_use_temporary_buffer 0000000140059ec8 f   libucrt:_sftbuf.obj
 0001:00058f24       __acrt_stdio_begin_temporary_buffering_nolock 0000000140059f24 f   libucrt:_sftbuf.obj
 0001:0005901c       __acrt_stdio_end_temporary_buffering_nolock 000000014005a01c f   libucrt:_sftbuf.obj
 0001:00059068       ??$?RU__acrt_ptd@@@__crt_internal_free_policy@@QEBAXQEBU__acrt_ptd@@@Z 000000014005a068 f i libucrt:per_thread_data.obj
 0001:00059328       ??0?$__crt_unique_heap_ptr@U__acrt_ptd@@U__crt_internal_free_policy@@@@QEAA@QEAU__acrt_ptd@@@Z 000000014005a328 f i libucrt:per_thread_data.obj
 0001:00059330       ??1?$__crt_unique_heap_ptr@U__acrt_ptd@@U__crt_internal_free_policy@@@@QEAA@XZ 000000014005a330 f i libucrt:per_thread_data.obj
 0001:00059354       ??B?$__crt_unique_heap_ptr@U__acrt_ptd@@U__crt_internal_free_policy@@@@QEBA_NXZ 000000014005a354 f i libucrt:per_thread_data.obj
 0001:00059624       ?dangerous_get_state_array@?$dual_state_global@PEAU__crt_locale_data@@@__crt_state_management@@QEAAPEAPEAU__crt_locale_data@@XZ 000000014005a624 f i libucrt:per_thread_data.obj
 0001:000598b8       ?detach@?$__crt_unique_heap_ptr@U__acrt_ptd@@U__crt_internal_free_policy@@@@QEAAPEAU__acrt_ptd@@XZ 000000014005a8b8 f i libucrt:per_thread_data.obj
 0001:000598c4       ?get@?$__crt_unique_heap_ptr@U__acrt_ptd@@U__crt_internal_free_policy@@@@QEBAPEAU__acrt_ptd@@XZ 000000014005a8c4 f i libucrt:per_thread_data.obj
 0001:00059b6c       ?is_valid@?$__crt_unique_heap_ptr@U__acrt_ptd@@U__crt_internal_free_policy@@@@QEBA_NXZ 000000014005ab6c f i libucrt:per_thread_data.obj
 0001:00059b78       ?release@?$__crt_unique_heap_ptr@U__acrt_ptd@@U__crt_internal_free_policy@@@@QEAAXXZ 000000014005ab78 f i libucrt:per_thread_data.obj
 0001:00059c34       __acrt_freeptd             000000014005ac34 f   libucrt:per_thread_data.obj
 0001:00059c88       __acrt_getptd              000000014005ac88 f   libucrt:per_thread_data.obj
 0001:00059d90       __acrt_getptd_head         000000014005ad90 f   libucrt:per_thread_data.obj
 0001:00059e5c       __acrt_getptd_noexit       000000014005ae5c f   libucrt:per_thread_data.obj
 0001:00059f58       __acrt_getptd_noexit_explicit 000000014005af58 f   libucrt:per_thread_data.obj
 0001:0005a048       __acrt_initialize_ptd      000000014005b048 f   libucrt:per_thread_data.obj
 0001:0005a090       __acrt_uninitialize_ptd    000000014005b090 f   libucrt:per_thread_data.obj
 0001:0005a0bc       __threadhandle             000000014005b0bc f   libucrt:per_thread_data.obj
 0001:0005a0c4       __threadid                 000000014005b0c4 f   libucrt:per_thread_data.obj
 0001:0005a0cc       __p___mb_cur_max           000000014005b0cc f   libucrt:nlsdata.obj
 0001:0005a3a0       __acrt_initialize_lowio    000000014005b3a0 f   libucrt:ioinit.obj
 0001:0005a3ec       __acrt_uninitialize_lowio  000000014005b3ec f   libucrt:ioinit.obj
 0001:0005a43c       _set_error_mode            000000014005b43c f   libucrt:set_error_mode.obj
 0001:0005a530       wcscat_s                   000000014005b530 f   libucrt:wcscat_s.obj
 0001:0005a64c       wcscpy_s                   000000014005b64c f   libucrt:wcscpy_s.obj
 0001:0005a7fc       wcsncpy_s                  000000014005b7fc f   libucrt:wcsncpy_s.obj
 0001:0005aad4       ??$message_box@$$TAEBQEBDAEBQEBDK@?$__crt_char_traits@D@@SAH$$QEA$$TAEBQEBD1$$QEAK@Z 000000014005bad4 f i libucrt:crtmbox.obj
 0001:0005aaec       ??$message_box@$$TAEBQEB_WAEBQEB_WK@?$__crt_char_traits@_W@@SAH$$QEA$$TAEBQEB_W1$$QEAK@Z 000000014005baec f i libucrt:crtmbox.obj
 0001:0005ab04       ??$message_box@PEAUHWND__@@AEBQEBDAEBQEBDAEBI@?$__crt_char_traits@D@@SAH$$QEAPEAUHWND__@@AEBQEBD1AEBI@Z 000000014005bb04 f i libucrt:crtmbox.obj
 0001:0005ab1c       ??$message_box@PEAUHWND__@@AEBQEB_WAEBQEB_WAEBI@?$__crt_char_traits@_W@@SAH$$QEAPEAUHWND__@@AEBQEB_W1AEBI@Z 000000014005bb1c f i libucrt:crtmbox.obj
 0001:0005ab34       ??$output_debug_string@AEBQEBD@?$__crt_char_traits@D@@SAXAEBQEBD@Z 000000014005bb34 f i libucrt:crtmbox.obj
 0001:0005ab40       ??$output_debug_string@AEBQEB_W@?$__crt_char_traits@_W@@SAXAEBQEB_W@Z 000000014005bb40 f i libucrt:crtmbox.obj
 0001:0005ab4c       __acrt_show_narrow_message_box 000000014005bb4c f   libucrt:crtmbox.obj
 0001:0005ac18       __acrt_show_wide_message_box 000000014005bc18 f   libucrt:crtmbox.obj
 0001:0005ace8       _calloc_base               000000014005bce8 f   libucrt:calloc_base.obj
 0001:0005adac       ??$__acrt_convert_wcs_mbs_cp@D_WV<lambda_7c9dea7b4ca7285d2cdb541a38da6275>@@U__crt_win32_buffer_internal_dynamic_resizing@@@@YAHQEBDAEAV?$__crt_win32_buffer@_WU__crt_win32_buffer_internal_dynamic_resizing@@@@AEBV<lambda_7c9dea7b4ca7285d2cdb541a38da6275>@@I@Z 000000014005bdac f i libucrt:argv_wildcards.obj
 0001:0005af84       ??$__acrt_convert_wcs_mbs_cp@_WDV<lambda_d8593a27d1aa8c02be35c86a17d324c4>@@U__crt_win32_buffer_internal_dynamic_resizing@@@@YAHQEB_WAEAV?$__crt_win32_buffer@DU__crt_win32_buffer_internal_dynamic_resizing@@@@AEBV<lambda_d8593a27d1aa8c02be35c86a17d324c4>@@I@Z 000000014005bf84 f i libucrt:argv_wildcards.obj
 0001:0005b174       ??$__acrt_mbs_to_wcs_cp@U__crt_win32_buffer_internal_dynamic_resizing@@@@YAHQEBDAEAV?$__crt_win32_buffer@_WU__crt_win32_buffer_internal_dynamic_resizing@@@@I@Z 000000014005c174 f i libucrt:argv_wildcards.obj
 0001:0005b184       ??$__acrt_wcs_to_mbs_cp@U__crt_win32_buffer_internal_dynamic_resizing@@@@YAHQEB_WAEAV?$__crt_win32_buffer@DU__crt_win32_buffer_internal_dynamic_resizing@@@@I@Z 000000014005c184 f i libucrt:argv_wildcards.obj
 0001:0005c334       ??$tcslen@AEBQEBD@?$__crt_char_traits@D@@SA_KAEBQEBD@Z 000000014005d334 f i libucrt:argv_wildcards.obj
 0001:0005c34c       ??$tcslen@AEBQEB_W@?$__crt_char_traits@_W@@SA_KAEBQEB_W@Z 000000014005d34c f i libucrt:argv_wildcards.obj
 0001:0005c364       ??$tcsncpy_s@AEAPEAD_KAEAPEADAEB_K@?$__crt_char_traits@D@@SAHAEAPEAD$$QEA_K0AEB_K@Z 000000014005d364 f i libucrt:argv_wildcards.obj
 0001:0005c37c       ??$tcsncpy_s@AEAPEA_W_KAEAPEA_WAEB_K@?$__crt_char_traits@_W@@SAHAEAPEA_W$$QEA_K0AEB_K@Z 000000014005d37c f i libucrt:argv_wildcards.obj
 0001:0005c394       ??$tcsncpy_s@PEADAEB_KAEBQEBDAEB_K@?$__crt_char_traits@D@@SAH$$QEAPEADAEB_KAEBQEBD1@Z 000000014005d394 f i libucrt:argv_wildcards.obj
 0001:0005c3ac       ??$tcsncpy_s@PEAD_KAEBQEBDAEB_K@?$__crt_char_traits@D@@SAH$$QEAPEAD$$QEA_KAEBQEBDAEB_K@Z 000000014005d3ac f i libucrt:argv_wildcards.obj
 0001:0005c3c4       ??$tcsncpy_s@PEA_WAEB_KAEBQEB_WAEB_K@?$__crt_char_traits@_W@@SAH$$QEAPEA_WAEB_KAEBQEB_W1@Z 000000014005d3c4 f i libucrt:argv_wildcards.obj
 0001:0005c3dc       ??$tcsncpy_s@PEA_W_KAEBQEB_WAEB_K@?$__crt_char_traits@_W@@SAH$$QEAPEA_W$$QEA_KAEBQEB_WAEB_K@Z 000000014005d3dc f i libucrt:argv_wildcards.obj
 0001:0005c3f4       ??$tcspbrk@AEAPEADAEAY02$$CBD@?$__crt_char_traits@D@@SAPEADAEAPEADAEAY02$$CBD@Z 000000014005d3f4 f i libucrt:argv_wildcards.obj
 0001:0005c400       ??$tcspbrk@AEAPEA_WAEAY02$$CB_W@?$__crt_char_traits@_W@@SAPEA_WAEAPEA_WAEAY02$$CB_W@Z 000000014005d400 f i libucrt:argv_wildcards.obj
 0001:0005c40c       ??0?$__crt_unique_handle_t@U__crt_findfile_traits@@@@QEAA@QEAX@Z 000000014005d40c f i libucrt:argv_wildcards.obj
 0001:0005c414       ??0?$__crt_win32_buffer@DU__crt_win32_buffer_internal_dynamic_resizing@@@@QEAA@XZ 000000014005d414 f i libucrt:argv_wildcards.obj
 0001:0005c438       ??0?$__crt_win32_buffer@_WU__crt_win32_buffer_internal_dynamic_resizing@@@@QEAA@XZ 000000014005d438 f i libucrt:argv_wildcards.obj
 0001:0005c48c       ??0_LocaleUpdate@@QEAA@QEAU__crt_locale_pointers@@@Z 000000014005d48c f i libucrt:argv_wildcards.obj
 0001:0005c550       ??1?$__crt_unique_handle_t@U__crt_findfile_traits@@@@QEAA@XZ 000000014005d550 f i libucrt:argv_wildcards.obj
 0001:0005c57c       ??1?$__crt_win32_buffer@DU__crt_win32_buffer_internal_dynamic_resizing@@@@QEAA@XZ 000000014005d57c f i libucrt:argv_wildcards.obj
 0001:0005c5a8       ??1?$__crt_win32_buffer@_WU__crt_win32_buffer_internal_dynamic_resizing@@@@QEAA@XZ 000000014005d5a8 f i libucrt:argv_wildcards.obj
 0001:0005c664       ??1_LocaleUpdate@@QEAA@XZ  000000014005d664 f i libucrt:argv_wildcards.obj
 0001:0005c694       ??R<lambda_7c9dea7b4ca7285d2cdb541a38da6275>@@QEBA@IQEBDQEA_W_K@Z 000000014005d694 f i libucrt:argv_wildcards.obj
 0001:0005c744       ??R<lambda_d8593a27d1aa8c02be35c86a17d324c4>@@QEBA@IQEB_WQEAD_K@Z 000000014005d744 f i libucrt:argv_wildcards.obj
 0001:0005c780       ?GetLocaleT@_LocaleUpdate@@QEAAPEAU__crt_locale_pointers@@XZ 000000014005d780 f i libucrt:argv_wildcards.obj
 0001:0005c788       ?__acrt_get_utf8_acp_compatibility_codepage@@YAIXZ 000000014005d788 f i libucrt:argv_wildcards.obj
 0001:0005c7e4       ?_deallocate@?$__crt_win32_buffer@DU__crt_win32_buffer_internal_dynamic_resizing@@@@AEAAXXZ 000000014005d7e4 f i libucrt:argv_wildcards.obj
 0001:0005c810       ?_deallocate@?$__crt_win32_buffer@_WU__crt_win32_buffer_internal_dynamic_resizing@@@@AEAAXXZ 000000014005d810 f i libucrt:argv_wildcards.obj
 0001:0005c83c       ?allocate@?$__crt_win32_buffer@DU__crt_win32_buffer_internal_dynamic_resizing@@@@QEAAH_K@Z 000000014005d83c f i libucrt:argv_wildcards.obj
 0001:0005c8b8       ?allocate@?$__crt_win32_buffer@_WU__crt_win32_buffer_internal_dynamic_resizing@@@@QEAAH_K@Z 000000014005d8b8 f i libucrt:argv_wildcards.obj
 0001:0005c934       ?allocate@__crt_win32_buffer_internal_dynamic_resizing@@SAHQEAPEAX_KAEBV__crt_win32_buffer_empty_debug_info@@@Z 000000014005d934 f i libucrt:argv_wildcards.obj
 0001:0005cb94       ?capacity@?$__crt_win32_buffer@DU__crt_win32_buffer_internal_dynamic_resizing@@@@QEBA_KXZ 000000014005db94 f i libucrt:argv_wildcards.obj
 0001:0005cb9c       ?capacity@?$__crt_win32_buffer@_WU__crt_win32_buffer_internal_dynamic_resizing@@@@QEBA_KXZ 000000014005db9c f i libucrt:argv_wildcards.obj
 0001:0005cba4       ?close@?$__crt_unique_handle_t@U__crt_findfile_traits@@@@QEAAXXZ 000000014005dba4 f i libucrt:argv_wildcards.obj
 0001:0005cbd0       ?close@__crt_findfile_traits@@SA_NPEAX@Z 000000014005dbd0 f i libucrt:argv_wildcards.obj
 0001:0005cbec       ?data@?$__crt_win32_buffer@DU__crt_win32_buffer_internal_dynamic_resizing@@@@QEAAPEADXZ 000000014005dbec f i libucrt:argv_wildcards.obj
 0001:0005cbf4       ?data@?$__crt_win32_buffer@_WU__crt_win32_buffer_internal_dynamic_resizing@@@@QEAAPEA_WXZ 000000014005dbf4 f i libucrt:argv_wildcards.obj
 0001:0005cbfc       ?deallocate@__crt_win32_buffer_internal_dynamic_resizing@@SAXQEAXAEBV__crt_win32_buffer_empty_debug_info@@@Z 000000014005dbfc f i libucrt:argv_wildcards.obj
 0001:0005cc04       ?debug_info@?$__crt_win32_buffer@DU__crt_win32_buffer_internal_dynamic_resizing@@@@QEBAAEBV__crt_win32_buffer_empty_debug_info@@XZ 000000014005dc04 f i libucrt:argv_wildcards.obj
 0001:0005cc08       ?debug_info@?$__crt_win32_buffer@_WU__crt_win32_buffer_internal_dynamic_resizing@@@@QEBAAEBV__crt_win32_buffer_empty_debug_info@@XZ 000000014005dc08 f i libucrt:argv_wildcards.obj
 0001:0005ce0c       ?get@?$__crt_unique_handle_t@U__crt_findfile_traits@@@@QEBAPEAXXZ 000000014005de0c f i libucrt:argv_wildcards.obj
 0001:0005cee0       ?get_invalid_value@__crt_findfile_traits@@SAPEAXXZ 000000014005dee0 f i libucrt:argv_wildcards.obj
 0001:0005cfc8       ?set_to_nullptr@?$__crt_win32_buffer@DU__crt_win32_buffer_internal_dynamic_resizing@@@@QEAAXXZ 000000014005dfc8 f i libucrt:argv_wildcards.obj
 0001:0005d010       ?set_to_nullptr@?$__crt_win32_buffer@_WU__crt_win32_buffer_internal_dynamic_resizing@@@@QEAAXXZ 000000014005e010 f i libucrt:argv_wildcards.obj
 0001:0005d058       ?size@?$__crt_win32_buffer@DU__crt_win32_buffer_internal_dynamic_resizing@@@@QEAAX_K@Z 000000014005e058 f i libucrt:argv_wildcards.obj
 0001:0005d060       ?size@?$__crt_win32_buffer@_WU__crt_win32_buffer_internal_dynamic_resizing@@@@QEAAX_K@Z 000000014005e060 f i libucrt:argv_wildcards.obj
 0001:0005d088       ?strpbrk@@YAPEADQEADQEBD@Z 000000014005e088 f i libucrt:argv_wildcards.obj
 0001:0005d090       ?wcspbrk@@YAPEA_WPEA_WPEB_W@Z 000000014005e090 f i libucrt:argv_wildcards.obj
 0001:0005d098       __acrt_expand_narrow_argv_wildcards 000000014005e098 f   libucrt:argv_wildcards.obj
 0001:0005d0a0       __acrt_expand_wide_argv_wildcards 000000014005e0a0 f   libucrt:argv_wildcards.obj
 0001:0005d0a8       ??$__acrt_convert_wcs_mbs_cp@_WDV<lambda_f788ae46380686e8b737efdd8c720d07>@@U__crt_win32_buffer_no_resizing@@@@YAHQEB_WAEAV?$__crt_win32_buffer@DU__crt_win32_buffer_no_resizing@@@@AEBV<lambda_f788ae46380686e8b737efdd8c720d07>@@I@Z 000000014005e0a8 f i libucrt:getmodulefilenamea.obj
 0001:0005d208       ??$__acrt_wcs_to_mbs_cp@U__crt_win32_buffer_no_resizing@@@@YAHQEB_WAEAV?$__crt_win32_buffer@DU__crt_win32_buffer_no_resizing@@@@I@Z 000000014005e208 f i libucrt:getmodulefilenamea.obj
 0001:0005d218       ??0?$__crt_win32_buffer@DU__crt_win32_buffer_no_resizing@@@@QEAA@QEAD_K@Z 000000014005e218 f i libucrt:getmodulefilenamea.obj
 0001:0005d23c       ??1?$__crt_win32_buffer@DU__crt_win32_buffer_no_resizing@@@@QEAA@XZ 000000014005e23c f i libucrt:getmodulefilenamea.obj
 0001:0005d24c       ??R<lambda_f788ae46380686e8b737efdd8c720d07>@@QEBA@IQEB_WQEAD_K@Z 000000014005e24c f i libucrt:getmodulefilenamea.obj
 0001:0005d288       ?_deallocate@?$__crt_win32_buffer@DU__crt_win32_buffer_no_resizing@@@@AEAAXXZ 000000014005e288 f i libucrt:getmodulefilenamea.obj
 0001:0005d298       ?allocate@?$__crt_win32_buffer@DU__crt_win32_buffer_no_resizing@@@@QEAAH_K@Z 000000014005e298 f i libucrt:getmodulefilenamea.obj
 0001:0005d2d4       ?allocate@__crt_win32_buffer_no_resizing@@SAHQEAPEAX_KAEBV__crt_win32_buffer_empty_debug_info@@@Z 000000014005e2d4 f i libucrt:getmodulefilenamea.obj
 0001:0005d2f0       ?capacity@?$__crt_win32_buffer@DU__crt_win32_buffer_no_resizing@@@@QEBA_KXZ 000000014005e2f0 f i libucrt:getmodulefilenamea.obj
 0001:0005d2f8       ?data@?$__crt_win32_buffer@DU__crt_win32_buffer_no_resizing@@@@QEAAPEADXZ 000000014005e2f8 f i libucrt:getmodulefilenamea.obj
 0001:0005d300       ?deallocate@__crt_win32_buffer_no_resizing@@SAXQEAXAEBV__crt_win32_buffer_empty_debug_info@@@Z 000000014005e300 f i libucrt:getmodulefilenamea.obj
 0001:0005d304       ?debug_info@?$__crt_win32_buffer@DU__crt_win32_buffer_no_resizing@@@@QEBAAEBV__crt_win32_buffer_empty_debug_info@@XZ 000000014005e304 f i libucrt:getmodulefilenamea.obj
 0001:0005d308       ?set_to_nullptr@?$__crt_win32_buffer@DU__crt_win32_buffer_no_resizing@@@@QEAAXXZ 000000014005e308 f i libucrt:getmodulefilenamea.obj
 0001:0005d324       ?size@?$__crt_win32_buffer@DU__crt_win32_buffer_no_resizing@@@@QEAAX_K@Z 000000014005e324 f i libucrt:getmodulefilenamea.obj
 0001:0005d32c       ?size@?$__crt_win32_buffer@DU__crt_win32_buffer_no_resizing@@@@QEBA_KXZ 000000014005e32c f i libucrt:getmodulefilenamea.obj
 0001:0005d334       __acrt_GetModuleFileNameA  000000014005e334 f   libucrt:getmodulefilenamea.obj
 0001:0005d714       ??$initialize_from_array@$$BY10BAA@E@?$dual_state_global@PEAE@__crt_state_management@@QEAAXAEAY10BAA@E@Z 000000014005e714 f i libucrt:mbctype.obj
 0001:0005d718       ??$initialize_from_array@$$BY10BAB@E@?$dual_state_global@PEAE@__crt_state_management@@QEAAXAEAY10BAB@E@Z 000000014005e718 f i libucrt:mbctype.obj
 0001:0005d9a4       ?dangerous_get_state_array@?$dual_state_global@PEAE@__crt_state_management@@QEAAPEAPEAEXZ 000000014005e9a4 f i libucrt:mbctype.obj
 0001:0005d9a8       ?dangerous_get_state_array@?$dual_state_global@PEAU__crt_multibyte_data@@@__crt_state_management@@QEAAPEAPEAU__crt_multibyte_data@@XZ 000000014005e9a8 f i libucrt:mbctype.obj
 0001:0005da48       ?initialize@?$dual_state_global@PEAU__crt_multibyte_data@@@__crt_state_management@@QEAAXQEAU__crt_multibyte_data@@@Z 000000014005ea48 f i libucrt:mbctype.obj
 0001:0005e16c       ?value@?$dual_state_global@PEAE@__crt_state_management@@QEAAAEAPEAEXZ 000000014005f16c f i libucrt:mbctype.obj
 0001:0005e170       __acrt_initialize_multibyte 000000014005f170 f   libucrt:mbctype.obj
 0001:0005e1e8       __acrt_update_thread_multibyte_data 000000014005f1e8 f   libucrt:mbctype.obj
 0001:0005e20c       __p__mbcasemap             000000014005f20c f   libucrt:mbctype.obj
 0001:0005e218       __p__mbctype               000000014005f218 f   libucrt:mbctype.obj
 0001:0005e224       _getmbcp                   000000014005f224 f   libucrt:mbctype.obj
 0001:0005e26c       _setmbcp                   000000014005f26c f   libucrt:mbctype.obj
 0001:0005e29c       _setmbcp_nolock            000000014005f29c f   libucrt:mbctype.obj
 0001:0005e740       _ismbbalnum                000000014005f740 f   libucrt:ismbbyte.obj
 0001:0005e75c       _ismbbalnum_l              000000014005f75c f   libucrt:ismbbyte.obj
 0001:0005e77c       _ismbbalpha                000000014005f77c f   libucrt:ismbbyte.obj
 0001:0005e798       _ismbbalpha_l              000000014005f798 f   libucrt:ismbbyte.obj
 0001:0005e7b8       _ismbbblank                000000014005f7b8 f   libucrt:ismbbyte.obj
 0001:0005e7dc       _ismbbblank_l              000000014005f7dc f   libucrt:ismbbyte.obj
 0001:0005e804       _ismbbgraph                000000014005f804 f   libucrt:ismbbyte.obj
 0001:0005e820       _ismbbgraph_l              000000014005f820 f   libucrt:ismbbyte.obj
 0001:0005e840       _ismbbkalnum               000000014005f840 f   libucrt:ismbbyte.obj
 0001:0005e858       _ismbbkalnum_l             000000014005f858 f   libucrt:ismbbyte.obj
 0001:0005e874       _ismbbkana                 000000014005f874 f   libucrt:ismbbyte.obj
 0001:0005e87c       _ismbbkana_l               000000014005f87c f   libucrt:ismbbyte.obj
 0001:0005e8fc       _ismbbkprint               000000014005f8fc f   libucrt:ismbbyte.obj
 0001:0005e914       _ismbbkprint_l             000000014005f914 f   libucrt:ismbbyte.obj
 0001:0005e930       _ismbbkpunct               000000014005f930 f   libucrt:ismbbyte.obj
 0001:0005e948       _ismbbkpunct_l             000000014005f948 f   libucrt:ismbbyte.obj
 0001:0005e964       _ismbblead                 000000014005f964 f   libucrt:ismbbyte.obj
 0001:0005e97c       _ismbblead_l               000000014005f97c f   libucrt:ismbbyte.obj
 0001:0005e998       _ismbbprint                000000014005f998 f   libucrt:ismbbyte.obj
 0001:0005e9b4       _ismbbprint_l              000000014005f9b4 f   libucrt:ismbbyte.obj
 0001:0005e9d4       _ismbbpunct                000000014005f9d4 f   libucrt:ismbbyte.obj
 0001:0005e9ec       _ismbbpunct_l              000000014005f9ec f   libucrt:ismbbyte.obj
 0001:0005ea08       _ismbbtrail                000000014005fa08 f   libucrt:ismbbyte.obj
 0001:0005ea20       _ismbbtrail_l              000000014005fa20 f   libucrt:ismbbyte.obj
 0001:0005ea3c       __acrt_initialize_command_line 000000014005fa3c f   libucrt:argv_data.obj
 0001:0005ea6c       __acrt_uninitialize_command_line 000000014005fa6c f   libucrt:argv_data.obj
 0001:0005ea70       __p___argc                 000000014005fa70 f   libucrt:argv_data.obj
 0001:0005ea7c       __p___argv                 000000014005fa7c f   libucrt:argv_data.obj
 0001:0005ea88       __p___wargv                000000014005fa88 f   libucrt:argv_data.obj
 0001:0005ea94       __p__acmdln                000000014005fa94 f   libucrt:argv_data.obj
 0001:0005eaa0       __p__pgmptr                000000014005faa0 f   libucrt:argv_data.obj
 0001:0005eaac       __p__wcmdln                000000014005faac f   libucrt:argv_data.obj
 0001:0005eab8       __p__wpgmptr               000000014005fab8 f   libucrt:argv_data.obj
 0001:0005eac4       _get_pgmptr                000000014005fac4 f   libucrt:argv_data.obj
 0001:0005eb08       _get_wpgmptr               000000014005fb08 f   libucrt:argv_data.obj
 0001:0005ebfc       __acrt_MultiByteToWideChar 000000014005fbfc f   libucrt:multibytetowidechar.obj
 0001:0005ed58       __acrt_WideCharToMultiByte 000000014005fd58 f   libucrt:widechartomultibyte.obj
 0001:0005ef34       __dcrt_get_narrow_environment_from_os 000000014005ff34 f   libucrt:get_environment_from_os.obj
 0001:0005f088       __dcrt_get_wide_environment_from_os 0000000140060088 f   libucrt:get_environment_from_os.obj
 0001:0005fdc4       ??$get_or_create_environment_nolock@$$V@?$__crt_char_traits@D@@SAPEAPEADXZ 0000000140060dc4 f i libucrt:setenv.obj
 0001:0005fdcc       ??$get_or_create_environment_nolock@$$V@?$__crt_char_traits@_W@@SAPEAPEA_WXZ 0000000140060dcc f i libucrt:setenv.obj
 0001:0005fdd4       ??$set_environment_variable@AEBQEADQEAD@?$__crt_char_traits@D@@SAHAEBQEAD$$QEBQEAD@Z 0000000140060dd4 f i libucrt:setenv.obj
 0001:0005fde4       ??$set_environment_variable@AEBQEA_WQEA_W@?$__crt_char_traits@_W@@SAHAEBQEA_W$$QEBQEA_W@Z 0000000140060de4 f i libucrt:setenv.obj
 0001:0005fdf4       ??$tcschr@AEBQEADD@?$__crt_char_traits@D@@SAPEADAEBQEAD$$QEAD@Z 0000000140060df4 f i libucrt:setenv.obj
 0001:0005fe04       ??$tcschr@AEBQEA_WD@?$__crt_char_traits@_W@@SAPEA_WAEBQEA_W$$QEAD@Z 0000000140060e04 f i libucrt:setenv.obj
 0001:0005fe14       ??$tcscpy_s@AEAPEADAEB_KAEAPEAD@?$__crt_char_traits@D@@SAHAEAPEADAEB_K0@Z 0000000140060e14 f i libucrt:setenv.obj
 0001:0005fe28       ??$tcscpy_s@AEAPEA_WAEB_KAEAPEA_W@?$__crt_char_traits@_W@@SAHAEAPEA_WAEB_K0@Z 0000000140060e28 f i libucrt:setenv.obj
 0001:0005fe3c       ??$tcscpy_s@AEBQEADAEB_KAEBQEAD@?$__crt_char_traits@D@@SAHAEBQEADAEB_K0@Z 0000000140060e3c f i libucrt:setenv.obj
 0001:0005fe50       ??$tcscpy_s@AEBQEA_WAEB_KAEBQEA_W@?$__crt_char_traits@_W@@SAHAEBQEA_WAEB_K0@Z 0000000140060e50 f i libucrt:setenv.obj
 0001:0005fe64       ??$tcslen@AEBQEAD@?$__crt_char_traits@D@@SA_KAEBQEAD@Z 0000000140060e64 f i libucrt:setenv.obj
 0001:0005fe7c       ??$tcslen@AEBQEA_W@?$__crt_char_traits@_W@@SA_KAEBQEA_W@Z 0000000140060e7c f i libucrt:setenv.obj
 0001:0005fe94       ??$tcsnicoll@AEBQEBDAEAPEADAEB_K@?$__crt_char_traits@D@@SAHAEBQEBDAEAPEADAEB_K@Z 0000000140060e94 f i libucrt:setenv.obj
 0001:0005fea8       ??$tcsnicoll@AEBQEB_WAEAPEA_WAEB_K@?$__crt_char_traits@_W@@SAHAEBQEB_WAEAPEA_WAEB_K@Z 0000000140060ea8 f i libucrt:setenv.obj
 0001:0005ff04       ?strchr@@YAPEADQEADH@Z     0000000140060f04 f i libucrt:setenv.obj
 0001:0005ff0c       ?wcschr@@YAPEA_WPEA_W_W@Z  0000000140060f0c f i libucrt:setenv.obj
 0001:0005ff14       __dcrt_set_variable_in_narrow_environment_nolock 0000000140060f14 f   libucrt:setenv.obj
 0001:0005ff1c       __dcrt_set_variable_in_wide_environment_nolock 0000000140060f1c f   libucrt:setenv.obj
 0001:0005ff24       __acrt_initialize_locks    0000000140060f24 f   libucrt:locks.obj
 0001:0005ff80       __acrt_lock                0000000140060f80 f   libucrt:locks.obj
 0001:0005ffa0       __acrt_uninitialize_locks  0000000140060fa0 f   libucrt:locks.obj
 0001:0005ffe4       __acrt_unlock              0000000140060fe4 f   libucrt:locks.obj
 0001:00060004       _lock_locales              0000000140061004 f   libucrt:locks.obj
 0001:00060028       _unlock_locales            0000000140061028 f   libucrt:locks.obj
 0001:0006003c       __acrt_app_verifier_enabled 000000014006103c f   libucrt:peb_access.obj
 0001:0006005c       __acrt_is_secure_process   000000014006105c f   libucrt:peb_access.obj
 0001:00060264       __acrt_get_begin_thread_init_policy 0000000140061264 f   libucrt:win_policies.obj
 0001:000602b4       __acrt_get_developer_information_policy 00000001400612b4 f   libucrt:win_policies.obj
 0001:00060308       __acrt_get_process_end_policy 0000000140061308 f   libucrt:win_policies.obj
 0001:00060344       __acrt_get_windowing_model_policy 0000000140061344 f   libucrt:win_policies.obj
 0001:000603c4       ??$?RU__crt_lowio_handle_data@@@__crt_internal_free_policy@@QEBAXQEBU__crt_lowio_handle_data@@@Z 00000001400613c4 f i libucrt:osfinfo.obj
 0001:000603d0       ??0?$__crt_unique_heap_ptr@U__crt_lowio_handle_data@@U__crt_internal_free_policy@@@@QEAA@QEAU__crt_lowio_handle_data@@@Z 00000001400613d0 f i libucrt:osfinfo.obj
 0001:000603d8       ??1?$__crt_unique_heap_ptr@U__crt_lowio_handle_data@@U__crt_internal_free_policy@@@@QEAA@XZ 00000001400613d8 f i libucrt:osfinfo.obj
 0001:000603fc       ??B?$__crt_unique_heap_ptr@U__crt_lowio_handle_data@@U__crt_internal_free_policy@@@@QEBA_NXZ 00000001400613fc f i libucrt:osfinfo.obj
 0001:00060408       ?detach@?$__crt_unique_heap_ptr@U__crt_lowio_handle_data@@U__crt_internal_free_policy@@@@QEAAPEAU__crt_lowio_handle_data@@XZ 0000000140061408 f i libucrt:osfinfo.obj
 0001:00060414       ?get@?$__crt_unique_heap_ptr@U__crt_lowio_handle_data@@U__crt_internal_free_policy@@@@QEBAPEAU__crt_lowio_handle_data@@XZ 0000000140061414 f i libucrt:osfinfo.obj
 0001:00060418       ?is_valid@?$__crt_unique_heap_ptr@U__crt_lowio_handle_data@@U__crt_internal_free_policy@@@@QEBA_NXZ 0000000140061418 f i libucrt:osfinfo.obj
 0001:00060424       ?release@?$__crt_unique_heap_ptr@U__crt_lowio_handle_data@@U__crt_internal_free_policy@@@@QEAAXXZ 0000000140061424 f i libucrt:osfinfo.obj
 0001:00060448       __acrt_lowio_create_handle_array 0000000140061448 f   libucrt:osfinfo.obj
 0001:00060518       __acrt_lowio_destroy_handle_array 0000000140061518 f   libucrt:osfinfo.obj
 0001:0006057c       __acrt_lowio_ensure_fh_exists 000000014006157c f   libucrt:osfinfo.obj
 0001:00060650       __acrt_lowio_lock_fh       0000000140061650 f   libucrt:osfinfo.obj
 0001:00060680       __acrt_lowio_set_os_handle 0000000140061680 f   libucrt:osfinfo.obj
 0001:00060770       __acrt_lowio_unlock_fh     0000000140061770 f   libucrt:osfinfo.obj
 0001:000607a0       _alloc_osfhnd              00000001400617a0 f   libucrt:osfinfo.obj
 0001:00060930       _free_osfhnd               0000000140061930 f   libucrt:osfinfo.obj
 0001:00060a18       _get_osfhandle             0000000140061a18 f   libucrt:osfinfo.obj
 0001:00060aac       _open_osfhandle            0000000140061aac f   libucrt:osfinfo.obj
 0001:00060bec       ?dangerous_get_state_array@?$dual_state_global@H@__crt_state_management@@QEAAPEAHXZ 0000000140061bec f i libucrt:txtmode.obj
 0001:00060bf0       __acrt_initialize_fmode    0000000140061bf0 f   libucrt:txtmode.obj
 0001:00060c10       __p__fmode                 0000000140061c10 f   libucrt:txtmode.obj
 0001:00060c1c       ??$?RG@__crt_internal_free_policy@@QEBAXQEBG@Z 0000000140061c1c f i libucrt:initctype.obj
 0001:00060c28       ??$?RJ@__crt_internal_free_policy@@QEBAXQEBJ@Z 0000000140061c28 f i libucrt:initctype.obj
 0001:00060c34       ??0?$__crt_unique_heap_ptr@GU__crt_internal_free_policy@@@@QEAA@QEAG@Z 0000000140061c34 f i libucrt:initctype.obj
 0001:00060c3c       ??0?$__crt_unique_heap_ptr@JU__crt_internal_free_policy@@@@QEAA@QEAJ@Z 0000000140061c3c f i libucrt:initctype.obj
 0001:00060c44       ??1?$__crt_unique_heap_ptr@GU__crt_internal_free_policy@@@@QEAA@XZ 0000000140061c44 f i libucrt:initctype.obj
 0001:00060c68       ??1?$__crt_unique_heap_ptr@JU__crt_internal_free_policy@@@@QEAA@XZ 0000000140061c68 f i libucrt:initctype.obj
 0001:00060c8c       ?detach@?$__crt_unique_heap_ptr@GU__crt_internal_free_policy@@@@QEAAPEAGXZ 0000000140061c8c f i libucrt:initctype.obj
 0001:00060c98       ?detach@?$__crt_unique_heap_ptr@JU__crt_internal_free_policy@@@@QEAAPEAJXZ 0000000140061c98 f i libucrt:initctype.obj
 0001:00060ca4       ?release@?$__crt_unique_heap_ptr@GU__crt_internal_free_policy@@@@QEAAXXZ 0000000140061ca4 f i libucrt:initctype.obj
 0001:00060cc8       ?release@?$__crt_unique_heap_ptr@JU__crt_internal_free_policy@@@@QEAAXXZ 0000000140061cc8 f i libucrt:initctype.obj
 0001:00060cec       ___lc_codepage_func        0000000140061cec f   libucrt:initctype.obj
 0001:00060d28       ___lc_collate_cp_func      0000000140061d28 f   libucrt:initctype.obj
 0001:00060d64       ___lc_locale_name_func     0000000140061d64 f   libucrt:initctype.obj
 0001:00060da4       ___mb_cur_max_func         0000000140061da4 f   libucrt:initctype.obj
 0001:00060de0       ___mb_cur_max_l_func       0000000140061de0 f   libucrt:initctype.obj
 0001:00060df4       __acrt_locale_initialize_ctype 0000000140061df4 f   libucrt:initctype.obj
 0001:000615f0       ??$?RUlconv@@@__crt_internal_free_policy@@QEBAXQEBUlconv@@@Z 00000001400625f0 f i libucrt:initmon.obj
 0001:000615fc       ??0?$__crt_unique_heap_ptr@Ulconv@@U__crt_internal_free_policy@@@@QEAA@QEAUlconv@@@Z 00000001400625fc f i libucrt:initmon.obj
 0001:00061604       ??1?$__crt_unique_heap_ptr@Ulconv@@U__crt_internal_free_policy@@@@QEAA@XZ 0000000140062604 f i libucrt:initmon.obj
 0001:00061628       ?detach@?$__crt_unique_heap_ptr@Ulconv@@U__crt_internal_free_policy@@@@QEAAPEAUlconv@@XZ 0000000140062628 f i libucrt:initmon.obj
 0001:00061634       ?release@?$__crt_unique_heap_ptr@Ulconv@@U__crt_internal_free_policy@@@@QEAAXXZ 0000000140062634 f i libucrt:initmon.obj
 0001:00061658       __acrt_locale_free_monetary 0000000140062658 f   libucrt:initmon.obj
 0001:000617a4       __acrt_locale_initialize_monetary 00000001400627a4 f   libucrt:initmon.obj
 0001:00061e48       __acrt_locale_free_numeric 0000000140062e48 f   libucrt:initnum.obj
 0001:00061ed0       __acrt_locale_initialize_numeric 0000000140062ed0 f   libucrt:initnum.obj
 0001:000622b0       ??$?RU__crt_lc_time_data@@@__crt_internal_free_policy@@QEBAXQEBU__crt_lc_time_data@@@Z 00000001400632b0 f i libucrt:inittime.obj
 0001:00062304       ??0?$__crt_unique_heap_ptr@U__crt_lc_time_data@@U__crt_internal_free_policy@@@@QEAA@QEAU__crt_lc_time_data@@@Z 0000000140063304 f i libucrt:inittime.obj
 0001:0006230c       ??1?$__crt_unique_heap_ptr@U__crt_lc_time_data@@U__crt_internal_free_policy@@@@QEAA@XZ 000000014006330c f i libucrt:inittime.obj
 0001:00062330       ??B?$__crt_unique_heap_ptr@U__crt_lc_time_data@@U__crt_internal_free_policy@@@@QEBA_NXZ 0000000140063330 f i libucrt:inittime.obj
 0001:0006233c       ?detach@?$__crt_unique_heap_ptr@U__crt_lc_time_data@@U__crt_internal_free_policy@@@@QEAAPEAU__crt_lc_time_data@@XZ 000000014006333c f i libucrt:inittime.obj
 0001:00062388       ?get@?$__crt_unique_heap_ptr@U__crt_lc_time_data@@U__crt_internal_free_policy@@@@QEBAPEAU__crt_lc_time_data@@XZ 0000000140063388 f i libucrt:inittime.obj
 0001:00062838       ?is_valid@?$__crt_unique_heap_ptr@U__crt_lc_time_data@@U__crt_internal_free_policy@@@@QEBA_NXZ 0000000140063838 f i libucrt:inittime.obj
 0001:00062844       ?release@?$__crt_unique_heap_ptr@U__crt_lc_time_data@@U__crt_internal_free_policy@@@@QEAAXXZ 0000000140063844 f i libucrt:inittime.obj
 0001:00062868       __acrt_locale_free_time    0000000140063868 f   libucrt:inittime.obj
 0001:000629b4       __acrt_locale_initialize_time 00000001400639b4 f   libucrt:inittime.obj
 0001:00062a78       __pctype_func              0000000140063a78 f   libucrt:ctype.obj
 0001:00062ab4       __pwctype_func             0000000140063ab4 f   libucrt:ctype.obj
 0001:00062bf4       wcsncat_s                  0000000140063bf4 f   libucrt:wcsncat_s.obj
 0001:00062d2c       wcscspn                    0000000140063d2c f   libucrt:wcscspn.obj
 0001:00062d7c       wcspbrk                    0000000140063d7c f   libucrt:wcspbrk.obj
 0001:00062dc0       ??0?$__crt_scoped_stack_ptr@_W@@QEAA@U?$__crt_scoped_stack_ptr_tag@_W@@@Z 0000000140063dc0 f i libucrt:getstringtypea.obj
 0001:00062dc8       ??0?$__crt_scoped_stack_ptr_tag@_W@@QEAA@QEA_W@Z 0000000140063dc8 f i libucrt:getstringtypea.obj
 0001:00062dd0       ??1?$__crt_scoped_stack_ptr@_W@@QEAA@XZ 0000000140063dd0 f i libucrt:getstringtypea.obj
 0001:00062dfc       ?get@?$__crt_scoped_stack_ptr@_W@@QEBAPEA_WXZ 0000000140063dfc f i libucrt:getstringtypea.obj
 0001:00062e00       _MallocaComputeSize        0000000140063e00 f i libucrt:getstringtypea.obj
 0001:00062e14       _MarkAllocaS               0000000140063e14 f i libucrt:getstringtypea.obj
 0001:00062e28       __acrt_GetStringTypeA      0000000140063e28 f   libucrt:getstringtypea.obj
 0001:0006301c       _freea_crt                 000000014006401c f i libucrt:getstringtypea.obj
 0001:00063044       __acrt_add_locale_ref      0000000140064044 f   libucrt:locale_refcounting.obj
 0001:000630f4       __acrt_free_locale         00000001400640f4 f   libucrt:locale_refcounting.obj
 0001:000632c8       __acrt_locale_add_lc_time_reference 00000001400642c8 f   libucrt:locale_refcounting.obj
 0001:000632f8       __acrt_locale_free_lc_time_if_unreferenced 00000001400642f8 f   libucrt:locale_refcounting.obj
 0001:0006333c       __acrt_locale_release_lc_time_reference 000000014006433c f   libucrt:locale_refcounting.obj
 0001:0006336c       __acrt_release_locale_ref  000000014006436c f   libucrt:locale_refcounting.obj
 0001:00063440       __acrt_update_thread_locale_data 0000000140064440 f   libucrt:locale_refcounting.obj
 0001:000634cc       _updatetlocinfoEx_nolock   00000001400644cc f   libucrt:locale_refcounting.obj
 0001:00063fa4       __acrt_get_qualified_locale 0000000140064fa4 f   libucrt:get_qualified_locale.obj
 0001:00064d7c       __acrt_get_qualified_locale_downlevel 0000000140065d7c f   libucrt:getqloc_downlevel.obj
 0001:000650e0       ??$?B$$A6AHPEA_WK_J@Z@__crt_fast_encoded_nullptr_t@@QEBAP6AHPEA_WK_J@ZXZ 00000001400660e0 f i libucrt:winapi_thunks.obj
 0001:000651b4       ??$__crt_fast_decode_pointer@P6AHPEA_WK_J@Z@@YAP6AHPEA_WK_J@ZQ6AH0K1@Z@Z 00000001400661b4 f i libucrt:winapi_thunks.obj
 0001:000651d0       ??$__crt_fast_decode_pointer@PEAX@@YAPEAXQEAX@Z 00000001400661d0 f i libucrt:winapi_thunks.obj
 0001:000651ec       ??$__crt_fast_encode_pointer@P6AHPEA_WK_J@Z@@YAP6AHPEA_WK_J@ZQ6AH0K1@Z@Z 00000001400661ec f i libucrt:winapi_thunks.obj
 0001:00065ef8       GetCurrentThreadEffectiveToken 0000000140066ef8 f i libucrt:winapi_thunks.obj
 0001:00065f04       __acrt_AppPolicyGetProcessTerminationMethodInternal 0000000140066f04 f   libucrt:winapi_thunks.obj
 0001:00065f74       __acrt_AppPolicyGetShowDeveloperDiagnosticInternal 0000000140066f74 f   libucrt:winapi_thunks.obj
 0001:00065fe4       __acrt_AppPolicyGetThreadInitializationTypeInternal 0000000140066fe4 f   libucrt:winapi_thunks.obj
 0001:00066054       __acrt_AppPolicyGetWindowingModelInternal 0000000140067054 f   libucrt:winapi_thunks.obj
 0001:000660c4       __acrt_AreFileApisANSI     00000001400670c4 f   libucrt:winapi_thunks.obj
 0001:0006611c       __acrt_CompareStringEx     000000014006711c f   libucrt:winapi_thunks.obj
 0001:00066244       __acrt_EnumSystemLocalesEx 0000000140067244 f   libucrt:winapi_thunks.obj
 0001:0006630c       __acrt_FlsAlloc            000000014006730c f   libucrt:winapi_thunks.obj
 0001:00066314       __acrt_FlsFree             0000000140067314 f   libucrt:winapi_thunks.obj
 0001:0006631c       __acrt_FlsGetValue         000000014006731c f   libucrt:winapi_thunks.obj
 0001:00066324       __acrt_FlsSetValue         0000000140067324 f   libucrt:winapi_thunks.obj
 0001:0006632c       __acrt_GetDateFormatEx     000000014006732c f   libucrt:winapi_thunks.obj
 0001:0006641c       __acrt_GetEnabledXStateFeatures 000000014006741c f   libucrt:winapi_thunks.obj
 0001:00066470       __acrt_GetLocaleInfoEx     0000000140067470 f   libucrt:winapi_thunks.obj
 0001:00066524       __acrt_GetSystemTimePreciseAsFileTime 0000000140067524 f   libucrt:winapi_thunks.obj
 0001:00066590       __acrt_GetTempPath2W       0000000140067590 f   libucrt:winapi_thunks.obj
 0001:00066608       __acrt_GetTimeFormatEx     0000000140067608 f   libucrt:winapi_thunks.obj
 0001:000666e8       __acrt_GetUserDefaultLocaleName 00000001400676e8 f   libucrt:winapi_thunks.obj
 0001:00066770       __acrt_GetXStateFeaturesMask 0000000140067770 f   libucrt:winapi_thunks.obj
 0001:000667e4       __acrt_InitializeCriticalSectionEx 00000001400677e4 f   libucrt:winapi_thunks.obj
 0001:00066870       __acrt_IsValidLocaleName   0000000140067870 f   libucrt:winapi_thunks.obj
 0001:000668ec       __acrt_LCIDToLocaleName    00000001400678ec f   libucrt:winapi_thunks.obj
 0001:00066990       __acrt_LCMapStringEx       0000000140067990 f   libucrt:winapi_thunks.obj
 0001:00066ab8       __acrt_LocaleNameToLCID    0000000140067ab8 f   libucrt:winapi_thunks.obj
 0001:00066b2c       __acrt_LocateXStateFeature 0000000140067b2c f   libucrt:winapi_thunks.obj
 0001:00066bb0       __acrt_MessageBoxA         0000000140067bb0 f   libucrt:winapi_thunks.obj
 0001:00066c4c       __acrt_MessageBoxW         0000000140067c4c f   libucrt:winapi_thunks.obj
 0001:00066ce8       __acrt_RoInitialize        0000000140067ce8 f   libucrt:winapi_thunks.obj
 0001:00066d44       __acrt_RoUninitialize      0000000140067d44 f   libucrt:winapi_thunks.obj
 0001:00066d90       __acrt_RtlGenRandom        0000000140067d90 f   libucrt:winapi_thunks.obj
 0001:00066e00       __acrt_SetThreadStackGuarantee 0000000140067e00 f   libucrt:winapi_thunks.obj
 0001:00066e60       __acrt_can_show_message_box 0000000140067e60 f   libucrt:winapi_thunks.obj
 0001:00066ee8       __acrt_can_use_vista_locale_apis 0000000140067ee8 f   libucrt:winapi_thunks.obj
 0001:00066f24       __acrt_can_use_xstate_apis 0000000140067f24 f   libucrt:winapi_thunks.obj
 0001:00066f60       __acrt_eagerly_load_locale_apis 0000000140067f60 f   libucrt:winapi_thunks.obj
 0001:00067110       __acrt_get_parent_window   0000000140068110 f   libucrt:winapi_thunks.obj
 0001:000671c0       __acrt_initialize_winapi_thunks 00000001400681c0 f   libucrt:winapi_thunks.obj
 0001:000671ec       __acrt_is_interactive      00000001400681ec f   libucrt:winapi_thunks.obj
 0001:00067304       __acrt_uninitialize_winapi_thunks 0000000140068304 f   libucrt:winapi_thunks.obj
 0001:00067358       localeconv                 0000000140068358 f   libucrt:localeconv.obj
 0001:00067398       _recalloc                  0000000140068398 f   libucrt:recalloc.obj
 0001:000673a0       _recalloc_base             00000001400683a0 f   libucrt:recalloc.obj
 0001:0006745c       __acrt_getheap             000000014006845c f   libucrt:heap_handle.obj
 0001:00067468       __acrt_initialize_heap     0000000140068468 f   libucrt:heap_handle.obj
 0001:0006748c       __acrt_uninitialize_heap   000000014006848c f   libucrt:heap_handle.obj
 0001:0006749c       _get_heap_handle           000000014006849c f   libucrt:heap_handle.obj
 0001:000674a8       __acrt_execute_initializers 00000001400684a8 f   libucrt:shared_initialization.obj
 0001:00067564       __acrt_execute_uninitializers 0000000140068564 f   libucrt:shared_initialization.obj
 0001:000675bc       ??$?B$$A6AH_K@Z@__crt_fast_encoded_nullptr_t@@QEBAP6AH_K@ZXZ 00000001400685bc f i libucrt:new_handler.obj
 0001:000675c8       ??$__crt_fast_decode_pointer@P6AH_K@Z@@YAP6AH_K@ZQ6AH0@Z@Z 00000001400685c8 f i libucrt:new_handler.obj
 0001:000675e4       ??$__crt_fast_encode_pointer@P6AH_K@Z@@YAP6AH_K@ZQ6AH0@Z@Z 00000001400685e4 f i libucrt:new_handler.obj
 0001:0006760c       ?_set_new_handler@@YAP6AH_K@ZH@Z 000000014006860c f   libucrt:new_handler.obj
 0001:0006761c       ?initialize@?$dual_state_global@P6AH_K@Z@__crt_state_management@@QEAAXQ6AH_K@Z@Z 000000014006861c f i libucrt:new_handler.obj
 0001:0006762c       ?value@?$dual_state_global@P6AH_K@Z@__crt_state_management@@QEAAAEAP6AH_K@ZXZ 000000014006862c f i libucrt:new_handler.obj
 0001:00067630       __acrt_initialize_new_handler 0000000140068630 f   libucrt:new_handler.obj
 0001:0006763c       _callnewh                  000000014006863c f   libucrt:new_handler.obj
 0001:0006768c       _query_new_handler         000000014006868c f   libucrt:new_handler.obj
 0001:000676d0       _set_new_handler           00000001400686d0 f   libucrt:new_handler.obj
 0001:00067740       ??$?B$$A6AXH@Z@__crt_fast_encoded_nullptr_t@@QEBAP6AXH@ZXZ 0000000140068740 f i libucrt:signal.obj
 0001:000677d8       ??$__crt_fast_decode_pointer@P6AXH@Z@@YAP6AXH@ZQ6AXH@Z@Z 00000001400687d8 f i libucrt:signal.obj
 0001:000677f4       ??$__crt_fast_encode_pointer@P6AXH@Z@@YAP6AXH@ZQ6AXH@Z@Z 00000001400687f4 f i libucrt:signal.obj
 0001:00067974       ?initialize@?$dual_state_global@P6AXH@Z@__crt_state_management@@QEAAXQ6AXH@Z@Z 0000000140068974 f i libucrt:signal.obj
 0001:00067a20       ?value@?$dual_state_global@P6AXH@Z@__crt_state_management@@QEAAAEAP6AXH@ZXZ 0000000140068a20 f i libucrt:signal.obj
 0001:00067a24       __acrt_get_sigabrt_handler 0000000140068a24 f   libucrt:signal.obj
 0001:00067a60       __acrt_initialize_signal_handlers 0000000140068a60 f   libucrt:signal.obj
 0001:00067a84       __fpecode                  0000000140068a84 f   libucrt:signal.obj
 0001:00067a9c       __pxcptinfoptrs            0000000140068a9c f   libucrt:signal.obj
 0001:00067ab4       raise                      0000000140068ab4 f   libucrt:signal.obj
 0001:00067dcc       signal                     0000000140068dcc f   libucrt:signal.obj
 0001:0006834c       ??0__crt_stdio_stream@@QEAA@QEAU__crt_stdio_stream_data@@@Z 000000014006934c f i libucrt:fflush.obj
 0001:00068518       ?__acrt_stdio_reset_buffer@@YAXV__crt_stdio_stream@@@Z 0000000140069518 f i libucrt:fflush.obj
 0001:00068640       ?has_all_of@__crt_stdio_stream@@QEBA_NJ@Z 0000000140069640 f i libucrt:fflush.obj
 0001:00068698       __acrt_stdio_flush_nolock  0000000140069698 f   libucrt:fflush.obj
 0001:00068748       _fflush_nolock             0000000140069748 f   libucrt:fflush.obj
 0001:00068850       _flushall                  0000000140069850 f   libucrt:fflush.obj
 0001:00068858       fflush                     0000000140069858 f   libucrt:fflush.obj
 0001:000688d8       _iswctype_l                00000001400698d8 f   libucrt:iswctype.obj
 0001:000688e0       iswctype                   00000001400698e0 f   libucrt:iswctype.obj
 0001:00068968       _isctype                   0000000140069968 f   libucrt:isctype.obj
 0001:000689a4       _isctype_l                 00000001400699a4 f   libucrt:isctype.obj
 0001:00068c10       __acrt_fp_strflt_to_string 0000000140069c10 f   libucrt:_fptostr.obj
 0001:0006a2f0       ??0big_integer@__crt_strtox@@QEAA@AEBU01@@Z 000000014006b2f0 f i libucrt:cfout.obj
 0001:0006a330       ??0big_integer@__crt_strtox@@QEAA@XZ 000000014006b330 f i libucrt:cfout.obj
 0001:0006a410       ??4big_integer@__crt_strtox@@QEAAAEAU01@AEBU01@@Z 000000014006b410 f i libucrt:cfout.obj
 0001:0006a450       ??8__crt_strtox@@YA_NAEBUbig_integer@0@0@Z 000000014006b450 f i libucrt:cfout.obj
 0001:0006a490       ??9__crt_strtox@@YA_NAEBUbig_integer@0@0@Z 000000014006b490 f i libucrt:cfout.obj
 0001:0006a4e0       ?add_carry@__crt_strtox@@YAIAEAIII@Z 000000014006b4e0 f i libucrt:cfout.obj
 0001:0006a500       ?add_multiply_carry@__crt_strtox@@YAIAEAIIII@Z 000000014006b500 f i libucrt:cfout.obj
 0001:0006a530       ?bit_scan_reverse@__crt_strtox@@YAII@Z 000000014006b530 f i libucrt:cfout.obj
 0001:0006a550       ?count_sequential_high_zeroes@__crt_strtox@@YAII@Z 000000014006b550 f i libucrt:cfout.obj
 0001:0006a570       ?divide@__crt_strtox@@YA_KAEAUbig_integer@1@AEBU21@@Z 000000014006b570 f i libucrt:cfout.obj
 0001:0006ab40       ?is_zero@__crt_strtox@@YA_NAEBUbig_integer@1@@Z 000000014006bb40 f i libucrt:cfout.obj
 0001:0006ab50       ?make_big_integer@__crt_strtox@@YA?AUbig_integer@1@_K@Z 000000014006bb50 f i libucrt:cfout.obj
 0001:0006ab70       ?make_big_integer_power_of_two@__crt_strtox@@YA?AUbig_integer@1@I@Z 000000014006bb70 f i libucrt:cfout.obj
 0001:0006abf0       ?multiply@__crt_strtox@@YA_NAEAUbig_integer@1@AEBU21@@Z 000000014006bbf0 f i libucrt:cfout.obj
 0001:0006b070       ?multiply@__crt_strtox@@YA_NAEAUbig_integer@1@I@Z 000000014006c070 f i libucrt:cfout.obj
 0001:0006b1a0       ?multiply_64_32@__crt_strtox@@YA_K_KI@Z 000000014006c1a0 f i libucrt:cfout.obj
 0001:0006b1b0       ?multiply_by_power_of_ten@__crt_strtox@@YA_NAEAUbig_integer@1@I@Z 000000014006c1b0 f i libucrt:cfout.obj
 0001:0006b880       ?multiply_core@__crt_strtox@@YAIQEAIII@Z 000000014006c880 f i libucrt:cfout.obj
 0001:0006b8e0       ?shift_left@__crt_strtox@@YA_NAEAUbig_integer@1@I@Z 000000014006c8e0 f i libucrt:cfout.obj
 0001:0006babc       __acrt_fltout              000000014006cabc f   libucrt:cfout.obj
 0001:0006d298       __fpe_flt_rounds           000000014006e298 f   libucrt:fegetround.obj
 0001:0006d2f0       fegetround                 000000014006e2f0 f   libucrt:fegetround.obj
 0001:0006d30c       ?__c32rtomb_utf8@__crt_mbstring@@YA_KPEAD_UPEAU_Mbstatet@@AEAV__crt_cached_ptd_host@@@Z 000000014006e30c f   libucrt:c32rtomb.obj
 0001:0006d3d8       c32rtomb                   000000014006e3d8 f   libucrt:c32rtomb.obj
 0001:0006d4c8       ?__mbrtowc_utf8@__crt_mbstring@@YA_KPEA_WPEBD_KPEAU_Mbstatet@@AEAV__crt_cached_ptd_host@@@Z 000000014006e4c8 f   libucrt:mbrtowc.obj
 0001:0006d51c       ?__mbsrtowcs_utf8@__crt_mbstring@@YA_KPEA_WPEAPEBD_KPEAU_Mbstatet@@AEAV__crt_cached_ptd_host@@@Z 000000014006e51c f   libucrt:mbrtowc.obj
 0001:0006dcd0       btowc                      000000014006ecd0 f   libucrt:mbrtowc.obj
 0001:0006dde0       mbrlen                     000000014006ede0 f   libucrt:mbrtowc.obj
 0001:0006ded8       mbrtowc                    000000014006eed8 f   libucrt:mbrtowc.obj
 0001:0006dff8       mbsrtowcs                  000000014006eff8 f   libucrt:mbrtowc.obj
 0001:0006e0c4       mbsrtowcs_s                000000014006f0c4 f   libucrt:mbrtowc.obj
 0001:0006e27c       ?is_in_use@__crt_stdio_stream@@QEBA_NXZ 000000014006f27c f i libucrt:closeall.obj
 0001:0006e28c       _fcloseall                 000000014006f28c f   libucrt:closeall.obj
 0001:0006e36c       ?has_crt_buffer@__crt_stdio_stream@@QEBA_NXZ 000000014006f36c f i libucrt:_freebuf.obj
 0001:0006e37c       __acrt_stdio_free_buffer_nolock 000000014006f37c f   libucrt:_freebuf.obj
 0001:0006e840       ?has_big_buffer@__crt_stdio_stream@@QEBA_NXZ 000000014006f840 f i libucrt:_flsbuf.obj
 0001:0006e8f0       __acrt_stdio_flush_and_write_narrow_nolock 000000014006f8f0 f   libucrt:_flsbuf.obj
 0001:0006e9f0       __acrt_stdio_flush_and_write_wide_nolock 000000014006f9f0 f   libucrt:_flsbuf.obj
 0001:0006eaf0       _isatty                    000000014006faf0 f   libucrt:isatty.obj
 0001:0006eb68       __acrt_OutputDebugStringA  000000014006fb68 f   libucrt:outputdebugstringa.obj
 0001:0006ed70       qsort                      000000014006fd70 f   libucrt:qsort.obj
 0001:0006f398       strncpy_s                  0000000140070398 f   libucrt:strncpy_s.obj
 0001:0006f590       strpbrk                    0000000140070590 f   libucrt:strpbrk.obj
 0001:0006fa4c       _mbsdec                    0000000140070a4c f   libucrt:mbsdec.obj
 0001:0006fa58       _mbsdec_l                  0000000140070a58 f   libucrt:mbsdec.obj
 0001:0006fb14       ??B?$__crt_scoped_stack_ptr@_W@@QEBA_NXZ 0000000140070b14 f i libucrt:lcmapstringa.obj
 0001:0006ff20       __acrt_LCMapStringA        0000000140070f20 f   libucrt:lcmapstringa.obj
 0001:0006fff8       _wcsnicoll                 0000000140070ff8 f   libucrt:wcsnicol.obj
 0001:0007005c       _wcsnicoll_l               000000014007105c f   libucrt:wcsnicol.obj
 0001:00070188       _strnicoll                 0000000140071188 f   libucrt:strnicol.obj
 0001:000701a4       _strnicoll_l               00000001400711a4 f   libucrt:strnicol.obj
 0001:000702e4       __acrt_SetEnvironmentVariableA 00000001400712e4 f   libucrt:setenvironmentvariablea.obj
 0001:000706c8       __acrt_GetLocaleInfoA      00000001400716c8 f   libucrt:getlocaleinfoa.obj
 0001:00070f68       _i64toa                    0000000140071f68 f   libucrt:xtoa.obj
 0001:00070fa8       _i64toa_s                  0000000140071fa8 f   libucrt:xtoa.obj
 0001:00070fd4       _i64tow                    0000000140071fd4 f   libucrt:xtoa.obj
 0001:00071014       _i64tow_s                  0000000140072014 f   libucrt:xtoa.obj
 0001:00071040       _itoa                      0000000140072040 f   libucrt:xtoa.obj
 0001:0007107c       _itoa_s                    000000014007207c f   libucrt:xtoa.obj
 0001:000710a4       _itow                      00000001400720a4 f   libucrt:xtoa.obj
 0001:000710e0       _itow_s                    00000001400720e0 f   libucrt:xtoa.obj
 0001:00071108       _ltoa                      0000000140072108 f   libucrt:xtoa.obj
 0001:00071144       _ltoa_s                    0000000140072144 f   libucrt:xtoa.obj
 0001:0007116c       _ltow                      000000014007216c f   libucrt:xtoa.obj
 0001:000711a8       _ltow_s                    00000001400721a8 f   libucrt:xtoa.obj
 0001:000711d0       _ui64toa                   00000001400721d0 f   libucrt:xtoa.obj
 0001:000711fc       _ui64toa_s                 00000001400721fc f   libucrt:xtoa.obj
 0001:00071214       _ui64tow                   0000000140072214 f   libucrt:xtoa.obj
 0001:00071240       _ui64tow_s                 0000000140072240 f   libucrt:xtoa.obj
 0001:00071258       _ultoa                     0000000140072258 f   libucrt:xtoa.obj
 0001:00071284       _ultoa_s                   0000000140072284 f   libucrt:xtoa.obj
 0001:0007129c       _ultow                     000000014007229c f   libucrt:xtoa.obj
 0001:000712c8       _ultow_s                   00000001400722c8 f   libucrt:xtoa.obj
 0001:000712e0       __ascii_wcsicmp            00000001400722e0 f   libucrt:wcsicmp.obj
 0001:00071330       _towlower_fast_internal    0000000140072330 f i libucrt:wcsicmp.obj
 0001:00071360       _towlower_internal         0000000140072360 f i libucrt:wcsicmp.obj
 0001:000713a4       _wcsicmp                   00000001400723a4 f   libucrt:wcsicmp.obj
 0001:000713fc       _wcsicmp_l                 00000001400723fc f   libucrt:wcsicmp.obj
 0001:0007157c       __ascii_wcsnicmp           000000014007257c f   libucrt:wcsnicmp.obj
 0001:000715dc       _wcsnicmp                  00000001400725dc f   libucrt:wcsnicmp.obj
 0001:00071634       _wcsnicmp_l                0000000140072634 f   libucrt:wcsnicmp.obj
 0001:000717dc       wcscmp                     00000001400727dc f   libucrt:wcscmp.obj
 0001:00071924       __acrt_DownlevelLCIDToLocaleName 0000000140072924 f   libucrt:lcidtoname_downlevel.obj
 0001:00071a44       __acrt_DownlevelLocaleNameToLCID 0000000140072a44 f   libucrt:lcidtoname_downlevel.obj
 0001:00071b10       _msize                     0000000140072b10 f   libucrt:msize.obj
 0001:00071b18       _msize_base                0000000140072b18 f   libucrt:msize.obj
 0001:00071b60       _realloc_base              0000000140072b60 f   libucrt:realloc_base.obj
 0001:00071d8c       _commit                    0000000140072d8c f   libucrt:commit.obj
 0001:00072a54       _utf8_no_of_trailbytes     0000000140073a54 f i libucrt:write.obj
 0001:00072a68       _write                     0000000140073a68 f   libucrt:write.obj
 0001:00072b28       _write_internal            0000000140073b28 f   libucrt:write.obj
 0001:00072c8c       _write_nolock              0000000140073c8c f   libucrt:write.obj
 0001:00073054       __acrt_GetStringTypeW      0000000140074054 f   libucrt:getstringtypew.obj
 0001:0007305c       _controlfp_s               000000014007405c f   libucrt:contrlfp.obj
 0001:000730d8       fegetenv                   00000001400740d8 f   libucrt:fegetenv.obj
 0001:00073100       fesetenv                   0000000140074100 f   libucrt:fesetenv.obj
 0001:00073170       feholdexcept               0000000140074170 f   libucrt:feholdexcept.obj
 0001:000731d4       ceil                       00000001400741d4 f   libucrt:ceil.obj
 0001:000732d0       log10                      00000001400742d0 f   libucrt:log10.obj
 0001:000739e8       ??$__acrt_fenv_shift_bits@W4__acrt_fenv_abstract_control@@@@YA?AW4__acrt_fenv_abstract_control@@W40@0I@Z 00000001400749e8 f i libucrt:_fenvutils.obj
 0001:000739f4       ??$__acrt_fenv_shift_bits@W4__acrt_fenv_abstract_status@@@@YA?AW4__acrt_fenv_abstract_status@@W40@0I@Z 00000001400749f4 f i libucrt:_fenvutils.obj
 0001:00073a00       ??$__acrt_fenv_translate_bit@W4__acrt_fenv_abstract_control@@W4__acrt_fenv_machine_sse_control@@@@YA?AW4__acrt_fenv_abstract_control@@W4__acrt_fenv_machine_sse_control@@0W40@1@Z 0000000140074a00 f i libucrt:_fenvutils.obj
 0001:00073a10       ??$__acrt_fenv_translate_bit@W4__acrt_fenv_abstract_status@@W4__acrt_fenv_machine_sse_status@@@@YA?AW4__acrt_fenv_abstract_status@@W4__acrt_fenv_machine_sse_status@@0W40@1@Z 0000000140074a10 f i libucrt:_fenvutils.obj
 0001:00073a1c       ??$__acrt_fenv_translate_bit@W4__acrt_fenv_machine_sse_control@@W4__acrt_fenv_abstract_control@@@@YA?AW4__acrt_fenv_machine_sse_control@@W4__acrt_fenv_abstract_control@@0W40@1@Z 0000000140074a1c f i libucrt:_fenvutils.obj
 0001:00073a2c       ??$__acrt_fenv_translate_bit@W4__acrt_fenv_machine_sse_status@@W4__acrt_fenv_abstract_status@@@@YA?AW4__acrt_fenv_machine_sse_status@@W4__acrt_fenv_abstract_status@@0W40@1@Z 0000000140074a2c f i libucrt:_fenvutils.obj
 0001:00073a38       ??$__acrt_fenv_unshift_bits@W4__acrt_fenv_abstract_control@@@@YA?AW4__acrt_fenv_abstract_control@@W40@0I@Z 0000000140074a38 f i libucrt:_fenvutils.obj
 0001:00073a44       ??$__acrt_fenv_unshift_bits@W4__acrt_fenv_abstract_status@@@@YA?AW4__acrt_fenv_abstract_status@@W40@0I@Z 0000000140074a44 f i libucrt:_fenvutils.obj
 0001:00073c6c       ??I@YA?AW4__acrt_fenv_abstract_control@@W40@0@Z 0000000140074c6c f i libucrt:_fenvutils.obj
 0001:00073c74       ??I@YA?AW4__acrt_fenv_abstract_status@@W40@0@Z 0000000140074c74 f i libucrt:_fenvutils.obj
 0001:00073c7c       ??I@YA?AW4__acrt_fenv_machine_sse_control@@W40@0@Z 0000000140074c7c f i libucrt:_fenvutils.obj
 0001:00073c84       ??I@YA?AW4__acrt_fenv_machine_sse_status@@W40@0@Z 0000000140074c84 f i libucrt:_fenvutils.obj
 0001:00073c8c       ??U@YA?AW4__acrt_fenv_abstract_control@@W40@0@Z 0000000140074c8c f i libucrt:_fenvutils.obj
 0001:00073c94       ??U@YA?AW4__acrt_fenv_abstract_status@@W40@0@Z 0000000140074c94 f i libucrt:_fenvutils.obj
 0001:00073c9c       ??U@YA?AW4__acrt_fenv_machine_sse_control@@W40@0@Z 0000000140074c9c f i libucrt:_fenvutils.obj
 0001:00073ca4       ??_5@YAAEAW4__acrt_fenv_abstract_control@@AEAW40@W40@@Z 0000000140074ca4 f i libucrt:_fenvutils.obj
 0001:00073cac       ??_5@YAAEAW4__acrt_fenv_abstract_status@@AEAW40@W40@@Z 0000000140074cac f i libucrt:_fenvutils.obj
 0001:00073cb4       ??_5@YAAEAW4__acrt_fenv_machine_sse_control@@AEAW40@W40@@Z 0000000140074cb4 f i libucrt:_fenvutils.obj
 0001:00073cbc       ??_5@YAAEAW4__acrt_fenv_machine_sse_status@@AEAW40@W40@@Z 0000000140074cbc f i libucrt:_fenvutils.obj
 0001:00073cc4       ?__acrt_fenv_shift_abstract_sse_control@@YA?AW4__acrt_fenv_abstract_control@@W41@@Z 0000000140074cc4 f i libucrt:_fenvutils.obj
 0001:00073ce0       ?__acrt_fenv_shift_abstract_sse_status@@YA?AW4__acrt_fenv_abstract_status@@W41@@Z 0000000140074ce0 f i libucrt:_fenvutils.obj
 0001:00073cec       ?__acrt_fenv_unshift_abstract_sse_control@@YA?AW4__acrt_fenv_abstract_control@@W41@@Z 0000000140074cec f i libucrt:_fenvutils.obj
 0001:00073d08       ?__acrt_fenv_unshift_abstract_sse_status@@YA?AW4__acrt_fenv_abstract_status@@W41@@Z 0000000140074d08 f i libucrt:_fenvutils.obj
 0001:00074070       __acrt_fenv_expand_round_control 0000000140075070 f   libucrt:_fenvutils.obj
 0001:00074090       __acrt_fenv_get_common_round_control 0000000140075090 f   libucrt:_fenvutils.obj
 0001:0007409c       __acrt_fenv_get_control    000000014007509c f   libucrt:_fenvutils.obj
 0001:000741b8       __acrt_fenv_get_fp_status_word_from_exception_mask 00000001400751b8 f   libucrt:_fenvutils.obj
 0001:000741c8       __acrt_fenv_get_status     00000001400751c8 f   libucrt:_fenvutils.obj
 0001:00074234       __acrt_fenv_set_control    0000000140075234 f   libucrt:_fenvutils.obj
 0001:000743b8       __acrt_fenv_set_status     00000001400753b8 f   libucrt:_fenvutils.obj
 0001:00074448       ?reset_and_return@__crt_mbstring@@YA_K_KPEAU_Mbstatet@@@Z 0000000140075448 f   libucrt:common_utf8.obj
 0001:00074454       ?return_illegal_sequence@__crt_mbstring@@YA_KPEAU_Mbstatet@@AEAV__crt_cached_ptd_host@@@Z 0000000140075454 f   libucrt:common_utf8.obj
 0001:00074470       ?__mbrtoc32_utf8@__crt_mbstring@@YA_KPEA_UPEBD_KPEAU_Mbstatet@@AEAV__crt_cached_ptd_host@@@Z 0000000140075470 f   libucrt:mbrtoc32.obj
 0001:000746c0       mbrtoc32                   00000001400756c0 f   libucrt:mbrtoc32.obj
 0001:000748f4       _fclose_nolock             00000001400758f4 f   libucrt:fclose.obj
 0001:000749b4       fclose                     00000001400759b4 f   libucrt:fclose.obj
 0001:00075074       _lseek                     0000000140076074 f   libucrt:lseek.obj
 0001:00075134       _lseek_internal            0000000140076134 f   libucrt:lseek.obj
 0001:0007513c       _lseek_nolock              000000014007613c f   libucrt:lseek.obj
 0001:000751fc       _lseek_nolock_internal     00000001400761fc f   libucrt:lseek.obj
 0001:00075204       _lseeki64                  0000000140076204 f   libucrt:lseek.obj
 0001:000752c4       _lseeki64_internal         00000001400762c4 f   libucrt:lseek.obj
 0001:000752cc       _lseeki64_nolock           00000001400762cc f   libucrt:lseek.obj
 0001:0007538c       _lseeki64_nolock_internal  000000014007638c f   libucrt:lseek.obj
 0001:00075394       __acrt_stdio_allocate_buffer_nolock 0000000140076394 f   libucrt:_getbuf.obj
 0001:00075800       _mbstowcs_l                0000000140076800 f   libucrt:mbstowcs.obj
 0001:000758d0       _mbstowcs_s_l              00000001400768d0 f   libucrt:mbstowcs.obj
 0001:000759b4       mbstowcs                   00000001400769b4 f   libucrt:mbstowcs.obj
 0001:00075a74       mbstowcs_s                 0000000140076a74 f   libucrt:mbstowcs.obj
 0001:00075b48       __strncnt                  0000000140076b48 f   libucrt:strncnt.obj
 0001:00075b64       __acrt_CompareStringW      0000000140076b64 f   libucrt:comparestringw.obj
 0001:00075c50       __ascii_strnicmp           0000000140076c50 f   libucrt:strnicmp.obj
 0001:00075cac       _strnicmp                  0000000140076cac f   libucrt:strnicmp.obj
 0001:00075d10       _strnicmp_l                0000000140076d10 f   libucrt:strnicmp.obj
 0001:0007624c       __acrt_CompareStringA      000000014007724c f   libucrt:comparestringa.obj
 0001:000762f8       _towlower_l                00000001400772f8 f   libucrt:towlower.obj
 0001:00076428       towlower                   0000000140077428 f   libucrt:towlower.obj
 0001:000764f0       _putwch                    00000001400774f0 f   libucrt:putwch.obj
 0001:0007653c       _putwch_nolock             000000014007753c f   libucrt:putwch.obj
 0001:00076588       _putwch_nolock_internal    0000000140077588 f   libucrt:putwch.obj
 0001:00076e58       _read                      0000000140077e58 f   libucrt:read.obj
 0001:00076fc0       _read_nolock               0000000140077fc0 f   libucrt:read.obj
 0001:00077678       _clearfp                   0000000140078678 f   libucrt:ieee.obj
 0001:000776fc       _control87                 00000001400786fc f   libucrt:ieee.obj
 0001:00077704       _controlfp                 0000000140078704 f   libucrt:ieee.obj
 0001:00077710       _fpreset                   0000000140078710 f   libucrt:ieee.obj
 0001:00077804       _set_controlfp             0000000140078804 f   libucrt:ieee.obj
 0001:00077848       _statusfp                  0000000140078848 f   libucrt:ieee.obj
 0001:00077d68       _handle_error              0000000140078d68 f   libucrt:libm_error.obj
 0001:00077ed8       _handle_errorf             0000000140078ed8 f   libucrt:libm_error.obj
 0001:00078058       _handle_nan                0000000140079058 f   libucrt:libm_error.obj
 0001:00078078       _handle_nanf               0000000140079078 f   libucrt:libm_error.obj
 0001:00078090       __acrt_initialize_fma3     0000000140079090 f   libucrt:fma3_available.obj
 0001:0007811c       _get_FMA3_enable           000000014007911c f   libucrt:fma3_available.obj
 0001:00078124       _set_FMA3_enable           0000000140079124 f   libucrt:fma3_available.obj
 0001:00078140       _log10_special             0000000140079140 f   libucrt:log_special.obj
 0001:00078168       _log10f_special            0000000140079168 f   libucrt:log_special.obj
 0001:00078190       _log_special               0000000140079190 f   libucrt:log_special.obj
 0001:00078274       _logf_special              0000000140079274 f   libucrt:log_special.obj
 0001:00078554       _close                     0000000140079554 f   libucrt:close.obj
 0001:00078614       _close_internal            0000000140079614 f   libucrt:close.obj
 0001:00078708       _close_nolock              0000000140079708 f   libucrt:close.obj
 0001:000787c8       _close_nolock_internal     00000001400797c8 f   libucrt:close.obj
 0001:000788c8       ??$?RU__crt_stdio_stream_data@@@__crt_internal_free_policy@@QEBAXQEBU__crt_stdio_stream_data@@@Z 00000001400798c8 f i libucrt:stream.obj
 0001:000788d4       ??0?$__crt_unique_heap_ptr@U__crt_stdio_stream_data@@U__crt_internal_free_policy@@@@QEAA@QEAU__crt_stdio_stream_data@@@Z 00000001400798d4 f i libucrt:stream.obj
 0001:000788dc       ??0__crt_stdio_stream@@QEAA@XZ 00000001400798dc f i libucrt:stream.obj
 0001:000788e8       ??1?$__crt_unique_heap_ptr@U__crt_stdio_stream_data@@U__crt_internal_free_policy@@@@QEAA@XZ 00000001400798e8 f i libucrt:stream.obj
 0001:0007890c       ?__acrt_stdio_allocate_stream@@YA?AV__crt_stdio_stream@@XZ 000000014007990c f   libucrt:stream.obj
 0001:00078978       ?__acrt_stdio_free_stream@@YAXV__crt_stdio_stream@@@Z 0000000140079978 f   libucrt:stream.obj
 0001:0007899c       ?deallocate@__crt_stdio_stream@@QEAAXXZ 000000014007999c f i libucrt:stream.obj
 0001:000789a8       ?detach@?$__crt_unique_heap_ptr@U__crt_stdio_stream_data@@U__crt_internal_free_policy@@@@QEAAPEAU__crt_stdio_stream_data@@XZ 00000001400799a8 f i libucrt:stream.obj
 0001:00078adc       ?lock@__crt_stdio_stream@@QEBAXXZ 0000000140079adc f i libucrt:stream.obj
 0001:00078ae8       ?release@?$__crt_unique_heap_ptr@U__crt_stdio_stream_data@@U__crt_internal_free_policy@@@@QEAAXXZ 0000000140079ae8 f i libucrt:stream.obj
 0001:00078b0c       ?try_allocate@__crt_stdio_stream@@QEAA_NXZ 0000000140079b0c f i libucrt:stream.obj
 0001:00078b34       ?unlock@__crt_stdio_stream@@QEBAXXZ 0000000140079b34 f i libucrt:stream.obj
 0001:00078b40       __acrt_LCMapStringW        0000000140079b40 f   libucrt:lcmapstringw.obj
 0001:00078d54       __dcrt_lowio_ensure_console_output_initialized 0000000140079d54 f   libucrt:initcon.obj
 0001:00078dbc       __dcrt_terminate_console_output 0000000140079dbc f   libucrt:initcon.obj
 0001:00078de0       __dcrt_write_console       0000000140079de0 f   libucrt:initcon.obj
 0001:00078ee0       _get_fpsr                  0000000140079ee0 f   libucrt:fpsr.obj
 0001:00078ef0       _set_fpsr                  0000000140079ef0 f   libucrt:fpsr.obj
 0001:00078efa       _fclrf                     0000000140079efa f   libucrt:fpsr.obj
 0001:00078f0e       _frnd                      0000000140079f0e f   libucrt:fpsr.obj
 0001:00078f44       ?should_round_up@__crt_strtox@@YA_N_N000@Z 0000000140079f44 f i libucrt:fpexcept.obj
 0001:00078fec       _errcode                   0000000140079fec f   libucrt:fpexcept.obj
 0001:00079040       _except1                   000000014007a040 f   libucrt:fpexcept.obj
 0001:00079170       _except2                   000000014007a170 f   libucrt:fpexcept.obj
 0001:000792f8       _handle_exc                000000014007a2f8 f   libucrt:fpexcept.obj
 0001:000796ac       _handle_qnan2              000000014007a6ac f   libucrt:fpexcept.obj
 0001:000796b4       _raise_exc                 000000014007a6b4 f   libucrt:fpexcept.obj
 0001:000796e4       _raise_exc_ex              000000014007a6e4 f   libucrt:fpexcept.obj
 0001:00079ab0       _raise_excf                000000014007aab0 f   libucrt:fpexcept.obj
 0001:00079ae4       _set_errno_from_matherr    000000014007aae4 f   libucrt:fpexcept.obj
 0001:00079b20       _umatherr                  000000014007ab20 f   libucrt:fpexcept.obj
 0001:00079c20       _clrfp                     000000014007ac20 f   libucrt:fpctrl.obj
 0001:00079c44       _ctrlfp                    000000014007ac44 f   libucrt:fpctrl.obj
 0001:00079ce0       _set_statfp                000000014007ace0 f   libucrt:fpctrl.obj
 0001:00079d08       _statfp                    000000014007ad08 f   libucrt:fpctrl.obj
 0001:00079d20       _add_exp                   000000014007ad20 f   libucrt:util.obj
 0001:00079d84       _decomp                    000000014007ad84 f   libucrt:util.obj
 0001:00079f00       _get_exp                   000000014007af00 f   libucrt:util.obj
 0001:00079f24       _set_bexp                  000000014007af24 f   libucrt:util.obj
 0001:00079f60       _set_exp                   000000014007af60 f   libucrt:util.obj
 0001:00079fa8       _sptype                    000000014007afa8 f   libucrt:util.obj
 0001:0007a040       _FindPESection             000000014007b040 f   LIBCMT:pesect.obj
 0001:0007a0a0       _IsNonwritableInCurrentImage 000000014007b0a0 f   LIBCMT:pesect.obj
 0001:0007a100       _ValidateImageBase         000000014007b100 f   LIBCMT:pesect.obj
 0001:0007a138       ??1type_info@@UEAA@XZ      000000014007b138 f   LIBCMT:std_type_info_static.obj
 0001:0007a148       ??_Etype_info@@UEAAPEAXI@Z 000000014007b148 f i LIBCMT:std_type_info_static.obj
 0001:0007a148       ??_Gtype_info@@UEAAPEAXI@Z 000000014007b148 f i LIBCMT:std_type_info_static.obj
 0001:0007a180       ??3@YAXPEAX_K@Z            000000014007b180 f   LIBCMT:delete_scalar_size.obj
 0001:0007a188       __GSHandlerCheck_SEH       000000014007b188 f   LIBCMT:gshandlerseh.obj
 0001:0007a240       __chkstk                   000000014007b240 f   LIBCMT:chkstk.obj
 0001:0007a240       _alloca_probe              000000014007b240 f   LIBCMT:chkstk.obj
 0001:0007a2a8       __GSHandlerCheck_EH        000000014007b2a8 f   LIBCMT:gshandlereh.obj
 0001:0007a348       ??3@YAXPEAX@Z              000000014007b348 f   LIBCMT:delete_scalar.obj
 0001:0007a34d       RtlUnwindEx                000000014007b34d f   kernel32:KERNEL32.dll
 0001:0007a353       InterlockedPushEntrySList  000000014007b353 f   kernel32:KERNEL32.dll
 0001:0007a359       InterlockedFlushSList      000000014007b359 f   kernel32:KERNEL32.dll
 0001:0007a35f       GetLastError               000000014007b35f f   kernel32:KERNEL32.dll
 0001:0007a365       SetLastError               000000014007b365 f   kernel32:KERNEL32.dll
 0001:0007a36b       EnterCriticalSection       000000014007b36b f   kernel32:KERNEL32.dll
 0001:0007a371       LeaveCriticalSection       000000014007b371 f   kernel32:KERNEL32.dll
 0001:0007a377       DeleteCriticalSection      000000014007b377 f   kernel32:KERNEL32.dll
 0001:0007a37d       InitializeCriticalSectionAndSpinCount 000000014007b37d f   kernel32:KERNEL32.dll
 0001:0007a383       TlsAlloc                   000000014007b383 f   kernel32:KERNEL32.dll
 0001:0007a389       TlsGetValue                000000014007b389 f   kernel32:KERNEL32.dll
 0001:0007a38f       TlsSetValue                000000014007b38f f   kernel32:KERNEL32.dll
 0001:0007a395       TlsFree                    000000014007b395 f   kernel32:KERNEL32.dll
 0001:0007a39b       FreeLibrary                000000014007b39b f   kernel32:KERNEL32.dll
 0001:0007a3a1       LoadLibraryExW             000000014007b3a1 f   kernel32:KERNEL32.dll
 0001:0007a3a7       EncodePointer              000000014007b3a7 f   kernel32:KERNEL32.dll
 0001:0007a3ad       RaiseException             000000014007b3ad f   kernel32:KERNEL32.dll
 0001:0007a3b3       RtlPcToFileHeader          000000014007b3b3 f   kernel32:KERNEL32.dll
 0001:0007a3b9       GetStdHandle               000000014007b3b9 f   kernel32:KERNEL32.dll
 0001:0007a3bf       GetModuleFileNameW         000000014007b3bf f   kernel32:KERNEL32.dll
 0001:0007a3c5       ExitProcess                000000014007b3c5 f   kernel32:KERNEL32.dll
 0001:0007a3cb       GetModuleHandleExW         000000014007b3cb f   kernel32:KERNEL32.dll
 0001:0007a3d1       HeapFree                   000000014007b3d1 f   kernel32:KERNEL32.dll
 0001:0007a3d7       HeapAlloc                  000000014007b3d7 f   kernel32:KERNEL32.dll
 0001:0007a3dd       GetCurrentThread           000000014007b3dd f   kernel32:KERNEL32.dll
 0001:0007a3e3       GetFileType                000000014007b3e3 f   kernel32:KERNEL32.dll
 0001:0007a3e9       OutputDebugStringW         000000014007b3e9 f   kernel32:KERNEL32.dll
 0001:0007a3ef       FindClose                  000000014007b3ef f   kernel32:KERNEL32.dll
 0001:0007a3f5       FindFirstFileExW           000000014007b3f5 f   kernel32:KERNEL32.dll
 0001:0007a3fb       FindNextFileW              000000014007b3fb f   kernel32:KERNEL32.dll
 0001:0007a401       IsValidCodePage            000000014007b401 f   kernel32:KERNEL32.dll
 0001:0007a407       GetACP                     000000014007b407 f   kernel32:KERNEL32.dll
 0001:0007a40d       GetOEMCP                   000000014007b40d f   kernel32:KERNEL32.dll
 0001:0007a413       GetCPInfo                  000000014007b413 f   kernel32:KERNEL32.dll
 0001:0007a419       GetCommandLineA            000000014007b419 f   kernel32:KERNEL32.dll
 0001:0007a41f       GetCommandLineW            000000014007b41f f   kernel32:KERNEL32.dll
 0001:0007a425       MultiByteToWideChar        000000014007b425 f   kernel32:KERNEL32.dll
 0001:0007a42b       WideCharToMultiByte        000000014007b42b f   kernel32:KERNEL32.dll
 0001:0007a431       GetEnvironmentStringsW     000000014007b431 f   kernel32:KERNEL32.dll
 0001:0007a437       FreeEnvironmentStringsW    000000014007b437 f   kernel32:KERNEL32.dll
 0001:0007a43d       SetEnvironmentVariableW    000000014007b43d f   kernel32:KERNEL32.dll
 0001:0007a443       SetStdHandle               000000014007b443 f   kernel32:KERNEL32.dll
 0001:0007a449       GetStringTypeW             000000014007b449 f   kernel32:KERNEL32.dll
 0001:0007a44f       GetLocaleInfoW             000000014007b44f f   kernel32:KERNEL32.dll
 0001:0007a455       IsValidLocale              000000014007b455 f   kernel32:KERNEL32.dll
 0001:0007a45b       GetUserDefaultLCID         000000014007b45b f   kernel32:KERNEL32.dll
 0001:0007a461       EnumSystemLocalesW         000000014007b461 f   kernel32:KERNEL32.dll
 0001:0007a467       GetTempPathW               000000014007b467 f   kernel32:KERNEL32.dll
 0001:0007a46d       FlsAlloc                   000000014007b46d f   kernel32:KERNEL32.dll
 0001:0007a473       FlsGetValue                000000014007b473 f   kernel32:KERNEL32.dll
 0001:0007a479       FlsSetValue                000000014007b479 f   kernel32:KERNEL32.dll
 0001:0007a47f       FlsFree                    000000014007b47f f   kernel32:KERNEL32.dll
 0001:0007a485       GetDateFormatW             000000014007b485 f   kernel32:KERNEL32.dll
 0001:0007a48b       GetTimeFormatW             000000014007b48b f   kernel32:KERNEL32.dll
 0001:0007a491       CompareStringW             000000014007b491 f   kernel32:KERNEL32.dll
 0001:0007a497       LCMapStringW               000000014007b497 f   kernel32:KERNEL32.dll
 0001:0007a49d       GetProcessHeap             000000014007b49d f   kernel32:KERNEL32.dll
 0001:0007a4a3       SetConsoleCtrlHandler      000000014007b4a3 f   kernel32:KERNEL32.dll
 0001:0007a4a9       SetFilePointerEx           000000014007b4a9 f   kernel32:KERNEL32.dll
 0001:0007a4af       HeapSize                   000000014007b4af f   kernel32:KERNEL32.dll
 0001:0007a4b5       HeapReAlloc                000000014007b4b5 f   kernel32:KERNEL32.dll
 0001:0007a4bb       FlushFileBuffers           000000014007b4bb f   kernel32:KERNEL32.dll
 0001:0007a4c1       GetConsoleOutputCP         000000014007b4c1 f   kernel32:KERNEL32.dll
 0001:0007a4c7       GetConsoleMode             000000014007b4c7 f   kernel32:KERNEL32.dll
 0001:0007a4cd       ReadConsoleW               000000014007b4cd f   kernel32:KERNEL32.dll
 0001:0007a4d3       CreateFileW                000000014007b4d3 f   kernel32:KERNEL32.dll
 0001:0007a4d9       WriteConsoleW              000000014007b4d9 f   kernel32:KERNEL32.dll
 0001:0007a4e0       __C_specific_handler_noexcept 000000014007b4e0 f   libvcruntime:chandler_noexcept.obj
 0001:0007a540       strrchr                    000000014007b540 f   libvcruntime:strrchr.obj
 0001:0007a6cc       _local_unwind              000000014007b6cc f   libvcruntime:jmpuwind.obj
 0001:0007a700       strchr                     000000014007b700 f   libvcruntime:strchr.obj
 0001:0007a79c       wcschr                     000000014007b79c f   libvcruntime:wcschr.obj
 0001:0007a832       RtlUnwind                  000000014007b832 f   kernel32:KERNEL32.dll
 0001:0007dd30       _guard_dispatch_icall_nop  000000014007ed30 f   LIBCMT:guard_dispatch.obj
 0001:0007dd50       _guard_xfg_dispatch_icall_nop 000000014007ed50 f   LIBCMT:guard_xfg_dispatch.obj
 0001:0007ed90       memset_repstos             000000014007fd90 f   libvcruntime:memset.obj
 0001:0007edb0       memset                     000000014007fdb0 f   libvcruntime:memset.obj
 0001:0007f250       memcpy_repmovs             0000000140080250 f   libvcruntime:memcpy.obj
 0001:0007f270       memcpy                     0000000140080270 f   libvcruntime:memcpy.obj
 0001:0007f270       memcpy_$fo_default$        0000000140080270     libvcruntime:memcpy.obj
 0001:0007f270       memmove                    0000000140080270 f   libvcruntime:memcpy.obj
 0001:0007faa0       memcmp                     0000000140080aa0 f   libvcruntime:memcmp.obj
 0002:00000000       __xc_a                     0000000140084000     LIBCMT:initializers.obj
 0002:00000220       __xc_z                     0000000140084220     LIBCMT:initializers.obj
 0002:00000330       __xi_a                     0000000140084330     LIBCMT:initializers.obj
 0002:00000660       __acrt_stdio_initializer   0000000140084660     libucrt:stdio_initializer.obj
 0002:00000670       __acrt_multibyte_initializer 0000000140084670     libucrt:multibyte_initializer.obj
 0002:00000680       __acrt_fmode_initializer   0000000140084680     libucrt:fmode_initializer.obj
 0002:00000690       __acrt_tran_fma3_initializer 0000000140084690     libucrt:fma3_initializer.obj
 0002:000007a0       __xi_z                     00000001400847a0     LIBCMT:initializers.obj
 0002:000008b0       __xp_a                     00000001400848b0     LIBCMT:initializers.obj
 0002:000009c0       __acrt_locale_terminator   00000001400849c0     libucrt:locale_initializer.obj
 0002:000009d0       __dcrt_console_output_terminator 00000001400849d0     libucrt:console_output_initializer.obj
 0002:00000ae0       __acrt_stdio_terminator    0000000140084ae0     libucrt:stdio_initializer.obj
 0002:00000bf0       __xp_z                     0000000140084bf0     LIBCMT:initializers.obj
 0002:00000d00       __xt_a                     0000000140084d00     LIBCMT:initializers.obj
 0002:00000e10       __xt_z                     0000000140084e10     LIBCMT:initializers.obj
 0002:0000114c       __real@00000000            000000014008514c     win32_handmade.obj
 0002:00001150       __real@3d088889            0000000140085150     win32_handmade.obj
 0002:00001154       __real@3f000000            0000000140085154     win32_handmade.obj
 0002:00001158       __real@3f800000            0000000140085158     win32_handmade.obj
 0002:0000115c       __real@447a0000            000000014008515c     win32_handmade.obj
 0002:00001160       __real@46fffe00            0000000140085160     win32_handmade.obj
 0002:00001164       __real@47000000            0000000140085164     win32_handmade.obj
 0002:00001168       __real@bf800000            0000000140085168     win32_handmade.obj
 0002:00001170       __xmm@80000000800000008000000080000000 0000000140085170     win32_handmade.obj
 0002:000011a0       __xmm@ffffffffffffffffffffffffffffffff 00000001400851a0     LIBCMT:utility.obj
 0002:000011b8       _pDestructExceptionObject  00000001400851b8     libvcruntime:ehhelpers.obj
 0002:00001a50       ??_C@_08EHJDFFNH@__based?$CI@ 0000000140085a50     libvcruntime:undname.obj
 0002:00001a60       ??_C@_07KOLFKCDI@__cdecl@  0000000140085a60     libvcruntime:undname.obj
 0002:00001a70       ??_C@_08GHMPAG@__pascal@   0000000140085a70     libvcruntime:undname.obj
 0002:00001a80       ??_C@_09IFJBGAPI@__stdcall@ 0000000140085a80     libvcruntime:undname.obj
 0002:00001a90       ??_C@_0L@NPHFGOKO@__thiscall@ 0000000140085a90     libvcruntime:undname.obj
 0002:00001aa0       ??_C@_0L@JMKHOMEK@__fastcall@ 0000000140085aa0     libvcruntime:undname.obj
 0002:00001ab0       ??_C@_0N@BCKKPABJ@__vectorcall@ 0000000140085ab0     libvcruntime:undname.obj
 0002:00001ac0       ??_C@_09HIJEGCPM@__clrcall@ 0000000140085ac0     libvcruntime:undname.obj
 0002:00001acc       ??_C@_06GHPCKEAG@__eabi@   0000000140085acc     libvcruntime:undname.obj
 0002:00001ad8       ??_C@_09IOPIDJLG@__swift_1@ 0000000140085ad8     libvcruntime:undname.obj
 0002:00001ae8       ??_C@_09KFNFGKHF@__swift_2@ 0000000140085ae8     libvcruntime:undname.obj
 0002:00001af8       ??_C@_09LMMOFLDE@__swift_3@ 0000000140085af8     libvcruntime:undname.obj
 0002:00001b08       ??_C@_07JOMMBBKO@__ptr64@  0000000140085b08     libvcruntime:undname.obj
 0002:00001b18       ??_C@_0L@PILCLIHE@__restrict@ 0000000140085b18     libvcruntime:undname.obj
 0002:00001b28       ??_C@_0M@GFIIJFMG@__unaligned@ 0000000140085b28     libvcruntime:undname.obj
 0002:00001b38       ??_C@_09DHDLOLLB@restrict?$CI@ 0000000140085b38     libvcruntime:undname.obj
 0002:00001b44       ??_C@_00CNPNBAHC@@         0000000140085b44     libvcruntime:undname.obj
 0002:00001b48       ??_C@_04NIHEBCM@?5new@     0000000140085b48     libvcruntime:undname.obj
 0002:00001b50       ??_C@_07FPCDHGMM@?5delete@ 0000000140085b50     libvcruntime:undname.obj
 0002:00001b5c       ??_C@_01NEMOKFLO@?$DN@     0000000140085b5c     libvcruntime:undname.obj
 0002:00001b60       ??_C@_02GPIOPFAK@?$DO?$DO@ 0000000140085b60     libvcruntime:undname.obj
 0002:00001b64       ??_C@_02FODMEDOG@?$DM?$DM@ 0000000140085b64     libvcruntime:undname.obj
 0002:00001b68       ??_C@_01DCLJPIOD@?$CB@     0000000140085b68     libvcruntime:undname.obj
 0002:00001b6c       ??_C@_02EGOFBIJA@?$DN?$DN@ 0000000140085b6c     libvcruntime:undname.obj
 0002:00001b70       ??_C@_02FDNJECIE@?$CB?$DN@ 0000000140085b70     libvcruntime:undname.obj
 0002:00001b74       ??_C@_02GPECMEKF@?$FL?$FN@ 0000000140085b74     libvcruntime:undname.obj
 0002:00001b78       ??_C@_08LHJFAFGD@operator@ 0000000140085b78     libvcruntime:undname.obj
 0002:00001b84       ??_C@_02HBOOOICD@?9?$DO@   0000000140085b84     libvcruntime:undname.obj
 0002:00001b88       ??_C@_01NBENCBCI@?$CK@     0000000140085b88     libvcruntime:undname.obj
 0002:00001b8c       ??_C@_02ECNGHCIF@?$CL?$CL@ 0000000140085b8c     libvcruntime:undname.obj
 0002:00001b90       ??_C@_02BAABKJLB@?9?9@     0000000140085b90     libvcruntime:undname.obj
 0002:00001b94       ??_C@_01JOAMLHOP@?9@       0000000140085b94     libvcruntime:undname.obj
 0002:00001b98       ??_C@_01MIFGBAGJ@?$CL@     0000000140085b98     libvcruntime:undname.obj
 0002:00001b9c       ??_C@_01HNPIGOCE@?$CG@     0000000140085b9c     libvcruntime:undname.obj
 0002:00001ba0       ??_C@_03MNHNFDLC@?9?$DO?$CK@ 0000000140085ba0     libvcruntime:undname.obj
 0002:00001ba4       ??_C@_01KMDKNFGN@?1@       0000000140085ba4     libvcruntime:undname.obj
 0002:00001ba8       ??_C@_01FGNFDNOH@?$CF@     0000000140085ba8     libvcruntime:undname.obj
 0002:00001bac       ??_C@_01MNNFJEPP@?$DM@     0000000140085bac     libvcruntime:undname.obj
 0002:00001bb0       ??_C@_02EHCHHCKH@?$DM?$DN@ 0000000140085bb0     libvcruntime:undname.obj
 0002:00001bb4       ??_C@_01PPODPGHN@?$DO@     0000000140085bb4     libvcruntime:undname.obj
 0002:00001bb8       ??_C@_02EEKDKGMJ@?$DO?$DN@ 0000000140085bb8     libvcruntime:undname.obj
 0002:00001bbc       ??_C@_01IHBHIGKO@?0@       0000000140085bbc     libvcruntime:undname.obj
 0002:00001bc0       ??_C@_02HCKGKOFO@?$CI?$CJ@ 0000000140085bc0     libvcruntime:undname.obj
 0002:00001bc4       ??_C@_01PJKLJHI@?$HO@      0000000140085bc4     libvcruntime:undname.obj
 0002:00001bc8       ??_C@_01JKBOJNNK@?$FO@     0000000140085bc8     libvcruntime:undname.obj
 0002:00001bcc       ??_C@_01DNKMNLPK@?$HM@     0000000140085bcc     libvcruntime:undname.obj
 0002:00001bd0       ??_C@_02PPKAJPJL@?$CG?$CG@ 0000000140085bd0     libvcruntime:undname.obj
 0002:00001bd4       ??_C@_02NONPIBCD@?$HM?$HM@ 0000000140085bd4     libvcruntime:undname.obj
 0002:00001bd8       ??_C@_02FPIMKNGF@?$CK?$DN@ 0000000140085bd8     libvcruntime:undname.obj
 0002:00001bdc       ??_C@_02FOEOMHFC@?$CL?$DN@ 0000000140085bdc     libvcruntime:undname.obj
 0002:00001be0       ??_C@_02FKMDLLOA@?9?$DN@   0000000140085be0     libvcruntime:undname.obj
 0002:00001be4       ??_C@_02FJEHGPIO@?1?$DN@   0000000140085be4     libvcruntime:undname.obj
 0002:00001be8       ??_C@_02FENAOKFI@?$CF?$DN@ 0000000140085be8     libvcruntime:undname.obj
 0002:00001bec       ??_C@_03IKFCCPFF@?$DO?$DO?$DN@ 0000000140085bec     libvcruntime:undname.obj
 0002:00001bf0       ??_C@_03CDNPDDLA@?$DM?$DM?$DN@ 0000000140085bf0     libvcruntime:undname.obj
 0002:00001bf4       ??_C@_02FGJGFEAB@?$CG?$DN@ 0000000140085bf4     libvcruntime:undname.obj
 0002:00001bf8       ??_C@_02DHLNPPGH@?$HM?$DN@ 0000000140085bf8     libvcruntime:undname.obj
 0002:00001bfc       ??_C@_02MHEGNOJ@?$FO?$DN@  0000000140085bfc     libvcruntime:undname.obj
 0002:00001c00       ??_C@_09IFPLHPGF@?$GAvftable?8@ 0000000140085c00     libvcruntime:undname.obj
 0002:00001c10       ??_C@_09BLBHBJP@?$GAvbtable?8@ 0000000140085c10     libvcruntime:undname.obj
 0002:00001c20       ??_C@_07FEEIOKP@?$GAvcall?8@ 0000000140085c20     libvcruntime:undname.obj
 0002:00001c30       ??_C@_08LLFFHHDJ@?$GAtypeof?8@ 0000000140085c30     libvcruntime:undname.obj
 0002:00001c40       ??_C@_0BF@KDPPACIK@?$GAlocal?5static?5guard?8@ 0000000140085c40     libvcruntime:undname.obj
 0002:00001c60       ??_C@_08OBABFOLI@?$GAstring?8@ 0000000140085c60     libvcruntime:undname.obj
 0002:00001c70       ??_C@_0BD@JDLKDPAB@?$GAvbase?5destructor?8@ 0000000140085c70     libvcruntime:undname.obj
 0002:00001c88       ??_C@_0BN@DEGPLNFK@?$GAvector?5deleting?5destructor?8@ 0000000140085c88     libvcruntime:undname.obj
 0002:00001cb0       ??_C@_0BO@OBMKPJIG@?$GAdefault?5constructor?5closure?8@ 0000000140085cb0     libvcruntime:undname.obj
 0002:00001cd8       ??_C@_0BN@IMDCHIKM@?$GAscalar?5deleting?5destructor?8@ 0000000140085cd8     libvcruntime:undname.obj
 0002:00001d00       ??_C@_0BO@PFGOCPJJ@?$GAvector?5constructor?5iterator?8@ 0000000140085d00     libvcruntime:undname.obj
 0002:00001d28       ??_C@_0BN@LFPFMEDL@?$GAvector?5destructor?5iterator?8@ 0000000140085d28     libvcruntime:undname.obj
 0002:00001d50       ??_C@_0CE@IKBNEHA@?$GAvector?5vbase?5constructor?5itera@ 0000000140085d50     libvcruntime:undname.obj
 0002:00001d80       ??_C@_0BL@NILFHHPC@?$GAvirtual?5displacement?5map?8@ 0000000140085d80     libvcruntime:undname.obj
 0002:00001da0       ??_C@_0CB@JONCMFFK@?$GAeh?5vector?5constructor?5iterator@ 0000000140085da0     libvcruntime:undname.obj
 0002:00001dc8       ??_C@_0CA@GCEOPDGL@?$GAeh?5vector?5destructor?5iterator?8@ 0000000140085dc8     libvcruntime:undname.obj
 0002:00001df0       ??_C@_0CH@OOJPLCPH@?$GAeh?5vector?5vbase?5constructor?5it@ 0000000140085df0     libvcruntime:undname.obj
 0002:00001e20       ??_C@_0BL@LLKPOHJI@?$GAcopy?5constructor?5closure?8@ 0000000140085e20     libvcruntime:undname.obj
 0002:00001e40       ??_C@_0BA@KBCDOMBN@?$GAudt?5returning?8@ 0000000140085e40     libvcruntime:undname.obj
 0002:00001e54       ??_C@_03KLGMFNMG@?$GAEH@   0000000140085e54     libvcruntime:undname.obj
 0002:00001e58       ??_C@_05KHLCHHI@?$GARTTI@  0000000140085e58     libvcruntime:undname.obj
 0002:00001e60       ??_C@_0BA@KKLDJDLB@?$GAlocal?5vftable?8@ 0000000140085e60     libvcruntime:undname.obj
 0002:00001e78       ??_C@_0CE@IIHCMGGL@?$GAlocal?5vftable?5constructor?5clos@ 0000000140085e78     libvcruntime:undname.obj
 0002:00001ea4       ??_C@_06FHBGPFGH@?5new?$FL?$FN@ 0000000140085ea4     libvcruntime:undname.obj
 0002:00001eb0       ??_C@_09LBNFPBCA@?5delete?$FL?$FN@ 0000000140085eb0     libvcruntime:undname.obj
 0002:00001ec0       ??_C@_0P@HJKNJFNN@?$GAomni?5callsig?8@ 0000000140085ec0     libvcruntime:undname.obj
 0002:00001ed8       ??_C@_0BL@CNOONJFP@?$GAplacement?5delete?5closure?8@ 0000000140085ed8     libvcruntime:undname.obj
 0002:00001ef8       ??_C@_0BN@CKNJLHMB@?$GAplacement?5delete?$FL?$FN?5closure?8@ 0000000140085ef8     libvcruntime:undname.obj
 0002:00001f20       ??_C@_0CG@CFDHKGGD@?$GAmanaged?5vector?5constructor?5ite@ 0000000140085f20     libvcruntime:undname.obj
 0002:00001f50       ??_C@_0CF@IMGKMJNO@?$GAmanaged?5vector?5destructor?5iter@ 0000000140085f50     libvcruntime:undname.obj
 0002:00001f80       ??_C@_0CG@HLDDJMAG@?$GAeh?5vector?5copy?5constructor?5ite@ 0000000140085f80     libvcruntime:undname.obj
 0002:00001fb0       ??_C@_0CM@FCBBDIGB@?$GAeh?5vector?5vbase?5copy?5construct@ 0000000140085fb0     libvcruntime:undname.obj
 0002:00001fe8       ??_C@_0BL@CLIPGLGB@?$GAdynamic?5initializer?5for?5?8@ 0000000140085fe8     libvcruntime:undname.obj
 0002:00002008       ??_C@_0CB@PDBIFEP@?$GAdynamic?5atexit?5destructor?5for?5@ 0000000140086008     libvcruntime:undname.obj
 0002:00002030       ??_C@_0CD@CGAJBKEJ@?$GAvector?5copy?5constructor?5iterat@ 0000000140086030     libvcruntime:undname.obj
 0002:00002060       ??_C@_0CJ@GJELGAMM@?$GAvector?5vbase?5copy?5constructor?5@ 0000000140086060     libvcruntime:undname.obj
 0002:00002098       ??_C@_0CL@FGIJHLCE@?$GAmanaged?5vector?5copy?5constructo@ 0000000140086098     libvcruntime:undname.obj
 0002:000020d0       ??_C@_0BM@PMGGMLDN@?$GAlocal?5static?5thread?5guard?8@ 00000001400860d0     libvcruntime:undname.obj
 0002:000020f8       ??_C@_0N@BDNMDMOL@operator?5?$CC?$CC?5@ 00000001400860f8     libvcruntime:undname.obj
 0002:00002108       ??_C@_0BC@GGEBGALA@operator?5co_await@ 0000000140086108     libvcruntime:undname.obj
 0002:00002120       ??_C@_0M@GAAIMMOH@operator?$DM?$DN?$DO@ 0000000140086120     libvcruntime:undname.obj
 0002:00002130       ??_C@_0BC@DAFEJGAK@?5Type?5Descriptor?8@ 0000000140086130     libvcruntime:undname.obj
 0002:00002148       ??_C@_0BM@LDKODKLH@?5Base?5Class?5Descriptor?5at?5?$CI@ 0000000140086148     libvcruntime:undname.obj
 0002:00002170       ??_C@_0BD@LGICGFMM@?5Base?5Class?5Array?8@ 0000000140086170     libvcruntime:undname.obj
 0002:00002188       ??_C@_0BN@MECKDCOJ@?5Class?5Hierarchy?5Descriptor?8@ 0000000140086188     libvcruntime:undname.obj
 0002:000021b0       ??_C@_0BK@CFCOFLF@?5Complete?5Object?5Locator?8@ 00000001400861b0     libvcruntime:undname.obj
 0002:000021d0       ??_C@_0BG@JNJLAMPM@?$GAanonymous?5namespace?8@ 00000001400861d0     libvcruntime:undname.obj
 0002:000021ec       ??_C@_04HEJADOOB@CV?3?5@   00000001400861ec     libvcruntime:undname.obj
 0002:000021f4       ??_C@_02MOLJINC@?3?3@      00000001400861f4     libvcruntime:undname.obj
 0002:000021f8       ??_C@_0BE@JAEOCHPE@template?9parameter?9@ 00000001400861f8     libvcruntime:undname.obj
 0002:00002210       ??_C@_0BF@LNLGBBNL@?$GAtemplate?9parameter?9@ 0000000140086210     libvcruntime:undname.obj
 0002:00002230       ??_C@_0O@KHGCOMHP@generic?9type?9@ 0000000140086230     libvcruntime:undname.obj
 0002:00002240       ??_C@_0P@ODDENDLM@?$GAgeneric?9type?9@ 0000000140086240     libvcruntime:undname.obj
 0002:00002254       ??_C@_02OHHJMEON@?8?8@     0000000140086254     libvcruntime:undname.obj
 0002:00002258       ??_C@_0BN@IBLMMFAP@?$GAnon?9type?9template?9parameter@ 0000000140086258     libvcruntime:undname.obj
 0002:0000227c       ??_C@_03DLDNIBIK@?$CFlf@   000000014008627c     libvcruntime:undname.obj
 0002:00002280       ??_C@_04OFALKAJ@?$DP?$DP_C@ 0000000140086280     libvcruntime:undname.obj
 0002:00002288       ??_C@_03KHICJKCI@?4?4?4@   0000000140086288     libvcruntime:undname.obj
 0002:0000228c       ??_C@_04HIBGFPH@NULL@      000000014008628c     libvcruntime:undname.obj
 0002:00002294       ??_C@_02DPKJAMEF@?$CFd@    0000000140086294     libvcruntime:undname.obj
 0002:00002298       ??_C@_0BK@IHCCFNEL@?$GAtemplate?9type?9parameter?9@ 0000000140086298     libvcruntime:undname.obj
 0002:000022b8       ??_C@_0BK@OFCNNNKO@?$GAgeneric?9class?9parameter?9@ 00000001400862b8     libvcruntime:undname.obj
 0002:000022d8       ??_C@_0BL@NGJBLFIL@?$GAgeneric?9method?9parameter?9@ 00000001400862d8     libvcruntime:undname.obj
 0002:000022f8       ??_C@_07OHNGEDJK@nullptr@  00000001400862f8     libvcruntime:undname.obj
 0002:00002304       ??_C@_06COJIGPIB@lambda@   0000000140086304     libvcruntime:undname.obj
 0002:0000230c       ??_C@_04GKJNKENE@void@     000000014008630c     libvcruntime:undname.obj
 0002:00002318       ??_C@_0BE@EODMJLIF@?$GAtemplate?9parameter@ 0000000140086318     libvcruntime:undname.obj
 0002:00002330       ??_C@_03OPGICMGF@?$HN?8?5@ 0000000140086330     libvcruntime:undname.obj
 0002:00002334       ??_C@_02IGFCGPIL@?$HN?8@   0000000140086334     libvcruntime:undname.obj
 0002:00002338       ??_C@_0N@CBHHHENL@?$GAvtordispex?$HL@ 0000000140086338     libvcruntime:undname.obj
 0002:00002348       ??_C@_0L@GHPFDFH@?$GAvtordisp?$HL@ 0000000140086348     libvcruntime:undname.obj
 0002:00002358       ??_C@_0L@HNGCOGAE@?$GAadjustor?$HL@ 0000000140086358     libvcruntime:undname.obj
 0002:00002368       ??_C@_0CB@KJDOOODE@?$GAlocal?5static?5destructor?5helper@ 0000000140086368     libvcruntime:undname.obj
 0002:00002390       ??_C@_0DB@ILEFOCIJ@?$GAtemplate?5static?5data?5member?5co@ 0000000140086390     libvcruntime:undname.obj
 0002:000023d0       ??_C@_0DA@HGFJFBBE@?$GAtemplate?5static?5data?5member?5de@ 00000001400863d0     libvcruntime:undname.obj
 0002:00002410       ??_C@_07PGOEDBHP@static?5@ 0000000140086410     libvcruntime:undname.obj
 0002:00002420       ??_C@_08NIEOINHE@virtual?5@ 0000000140086420     libvcruntime:undname.obj
 0002:00002430       ??_C@_09LAPHOOG@private?3?5@ 0000000140086430     libvcruntime:undname.obj
 0002:00002440       ??_C@_0M@GAIFPFIP@protected?3?5@ 0000000140086440     libvcruntime:undname.obj
 0002:00002450       ??_C@_08GPDDCMKI@public?3?5@ 0000000140086450     libvcruntime:undname.obj
 0002:00002460       ??_C@_08KJLFOPNE@?$FLthunk?$FN?3@ 0000000140086460     libvcruntime:undname.obj
 0002:00002470       ??_C@_0M@DHNBOJMP@extern?5?$CCC?$CC?5@ 0000000140086470     libvcruntime:undname.obj
 0002:00002480       ??_C@_02KCKGHPCA@?$CJ?5@   0000000140086480     libvcruntime:undname.obj
 0002:00002484       ??_C@_05CIHEBHNO@char?5@   0000000140086484     libvcruntime:undname.obj
 0002:0000248c       ??_C@_06EHJMALKF@short?5@  000000014008648c     libvcruntime:undname.obj
 0002:00002494       ??_C@_04LAHKHJMA@int?5@    0000000140086494     libvcruntime:undname.obj
 0002:0000249c       ??_C@_05CJIMAING@long?5@   000000014008649c     libvcruntime:undname.obj
 0002:000024a8       ??_C@_09EBBEKKIH@unsigned?5@ 00000001400864a8     libvcruntime:undname.obj
 0002:000024b4       ??_C@_05BEFAKPML@void?5@   00000001400864b4     libvcruntime:undname.obj
 0002:000024c0       ??_C@_09GAIEOBLP@volatile?5@ 00000001400864c0     libvcruntime:undname.obj
 0002:000024d0       ??_C@_08PABEKFH@volatile@  00000001400864d0     libvcruntime:undname.obj
 0002:000024e0       ??_C@_0BA@LKIJLKPP@std?3?3nullptr_t?5@ 00000001400864e0     libvcruntime:undname.obj
 0002:000024f8       ??_C@_0P@GCOCNKDM@std?3?3nullptr_t@ 00000001400864f8     libvcruntime:undname.obj
 0002:00002510       ??_C@_0L@EGPHHEKN@?$DMellipsis?$DO@ 0000000140086510     libvcruntime:undname.obj
 0002:00002520       ??_C@_04EENFHACM@?0?4?4?4@ 0000000140086520     libvcruntime:undname.obj
 0002:00002528       ??_C@_0M@ELJOJFFH@?0?$DMellipsis?$DO@ 0000000140086528     libvcruntime:undname.obj
 0002:00002538       ??_C@_09DNHFEOJI@?5noexcept@ 0000000140086538     libvcruntime:undname.obj
 0002:00002544       ??_C@_03PBJBJNON@cpu@      0000000140086544     libvcruntime:undname.obj
 0002:00002548       ??_C@_03DCBBJBAA@amp@      0000000140086548     libvcruntime:undname.obj
 0002:0000254c       ??_C@_02KEGNLNML@?0?5@     000000014008654c     libvcruntime:undname.obj
 0002:00002550       ??_C@_04ENMBGAPA@char@     0000000140086550     libvcruntime:undname.obj
 0002:00002558       ??_C@_05BFKKPKCG@short@    0000000140086558     libvcruntime:undname.obj
 0002:00002560       ??_C@_03JBIPMCLC@int@      0000000140086560     libvcruntime:undname.obj
 0002:00002564       ??_C@_04GOKPGOLB@long@     0000000140086564     libvcruntime:undname.obj
 0002:0000256c       ??_C@_05KNFBNCOH@float@    000000014008656c     libvcruntime:undname.obj
 0002:00002574       ??_C@_06BNJCAIGJ@double@   0000000140086574     libvcruntime:undname.obj
 0002:0000257c       ??_C@_04DDKJGDCM@bool@     000000014008657c     libvcruntime:undname.obj
 0002:00002584       ??_C@_06EBGKOKIG@__int8@   0000000140086584     libvcruntime:undname.obj
 0002:00002590       ??_C@_07ICFHOGAF@__int16@  0000000140086590     libvcruntime:undname.obj
 0002:000025a0       ??_C@_07OFLPPHGP@__int32@  00000001400865a0     libvcruntime:undname.obj
 0002:000025b0       ??_C@_07LFCOJCAC@__int64@  00000001400865b0     libvcruntime:undname.obj
 0002:000025c0       ??_C@_08GAHOLHEO@__int128@ 00000001400865c0     libvcruntime:undname.obj
 0002:000025d0       ??_C@_09EEKGDCPH@?$DMunknown?$DO@ 00000001400865d0     libvcruntime:undname.obj
 0002:000025e0       ??_C@_07CFHGOPCN@char8_t@  00000001400865e0     libvcruntime:undname.obj
 0002:000025f0       ??_C@_08HBIPOFJB@char16_t@ 00000001400865f0     libvcruntime:undname.obj
 0002:00002600       ??_C@_08IECNCBKG@char32_t@ 0000000140086600     libvcruntime:undname.obj
 0002:00002610       ??_C@_07CLGGIAMF@wchar_t@  0000000140086610     libvcruntime:undname.obj
 0002:0000261c       ??_C@_04HAPDLBFF@auto@     000000014008661c     libvcruntime:undname.obj
 0002:00002628       ??_C@_0P@LHCGKIGK@decltype?$CIauto?$CJ@ 0000000140086628     libvcruntime:undname.obj
 0002:0000263c       ??_C@_05PCNBGHCF@this?5@   000000014008663c     libvcruntime:undname.obj
 0002:00002644       ??_C@_06GCICPBLB@__w64?5@  0000000140086644     libvcruntime:undname.obj
 0002:00002650       ??_C@_07NFANNNEC@UNKNOWN@  0000000140086650     libvcruntime:undname.obj
 0002:00002660       ??_C@_07EDHNAJHC@signed?5@ 0000000140086660     libvcruntime:undname.obj
 0002:0000266c       ??_C@_05BNCCCJPP@const@    000000014008666c     libvcruntime:undname.obj
 0002:00002678       ??_C@_09EFNPDFFP@?5volatile@ 0000000140086678     libvcruntime:undname.obj
 0002:00002688       ??_C@_0P@GCIFDJCJ@?$GAunknown?5ecsu?8@ 0000000140086688     libvcruntime:undname.obj
 0002:0000269c       ??_C@_06MOJHIBMG@union?5@  000000014008669c     libvcruntime:undname.obj
 0002:000026a8       ??_C@_07DIBCDNGL@struct?5@ 00000001400866a8     libvcruntime:undname.obj
 0002:000026b4       ??_C@_06LJBABKPM@class?5@  00000001400866b4     libvcruntime:undname.obj
 0002:000026c0       ??_C@_08KOFANOFK@coclass?5@ 00000001400866c0     libvcruntime:undname.obj
 0002:000026d0       ??_C@_0N@DLIEFKNA@cointerface?5@ 00000001400866d0     libvcruntime:undname.obj
 0002:000026e0       ??_C@_05LJGMCFOG@enum?5@   00000001400866e0     libvcruntime:undname.obj
 0002:000026e8       ??_C@_06LIJLOJAG@const?5@  00000001400866e8     libvcruntime:undname.obj
 0002:000026f0       ??_C@_02KJPKDIBN@?$CG?5@   00000001400866f0     libvcruntime:undname.obj
 0002:000026f4       ??_C@_03PCKGMOPB@?$CG?$CG?5@ 00000001400866f4     libvcruntime:undname.obj
 0002:000026f8       ??_C@_0M@EALIELKG@cli?3?3array?$DM@ 00000001400866f8     libvcruntime:undname.obj
 0002:00002708       ??_C@_0O@GKABPPIF@cli?3?3pin_ptr?$DM@ 0000000140086708     libvcruntime:undname.obj
 0002:00002718       ??_C@_02GOGNNPBN@?$CJ?$FL@ 0000000140086718     libvcruntime:undname.obj
 0002:0000271c       ??_C@_06EEGAIFAK@?$HLflat?$HN@ 000000014008671c     libvcruntime:undname.obj
 0002:00002724       ??_C@_05JIBOFOHK@?$HLfor?5@ 0000000140086724     libvcruntime:undname.obj
 0002:0000272c       ??_C@_02MDINNEEG@s?5@      000000014008672c     libvcruntime:undname.obj
 0002:00002738       ??_7DNameNode@@6B@         0000000140086738     libvcruntime:undname.obj
 0002:00002768       ??_7charNode@@6B@          0000000140086768     libvcruntime:undname.obj
 0002:00002798       ??_7pcharNode@@6B@         0000000140086798     libvcruntime:undname.obj
 0002:000027c8       ??_7pDNameNode@@6B@        00000001400867c8     libvcruntime:undname.obj
 0002:000027f8       ??_7DNameStatusNode@@6B@   00000001400867f8     libvcruntime:undname.obj
 0002:00002828       ??_7pairNode@@6B@          0000000140086828     libvcruntime:undname.obj
 0002:00002984       ??_C@_04OKOHEJBO@?5?$DP?$DP?5@ 0000000140086984     libvcruntime:undname.obj
 0002:00002990       ?nodes@?1??make@DNameStatusNode@@SAPEBV2@W4DNameStatus@@@Z@4QBV2@B 0000000140086990     libvcruntime:undname.obj
 0002:00002a00       ??_C@_1DM@KHCHBNEB@?$AAa?$AAp?$AAi?$AA?9?$AAm?$AAs?$AA?9?$AAw?$AAi?$AAn?$AA?9?$AAc?$AAo?$AAr?$AAe@ 0000000140086a00     libvcruntime:winapi_downlevel.obj
 0002:00002a48       ??_C@_1DK@LPPGFMPP@?$AAa?$AAp?$AAi?$AA?9?$AAm?$AAs?$AA?9?$AAw?$AAi?$AAn?$AA?9?$AAc?$AAo?$AAr?$AAe@ 0000000140086a48     libvcruntime:winapi_downlevel.obj
 0002:00002a90       ??_C@_1BC@GDMECMAK@?$AAk?$AAe?$AAr?$AAn?$AAe?$AAl?$AA3?$AA2@ 0000000140086a90     libvcruntime:winapi_downlevel.obj
 0002:00002aa8       ??_C@_1BA@PFFKHIOG@?$AAa?$AAp?$AAi?$AA?9?$AAm?$AAs?$AA?9@ 0000000140086aa8     libvcruntime:winapi_downlevel.obj
 0002:00002ad0       ??_C@_08KNHFBNJ@FlsAlloc@  0000000140086ad0     libvcruntime:winapi_downlevel.obj
 0002:00002af0       ??_C@_07PEJMOBNF@FlsFree@  0000000140086af0     libvcruntime:winapi_downlevel.obj
 0002:00002b10       ??_C@_0M@GDNOONDI@FlsGetValue@ 0000000140086b10     libvcruntime:winapi_downlevel.obj
 0002:00002b30       ??_C@_0M@JCPCPOEF@FlsSetValue@ 0000000140086b30     libvcruntime:winapi_downlevel.obj
 0002:00002b50       ??_C@_0BM@HCFOFFN@InitializeCriticalSectionEx@ 0000000140086b50     libvcruntime:winapi_downlevel.obj
 0002:00002b78       ?s_negLengthTab@FH4@@3QBCB 0000000140086b78     libvcruntime:risctrnsctrl.obj
 0002:00002b90       ?s_shiftTab@FH4@@3QBEB     0000000140086b90     libvcruntime:risctrnsctrl.obj
 0002:00002d30       ??_7exception@std@@6B@     0000000140086d30     libvcruntime:frame.obj
 0002:00002d48       ??_C@_0BC@EOODALEL@Unknown?5exception@ 0000000140086d48     libvcruntime:frame.obj
 0002:00002d68       ??_7bad_exception@std@@6B@ 0000000140086d68     libvcruntime:frame.obj
 0002:00002d80       ??_C@_0O@DPKOEFFH@bad?5exception@ 0000000140086d80     libvcruntime:frame.obj
 0002:00002d90       _Fenv1                     0000000140086d90     libucrt:output.obj
 0002:00002da0       ?standard_lookup_table_spectre@__crt_stdio_output@@3V?$spectre_mitigated_lookup_table@Ustate_transition_pair@__crt_stdio_output@@$0IA@@1@B 0000000140086da0     libucrt:output.obj
 0002:00002ee0       ?format_validation_lookup_table_spectre@__crt_stdio_output@@3V?$spectre_mitigated_lookup_table@Ustate_transition_pair@__crt_stdio_output@@$0IA@@1@B 0000000140086ee0     libucrt:output.obj
 0002:00003018       ??_C@_1O@CEDCILHN@?$AA?$CI?$AAn?$AAu?$AAl?$AAl?$AA?$CJ@ 0000000140087018     libucrt:output.obj
 0002:00003028       ??_C@_06OJHGLDPL@?$CInull?$CJ@ 0000000140087028     libucrt:output.obj
 0002:00003030       __acrt_exception_action_table 0000000140087030     libucrt:exception_filter.obj
 0002:00003118       __acrt_signal_action_table_count 0000000140087118     libucrt:exception_filter.obj
 0002:00003128       __acrt_signal_action_table_size 0000000140087128     libucrt:exception_filter.obj
 0002:00003138       __acrt_signal_action_first_fpe_index 0000000140087138     libucrt:exception_filter.obj
 0002:00003148       __acrt_signal_action_fpe_count 0000000140087148     libucrt:exception_filter.obj
 0002:00003158       ??_C@_1DE@JNGNBFGO@?$AAR?$AAu?$AAn?$AAt?$AAi?$AAm?$AAe?$AA?5?$AAE?$AAr?$AAr?$AAo?$AAr?$AA?$CB?$AA?6@ 0000000140087158     libucrt:report_runtime_error.obj
 0002:00003198       ??_C@_1CO@EAEJAADC@?$AA?$DM?$AAp?$AAr?$AAo?$AAg?$AAr?$AAa?$AAm?$AA?5?$AAn?$AAa?$AAm?$AAe?$AA?5?$AAu@ 0000000140087198     libucrt:report_runtime_error.obj
 0002:000031d0       ??_C@_17LGKOMLJ@?$AA?4?$AA?4?$AA?4@ 00000001400871d0     libucrt:report_runtime_error.obj
 0002:000031dc       ??_C@_15IABLJNFO@?$AA?6?$AA?6@ 00000001400871dc     libucrt:report_runtime_error.obj
 0002:000031f0       ??_C@_1EK@MBDPDCGA@?$AAM?$AAi?$AAc?$AAr?$AAo?$AAs?$AAo?$AAf?$AAt?$AA?5?$AAV?$AAi?$AAs?$AAu?$AAa@ 00000001400871f0     libucrt:report_runtime_error.obj
 0002:00003368       ??_C@_1BI@BGOHAHKC@?$AAm?$AAs?$AAc?$AAo?$AAr?$AAe?$AAe?$AA?4?$AAd?$AAl?$AAl@ 0000000140087368     libucrt:exit.obj
 0002:00003388       ??_C@_0P@MIGLKIOC@CorExitProcess@ 0000000140087388     libucrt:exit.obj
 0002:00003440       __lc_category              0000000140087440     libucrt:wsetlocale.obj
 0002:000034f0       ??_C@_1O@GIFLHMA@?$AAL?$AAC?$AA_?$AAA?$AAL?$AAL@ 00000001400874f0     libucrt:wsetlocale.obj
 0002:00003500       ??_C@_1BG@PPOMIBNJ@?$AAL?$AAC?$AA_?$AAC?$AAO?$AAL?$AAL?$AAA?$AAT?$AAE@ 0000000140087500     libucrt:wsetlocale.obj
 0002:00003520       ??_C@_1BC@FFJGAPJM@?$AAL?$AAC?$AA_?$AAC?$AAT?$AAY?$AAP?$AAE@ 0000000140087520     libucrt:wsetlocale.obj
 0002:00003538       ??_C@_1BI@PCKFNJFB@?$AAL?$AAC?$AA_?$AAM?$AAO?$AAN?$AAE?$AAT?$AAA?$AAR?$AAY@ 0000000140087538     libucrt:wsetlocale.obj
 0002:00003558       ??_C@_1BG@ENIEDKID@?$AAL?$AAC?$AA_?$AAN?$AAU?$AAM?$AAE?$AAR?$AAI?$AAC@ 0000000140087558     libucrt:wsetlocale.obj
 0002:00003578       ??_C@_1BA@HAAOMIIG@?$AAL?$AAC?$AA_?$AAT?$AAI?$AAM?$AAE@ 0000000140087578     libucrt:wsetlocale.obj
 0002:0000358c       ??_C@_15NBPDDFIP@?$AA?$DN?$AA?$DL@ 000000014008758c     libucrt:wsetlocale.obj
 0002:00003594       ??_C@_13PJJBFPED@?$AA?$DL@ 0000000140087594     libucrt:wsetlocale.obj
 0002:00003598       ??_C@_13NMPKAAJP@?$AA?$DN@ 0000000140087598     libucrt:wsetlocale.obj
 0002:0000359c       ??_C@_13IMODFHAA@?$AA?9@   000000014008759c     libucrt:wsetlocale.obj
 0002:000035a0       ??_C@_17EFJLDFDO@?$AA?9?$AA_?$AA?4@ 00000001400875a0     libucrt:wsetlocale.obj
 0002:000035ac       ??_C@_13FHBKNHDA@?$AAC@    00000001400875ac     libucrt:wsetlocale.obj
 0002:000035b0       ??_C@_17MBJJLFDM@?$AA_?$AA?4?$AA?0@ 00000001400875b0     libucrt:wsetlocale.obj
 0002:000035bc       ??_C@_13ENNFDPBH@?$AA_@    00000001400875bc     libucrt:wsetlocale.obj
 0002:000035c0       ??_C@_13JOFGPIOO@?$AA?4@   00000001400875c0     libucrt:wsetlocale.obj
 0002:000039bc       ??_C@_03OEIAHPBN@INF@      00000001400879bc     libucrt:cvt.obj
 0002:000039c0       ??_C@_03OJHLLCGB@inf@      00000001400879c0     libucrt:cvt.obj
 0002:000039c4       ??_C@_03LKNCIKJB@NAN@      00000001400879c4     libucrt:cvt.obj
 0002:000039c8       ??_C@_03LHCJEHON@nan@      00000001400879c8     libucrt:cvt.obj
 0002:000039d0       ??_C@_09OFJJIMPC@NAN?$CISNAN?$CJ@ 00000001400879d0     libucrt:cvt.obj
 0002:000039e0       ??_C@_09IPFBKMDL@nan?$CIsnan?$CJ@ 00000001400879e0     libucrt:cvt.obj
 0002:000039f0       ??_C@_08IKHNHAJ@NAN?$CIIND?$CJ@ 00000001400879f0     libucrt:cvt.obj
 0002:00003a00       ??_C@_08OFCDMILK@nan?$CIind?$CJ@ 0000000140087a00     libucrt:cvt.obj
 0002:00003a0c       ??_C@_05KLBDPFGC@e?$CL000@ 0000000140087a0c     libucrt:cvt.obj
 0002:00003a20       __lc_time_c                0000000140087a20     libucrt:nlsdata.obj
 0002:00003d6c       ??_C@_03KOEHGMDN@Sun@      0000000140087d6c     libucrt:nlsdata.obj
 0002:00003d70       ??_C@_03PDAGKDH@Mon@       0000000140087d70     libucrt:nlsdata.obj
 0002:00003d74       ??_C@_03NAGEINEP@Tue@      0000000140087d74     libucrt:nlsdata.obj
 0002:00003d78       ??_C@_03MHOMLAJA@Wed@      0000000140087d78     libucrt:nlsdata.obj
 0002:00003d7c       ??_C@_03IOFIKPDN@Thu@      0000000140087d7c     libucrt:nlsdata.obj
 0002:00003d80       ??_C@_03IDIOELNC@Fri@      0000000140087d80     libucrt:nlsdata.obj
 0002:00003d84       ??_C@_03FEFJNEK@Sat@       0000000140087d84     libucrt:nlsdata.obj
 0002:00003d88       ??_C@_06OOPIFAJ@Sunday@    0000000140087d88     libucrt:nlsdata.obj
 0002:00003d90       ??_C@_06JLEDEDGH@Monday@   0000000140087d90     libucrt:nlsdata.obj
 0002:00003d98       ??_C@_07BAAGCFCM@Tuesday@  0000000140087d98     libucrt:nlsdata.obj
 0002:00003da8       ??_C@_09DLIGFAKA@Wednesday@ 0000000140087da8     libucrt:nlsdata.obj
 0002:00003db8       ??_C@_08HACCIKIA@Thursday@ 0000000140087db8     libucrt:nlsdata.obj
 0002:00003dc4       ??_C@_06JECMNKMI@Friday@   0000000140087dc4     libucrt:nlsdata.obj
 0002:00003dd0       ??_C@_08INBOOONO@Saturday@ 0000000140087dd0     libucrt:nlsdata.obj
 0002:00003ddc       ??_C@_03JIHJHPIE@Jan@      0000000140087ddc     libucrt:nlsdata.obj
 0002:00003de0       ??_C@_03HJBDCHOM@Feb@      0000000140087de0     libucrt:nlsdata.obj
 0002:00003de4       ??_C@_03ODNJBKGA@Mar@      0000000140087de4     libucrt:nlsdata.obj
 0002:00003de8       ??_C@_03LEOLGMJP@Apr@      0000000140087de8     libucrt:nlsdata.obj
 0002:00003dec       ??_C@_03CNMDKL@May@        0000000140087dec     libucrt:nlsdata.obj
 0002:00003df0       ??_C@_03IDFGHECI@Jun@      0000000140087df0     libucrt:nlsdata.obj
 0002:00003df4       ??_C@_03LBGABGKK@Jul@      0000000140087df4     libucrt:nlsdata.obj
 0002:00003df8       ??_C@_03IFJFEIGA@Aug@      0000000140087df8     libucrt:nlsdata.obj
 0002:00003dfc       ??_C@_03GGCAPAJC@Sep@      0000000140087dfc     libucrt:nlsdata.obj
 0002:00003e00       ??_C@_03BMAOKBAD@Oct@      0000000140087e00     libucrt:nlsdata.obj
 0002:00003e04       ??_C@_03JPJOFNIA@Nov@      0000000140087e04     libucrt:nlsdata.obj
 0002:00003e08       ??_C@_03MKABNOCG@Dec@      0000000140087e08     libucrt:nlsdata.obj
 0002:00003e10       ??_C@_07CGJPFGJA@January@  0000000140087e10     libucrt:nlsdata.obj
 0002:00003e20       ??_C@_08GNJGEPFN@February@ 0000000140087e20     libucrt:nlsdata.obj
 0002:00003e2c       ??_C@_05HPCKOFNC@March@    0000000140087e2c     libucrt:nlsdata.obj
 0002:00003e34       ??_C@_05DMJDNLEJ@April@    0000000140087e34     libucrt:nlsdata.obj
 0002:00003e3c       ??_C@_04CNLMGBGM@June@     0000000140087e3c     libucrt:nlsdata.obj
 0002:00003e44       ??_C@_04MIEPOIFP@July@     0000000140087e44     libucrt:nlsdata.obj
 0002:00003e4c       ??_C@_06LBBHFDDG@August@   0000000140087e4c     libucrt:nlsdata.obj
 0002:00003e58       ??_C@_09BHHEALKD@September@ 0000000140087e58     libucrt:nlsdata.obj
 0002:00003e68       ??_C@_07JJNFCEND@October@  0000000140087e68     libucrt:nlsdata.obj
 0002:00003e78       ??_C@_08HCHEGEOA@November@ 0000000140087e78     libucrt:nlsdata.obj
 0002:00003e88       ??_C@_08EDHMEBNP@December@ 0000000140087e88     libucrt:nlsdata.obj
 0002:00003e94       ??_C@_02DEDBPAFC@AM@       0000000140087e94     libucrt:nlsdata.obj
 0002:00003e98       ??_C@_02CJNFDJBF@PM@       0000000140087e98     libucrt:nlsdata.obj
 0002:00003ea0       ??_C@_08BPBNCDIB@MM?1dd?1yy@ 0000000140087ea0     libucrt:nlsdata.obj
 0002:00003eb0       ??_C@_0BE@CKGJFCPC@dddd?0?5MMMM?5dd?0?5yyyy@ 0000000140087eb0     libucrt:nlsdata.obj
 0002:00003ec8       ??_C@_08JCCMCCIL@HH?3mm?3ss@ 0000000140087ec8     libucrt:nlsdata.obj
 0002:00003ed8       ??_C@_17MBGCMIPB@?$AAS?$AAu?$AAn@ 0000000140087ed8     libucrt:nlsdata.obj
 0002:00003ee8       ??_C@_17KBOMKBF@?$AAM?$AAo?$AAn@ 0000000140087ee8     libucrt:nlsdata.obj
 0002:00003ef8       ??_C@_17BMKGEGOJ@?$AAT?$AAu?$AAe@ 0000000140087ef8     libucrt:nlsdata.obj
 0002:00003f08       ??_C@_17CJEDCEPE@?$AAW?$AAe?$AAd@ 0000000140087f08     libucrt:nlsdata.obj
 0002:00003f18       ??_C@_17PDPHAADD@?$AAT?$AAh?$AAu@ 0000000140087f18     libucrt:nlsdata.obj
 0002:00003f28       ??_C@_17HFOLPPLP@?$AAF?$AAr?$AAi@ 0000000140087f28     libucrt:nlsdata.obj
 0002:00003f38       ??_C@_17GGIBDPIH@?$AAS?$AAa?$AAt@ 0000000140087f38     libucrt:nlsdata.obj
 0002:00003f48       ??_C@_1O@IHNHDHPB@?$AAS?$AAu?$AAn?$AAd?$AAa?$AAy@ 0000000140087f48     libucrt:nlsdata.obj
 0002:00003f58       ??_C@_1O@MMNBFLIA@?$AAM?$AAo?$AAn?$AAd?$AAa?$AAy@ 0000000140087f58     libucrt:nlsdata.obj
 0002:00003f68       ??_C@_1BA@ENFBFFEK@?$AAT?$AAu?$AAe?$AAs?$AAd?$AAa?$AAy@ 0000000140087f68     libucrt:nlsdata.obj
 0002:00003f80       ??_C@_1BE@EBOGMDOH@?$AAW?$AAe?$AAd?$AAn?$AAe?$AAs?$AAd?$AAa?$AAy@ 0000000140087f80     libucrt:nlsdata.obj
 0002:00003f98       ??_C@_1BC@HHMNLIHE@?$AAT?$AAh?$AAu?$AAr?$AAs?$AAd?$AAa?$AAy@ 0000000140087f98     libucrt:nlsdata.obj
 0002:00003fb0       ??_C@_1O@PDICJHAG@?$AAF?$AAr?$AAi?$AAd?$AAa?$AAy@ 0000000140087fb0     libucrt:nlsdata.obj
 0002:00003fc0       ??_C@_1BC@ENMNNPAJ@?$AAS?$AAa?$AAt?$AAu?$AAr?$AAd?$AAa?$AAy@ 0000000140087fc0     libucrt:nlsdata.obj
 0002:00003fd8       ??_C@_17DKNBKCHM@?$AAJ?$AAa?$AAn@ 0000000140087fd8     libucrt:nlsdata.obj
 0002:00003fe8       ??_C@_17LMDJEKJN@?$AAF?$AAe?$AAb@ 0000000140087fe8     libucrt:nlsdata.obj
 0002:00003ff8       ??_C@_17CKNLEDEC@?$AAM?$AAa?$AAr@ 0000000140087ff8     libucrt:nlsdata.obj
 0002:00004008       ??_C@_17LFPOIHDD@?$AAA?$AAp?$AAr@ 0000000140088008     libucrt:nlsdata.obj
 0002:00004018       ??_C@_17PNNKMEED@?$AAM?$AAa?$AAy@ 0000000140088018     libucrt:nlsdata.obj
 0002:00004028       ??_C@_17KCJGOCPB@?$AAJ?$AAu?$AAn@ 0000000140088028     libucrt:nlsdata.obj
 0002:00004038       ??_C@_17IJPCKHK@?$AAJ?$AAu?$AAl@ 0000000140088038     libucrt:nlsdata.obj
 0002:00004048       ??_C@_17ICPELBCN@?$AAA?$AAu?$AAg@ 0000000140088048     libucrt:nlsdata.obj
 0002:00004058       ??_C@_17HCHCOKMG@?$AAS?$AAe?$AAp@ 0000000140088058     libucrt:nlsdata.obj
 0002:00004068       ??_C@_17FNLKOI@?$AAO?$AAc?$AAt@ 0000000140088068     libucrt:nlsdata.obj
 0002:00004078       ??_C@_17BBDMLCIG@?$AAN?$AAo?$AAv@ 0000000140088078     libucrt:nlsdata.obj
 0002:00004088       ??_C@_17EGKACKIF@?$AAD?$AAe?$AAc@ 0000000140088088     libucrt:nlsdata.obj
 0002:00004098       ??_C@_1BA@EFMEIEBA@?$AAJ?$AAa?$AAn?$AAu?$AAa?$AAr?$AAy@ 0000000140088098     libucrt:nlsdata.obj
 0002:000040b0       ??_C@_1BC@JGDDFFAM@?$AAF?$AAe?$AAb?$AAr?$AAu?$AAa?$AAr?$AAy@ 00000001400880b0     libucrt:nlsdata.obj
 0002:000040c8       ??_C@_1M@IKEENEDF@?$AAM?$AAa?$AAr?$AAc?$AAh@ 00000001400880c8     libucrt:nlsdata.obj
 0002:000040d8       ??_C@_1M@GJNLMHFD@?$AAA?$AAp?$AAr?$AAi?$AAl@ 00000001400880d8     libucrt:nlsdata.obj
 0002:000040e8       ??_C@_19EPFLPGAP@?$AAJ?$AAu?$AAn?$AAe@ 00000001400880e8     libucrt:nlsdata.obj
 0002:000040f8       ??_C@_19BIFMLPCD@?$AAJ?$AAu?$AAl?$AAy@ 00000001400880f8     libucrt:nlsdata.obj
 0002:00004108       ??_C@_1O@PAHLKOAC@?$AAA?$AAu?$AAg?$AAu?$AAs?$AAt@ 0000000140088108     libucrt:nlsdata.obj
 0002:00004118       ??_C@_1BE@DKAAMBJL@?$AAS?$AAe?$AAp?$AAt?$AAe?$AAm?$AAb?$AAe?$AAr@ 0000000140088118     libucrt:nlsdata.obj
 0002:00004130       ??_C@_1BA@EPANDLNG@?$AAO?$AAc?$AAt?$AAo?$AAb?$AAe?$AAr@ 0000000140088130     libucrt:nlsdata.obj
 0002:00004148       ??_C@_1BC@BGLIFPF@?$AAN?$AAo?$AAv?$AAe?$AAm?$AAb?$AAe?$AAr@ 0000000140088148     libucrt:nlsdata.obj
 0002:00004160       ??_C@_1BC@FEMKIFH@?$AAD?$AAe?$AAc?$AAe?$AAm?$AAb?$AAe?$AAr@ 0000000140088160     libucrt:nlsdata.obj
 0002:00004178       ??_C@_15ODEHAHHF@?$AAA?$AAM@ 0000000140088178     libucrt:nlsdata.obj
 0002:00004180       ??_C@_15CLMNNGEL@?$AAP?$AAM@ 0000000140088180     libucrt:nlsdata.obj
 0002:00004188       ??_C@_1BC@IEBCMHCM@?$AAM?$AAM?$AA?1?$AAd?$AAd?$AA?1?$AAy?$AAy@ 0000000140088188     libucrt:nlsdata.obj
 0002:000041a0       ??_C@_1CI@KNAKOEBC@?$AAd?$AAd?$AAd?$AAd?$AA?0?$AA?5?$AAM?$AAM?$AAM?$AAM?$AA?5?$AAd?$AAd?$AA?0?$AA?5@ 00000001400881a0     libucrt:nlsdata.obj
 0002:000041d0       ??_C@_1BC@GDGBMEMK@?$AAH?$AAH?$AA?3?$AAm?$AAm?$AA?3?$AAs?$AAs@ 00000001400881d0     libucrt:nlsdata.obj
 0002:000041e8       ??_C@_1M@BMHNFIME@?$AAe?$AAn?$AA?9?$AAU?$AAS@ 00000001400881e8     libucrt:nlsdata.obj
 0002:00004220       ??_C@_1M@HPNHIDJI@?$AAj?$AAa?$AA?9?$AAJ?$AAP@ 0000000140088220     libucrt:mbctype.obj
 0002:00004230       ??_C@_1M@BIBDDEMK@?$AAz?$AAh?$AA?9?$AAC?$AAN@ 0000000140088230     libucrt:mbctype.obj
 0002:00004240       ??_C@_1M@JLOOOEGK@?$AAk?$AAo?$AA?9?$AAK?$AAR@ 0000000140088240     libucrt:mbctype.obj
 0002:00004250       ??_C@_1M@CLNBBOPM@?$AAz?$AAh?$AA?9?$AAT?$AAW@ 0000000140088250     libucrt:mbctype.obj
 0002:00004260       RtlNtPathSeperatorString   0000000140088260     libucrt:peb_access.obj
 0002:00004274       ??_C@_13FPGAJAPJ@?$AA?2@   0000000140088274     libucrt:peb_access.obj
 0002:00004278       RtlDosPathSeperatorsString 0000000140088278     libucrt:peb_access.obj
 0002:0000428c       ??_C@_15MNCACJLI@?$AA?2?$AA?1@ 000000014008828c     libucrt:peb_access.obj
 0002:00004298       RtlAlternateDosPathSeperatorString 0000000140088298     libucrt:peb_access.obj
 0002:000042ac       ??_C@_13CGOKJPIL@?$AA?1@   00000001400882ac     libucrt:peb_access.obj
 0002:000042b0       __newctype                 00000001400882b0     libucrt:ctype.obj
 0002:00004650       __newclmap                 0000000140088650     libucrt:ctype.obj
 0002:00004820       __newcumap                 0000000140088820     libucrt:ctype.obj
 0002:000049f0       _wctype                    00000001400889f0     libucrt:ctype.obj
 0002:00004c60       __acrt_rg_language         0000000140088c60     libucrt:get_qualified_locale.obj
 0002:00005140       __acrt_rg_language_count   0000000140089140     libucrt:get_qualified_locale.obj
 0002:00005150       __acrt_rg_country          0000000140089150     libucrt:get_qualified_locale.obj
 0002:00005310       __acrt_rg_country_count    0000000140089310     libucrt:get_qualified_locale.obj
 0002:00005320       ??_C@_1BC@LLOKLNP@?$AAa?$AAm?$AAe?$AAr?$AAi?$AAc?$AAa?$AAn@ 0000000140089320     libucrt:get_qualified_locale.obj
 0002:00005338       ??_C@_1CC@HEIGCDGG@?$AAa?$AAm?$AAe?$AAr?$AAi?$AAc?$AAa?$AAn?$AA?5?$AAe?$AAn?$AAg?$AAl?$AAi?$AAs@ 0000000140089338     libucrt:get_qualified_locale.obj
 0002:00005360       ??_C@_1CC@IHCNOMIN@?$AAa?$AAm?$AAe?$AAr?$AAi?$AAc?$AAa?$AAn?$AA?9?$AAe?$AAn?$AAg?$AAl?$AAi?$AAs@ 0000000140089360     libucrt:get_qualified_locale.obj
 0002:00005388       ??_C@_1BG@GKAGPCGG@?$AAa?$AAu?$AAs?$AAt?$AAr?$AAa?$AAl?$AAi?$AAa?$AAn@ 0000000140089388     libucrt:get_qualified_locale.obj
 0002:000053a8       ??_C@_1BA@GMENCENF@?$AAb?$AAe?$AAl?$AAg?$AAi?$AAa?$AAn@ 00000001400893a8     libucrt:get_qualified_locale.obj
 0002:000053c0       ??_C@_1BC@PJMIIAAN@?$AAc?$AAa?$AAn?$AAa?$AAd?$AAi?$AAa?$AAn@ 00000001400893c0     libucrt:get_qualified_locale.obj
 0002:000053d8       ??_C@_17NOIMNFBF@?$AAc?$AAh?$AAh@ 00000001400893d8     libucrt:get_qualified_locale.obj
 0002:000053e8       ??_C@_17GGDALCHA@?$AAc?$AAh?$AAi@ 00000001400893e8     libucrt:get_qualified_locale.obj
 0002:000053f8       ??_C@_1BA@NPNJKIBL@?$AAc?$AAh?$AAi?$AAn?$AAe?$AAs?$AAe@ 00000001400893f8     libucrt:get_qualified_locale.obj
 0002:00005410       ??_C@_1CC@DINBAMMJ@?$AAc?$AAh?$AAi?$AAn?$AAe?$AAs?$AAe?$AA?9?$AAh?$AAo?$AAn?$AAg?$AAk?$AAo?$AAn@ 0000000140089410     libucrt:get_qualified_locale.obj
 0002:00005438       ??_C@_1CG@IOBJPACO@?$AAc?$AAh?$AAi?$AAn?$AAe?$AAs?$AAe?$AA?9?$AAs?$AAi?$AAm?$AAp?$AAl?$AAi?$AAf@ 0000000140089438     libucrt:get_qualified_locale.obj
 0002:00005468       ??_C@_1CE@GAJNDCKG@?$AAc?$AAh?$AAi?$AAn?$AAe?$AAs?$AAe?$AA?9?$AAs?$AAi?$AAn?$AAg?$AAa?$AAp?$AAo@ 0000000140089468     libucrt:get_qualified_locale.obj
 0002:00005498       ??_C@_1CI@PAJPIOOD@?$AAc?$AAh?$AAi?$AAn?$AAe?$AAs?$AAe?$AA?9?$AAt?$AAr?$AAa?$AAd?$AAi?$AAt?$AAi@ 0000000140089498     libucrt:get_qualified_locale.obj
 0002:000054c8       ??_C@_1BM@NILJBMMD@?$AAd?$AAu?$AAt?$AAc?$AAh?$AA?9?$AAb?$AAe?$AAl?$AAg?$AAi?$AAa?$AAn@ 00000001400894c8     libucrt:get_qualified_locale.obj
 0002:000054f0       ??_C@_1CC@OOJPJNEJ@?$AAe?$AAn?$AAg?$AAl?$AAi?$AAs?$AAh?$AA?9?$AAa?$AAm?$AAe?$AAr?$AAi?$AAc?$AAa@ 00000001400894f0     libucrt:get_qualified_locale.obj
 0002:00005518       ??_C@_1BI@IOLFEEM@?$AAe?$AAn?$AAg?$AAl?$AAi?$AAs?$AAh?$AA?9?$AAa?$AAu?$AAs@ 0000000140089518     libucrt:get_qualified_locale.obj
 0002:00005538       ??_C@_1BO@HFFNLENJ@?$AAe?$AAn?$AAg?$AAl?$AAi?$AAs?$AAh?$AA?9?$AAb?$AAe?$AAl?$AAi?$AAz?$AAe@ 0000000140089538     libucrt:get_qualified_locale.obj
 0002:00005560       ??_C@_1BI@HAPKJMPO@?$AAe?$AAn?$AAg?$AAl?$AAi?$AAs?$AAh?$AA?9?$AAc?$AAa?$AAn@ 0000000140089560     libucrt:get_qualified_locale.obj
 0002:00005580       ??_C@_1CE@HLNDMIOJ@?$AAe?$AAn?$AAg?$AAl?$AAi?$AAs?$AAh?$AA?9?$AAc?$AAa?$AAr?$AAi?$AAb?$AAb?$AAe@ 0000000140089580     libucrt:get_qualified_locale.obj
 0002:000055b0       ??_C@_1BI@LDHJHHAC@?$AAe?$AAn?$AAg?$AAl?$AAi?$AAs?$AAh?$AA?9?$AAi?$AAr?$AAe@ 00000001400895b0     libucrt:get_qualified_locale.obj
 0002:000055d0       ??_C@_1CA@NJMMCFOC@?$AAe?$AAn?$AAg?$AAl?$AAi?$AAs?$AAh?$AA?9?$AAj?$AAa?$AAm?$AAa?$AAi?$AAc?$AAa@ 00000001400895d0     libucrt:get_qualified_locale.obj
 0002:000055f8       ??_C@_1BG@BHJEBBGG@?$AAe?$AAn?$AAg?$AAl?$AAi?$AAs?$AAh?$AA?9?$AAn?$AAz@ 00000001400895f8     libucrt:get_qualified_locale.obj
 0002:00005618       ??_C@_1CK@FGOEJJCO@?$AAe?$AAn?$AAg?$AAl?$AAi?$AAs?$AAh?$AA?9?$AAs?$AAo?$AAu?$AAt?$AAh?$AA?5?$AAa@ 0000000140089618     libucrt:get_qualified_locale.obj
 0002:00005650       ??_C@_1DE@PDBJPCJ@?$AAe?$AAn?$AAg?$AAl?$AAi?$AAs?$AAh?$AA?9?$AAt?$AAr?$AAi?$AAn?$AAi?$AAd?$AAa@ 0000000140089650     libucrt:get_qualified_locale.obj
 0002:00005690       ??_C@_1BG@JGCANDME@?$AAe?$AAn?$AAg?$AAl?$AAi?$AAs?$AAh?$AA?9?$AAu?$AAk@ 0000000140089690     libucrt:get_qualified_locale.obj
 0002:000056b0       ??_C@_1BG@DINKMLE@?$AAe?$AAn?$AAg?$AAl?$AAi?$AAs?$AAh?$AA?9?$AAu?$AAs@ 00000001400896b0     libucrt:get_qualified_locale.obj
 0002:000056d0       ??_C@_1BI@NMFDBHJE@?$AAe?$AAn?$AAg?$AAl?$AAi?$AAs?$AAh?$AA?9?$AAu?$AAs?$AAa@ 00000001400896d0     libucrt:get_qualified_locale.obj
 0002:000056f0       ??_C@_1BO@OIHKJKII@?$AAf?$AAr?$AAe?$AAn?$AAc?$AAh?$AA?9?$AAb?$AAe?$AAl?$AAg?$AAi?$AAa?$AAn@ 00000001400896f0     libucrt:get_qualified_locale.obj
 0002:00005718       ??_C@_1CA@NKAELJKI@?$AAf?$AAr?$AAe?$AAn?$AAc?$AAh?$AA?9?$AAc?$AAa?$AAn?$AAa?$AAd?$AAi?$AAa?$AAn@ 0000000140089718     libucrt:get_qualified_locale.obj
 0002:00005740       ??_C@_1CE@MGKCNLGN@?$AAf?$AAr?$AAe?$AAn?$AAc?$AAh?$AA?9?$AAl?$AAu?$AAx?$AAe?$AAm?$AAb?$AAo?$AAu@ 0000000140089740     libucrt:get_qualified_locale.obj
 0002:00005770       ??_C@_1BK@CEGEAILM@?$AAf?$AAr?$AAe?$AAn?$AAc?$AAh?$AA?9?$AAs?$AAw?$AAi?$AAs?$AAs@ 0000000140089770     libucrt:get_qualified_locale.obj
 0002:00005790       ??_C@_1CA@PAFKEOCC@?$AAg?$AAe?$AAr?$AAm?$AAa?$AAn?$AA?9?$AAa?$AAu?$AAs?$AAt?$AAr?$AAi?$AAa?$AAn@ 0000000140089790     libucrt:get_qualified_locale.obj
 0002:000057b8       ??_C@_1CI@HCFHGOFD@?$AAg?$AAe?$AAr?$AAm?$AAa?$AAn?$AA?9?$AAl?$AAi?$AAc?$AAh?$AAt?$AAe?$AAn?$AAs@ 00000001400897b8     libucrt:get_qualified_locale.obj
 0002:000057e8       ??_C@_1CE@FEDDNPDG@?$AAg?$AAe?$AAr?$AAm?$AAa?$AAn?$AA?9?$AAl?$AAu?$AAx?$AAe?$AAm?$AAb?$AAo?$AAu@ 00000001400897e8     libucrt:get_qualified_locale.obj
 0002:00005818       ??_C@_1BK@LIMINNMN@?$AAg?$AAe?$AAr?$AAm?$AAa?$AAn?$AA?9?$AAs?$AAw?$AAi?$AAs?$AAs@ 0000000140089818     libucrt:get_qualified_locale.obj
 0002:00005838       ??_C@_1BM@LGMDBEPD@?$AAi?$AAr?$AAi?$AAs?$AAh?$AA?9?$AAe?$AAn?$AAg?$AAl?$AAi?$AAs?$AAh@ 0000000140089838     libucrt:get_qualified_locale.obj
 0002:00005860       ??_C@_1BM@NNCFBAEE@?$AAi?$AAt?$AAa?$AAl?$AAi?$AAa?$AAn?$AA?9?$AAs?$AAw?$AAi?$AAs?$AAs@ 0000000140089860     libucrt:get_qualified_locale.obj
 0002:00005888       ??_C@_1BE@FEDJNPIB@?$AAn?$AAo?$AAr?$AAw?$AAe?$AAg?$AAi?$AAa?$AAn@ 0000000140089888     libucrt:get_qualified_locale.obj
 0002:000058a0       ??_C@_1CC@CILKDEIE@?$AAn?$AAo?$AAr?$AAw?$AAe?$AAg?$AAi?$AAa?$AAn?$AA?9?$AAb?$AAo?$AAk?$AAm?$AAa@ 00000001400898a0     libucrt:get_qualified_locale.obj
 0002:000058c8       ??_C@_1CE@DHMMHEPL@?$AAn?$AAo?$AAr?$AAw?$AAe?$AAg?$AAi?$AAa?$AAn?$AA?9?$AAn?$AAy?$AAn?$AAo?$AAr@ 00000001400898c8     libucrt:get_qualified_locale.obj
 0002:000058f8       ??_C@_1CK@OPNMHECD@?$AAp?$AAo?$AAr?$AAt?$AAu?$AAg?$AAu?$AAe?$AAs?$AAe?$AA?9?$AAb?$AAr?$AAa?$AAz@ 00000001400898f8     libucrt:get_qualified_locale.obj
 0002:00005930       ??_C@_1CE@KEEHCDB@?$AAs?$AAp?$AAa?$AAn?$AAi?$AAs?$AAh?$AA?9?$AAa?$AAr?$AAg?$AAe?$AAn?$AAt?$AAi@ 0000000140089930     libucrt:get_qualified_locale.obj
 0002:00005960       ??_C@_1CA@GIAOLHJD@?$AAs?$AAp?$AAa?$AAn?$AAi?$AAs?$AAh?$AA?9?$AAb?$AAo?$AAl?$AAi?$AAv?$AAi?$AAa@ 0000000140089960     libucrt:get_qualified_locale.obj
 0002:00005988       ??_C@_1BM@OJNDFNPD@?$AAs?$AAp?$AAa?$AAn?$AAi?$AAs?$AAh?$AA?9?$AAc?$AAh?$AAi?$AAl?$AAe@ 0000000140089988     libucrt:get_qualified_locale.obj
 0002:000059b0       ??_C@_1CC@OCOLPALL@?$AAs?$AAp?$AAa?$AAn?$AAi?$AAs?$AAh?$AA?9?$AAc?$AAo?$AAl?$AAo?$AAm?$AAb?$AAi@ 00000001400899b0     libucrt:get_qualified_locale.obj
 0002:000059d8       ??_C@_1CG@BPOFMKBB@?$AAs?$AAp?$AAa?$AAn?$AAi?$AAs?$AAh?$AA?9?$AAc?$AAo?$AAs?$AAt?$AAa?$AA?5?$AAr@ 00000001400899d8     libucrt:get_qualified_locale.obj
 0002:00005a08       ??_C@_1DG@IGOBAPBB@?$AAs?$AAp?$AAa?$AAn?$AAi?$AAs?$AAh?$AA?9?$AAd?$AAo?$AAm?$AAi?$AAn?$AAi?$AAc@ 0000000140089a08     libucrt:get_qualified_locale.obj
 0002:00005a48       ??_C@_1CA@JHAPGEGI@?$AAs?$AAp?$AAa?$AAn?$AAi?$AAs?$AAh?$AA?9?$AAe?$AAc?$AAu?$AAa?$AAd?$AAo?$AAr@ 0000000140089a48     libucrt:get_qualified_locale.obj
 0002:00005a70       ??_C@_1CI@LAPALJPP@?$AAs?$AAp?$AAa?$AAn?$AAi?$AAs?$AAh?$AA?9?$AAe?$AAl?$AA?5?$AAs?$AAa?$AAl?$AAv@ 0000000140089a70     libucrt:get_qualified_locale.obj
 0002:00005aa0       ??_C@_1CE@PDGBOFOM@?$AAs?$AAp?$AAa?$AAn?$AAi?$AAs?$AAh?$AA?9?$AAg?$AAu?$AAa?$AAt?$AAe?$AAm?$AAa@ 0000000140089aa0     libucrt:get_qualified_locale.obj
 0002:00005ad0       ??_C@_1CC@NBEBAODI@?$AAs?$AAp?$AAa?$AAn?$AAi?$AAs?$AAh?$AA?9?$AAh?$AAo?$AAn?$AAd?$AAu?$AAr?$AAa@ 0000000140089ad0     libucrt:get_qualified_locale.obj
 0002:00005af8       ??_C@_1CA@LLKGHBMF@?$AAs?$AAp?$AAa?$AAn?$AAi?$AAs?$AAh?$AA?9?$AAm?$AAe?$AAx?$AAi?$AAc?$AAa?$AAn@ 0000000140089af8     libucrt:get_qualified_locale.obj
 0002:00005b20       ??_C@_1BO@LKNDOIGD@?$AAs?$AAp?$AAa?$AAn?$AAi?$AAs?$AAh?$AA?9?$AAm?$AAo?$AAd?$AAe?$AAr?$AAn@ 0000000140089b20     libucrt:get_qualified_locale.obj
 0002:00005b48       ??_C@_1CE@NMDMOEEB@?$AAs?$AAp?$AAa?$AAn?$AAi?$AAs?$AAh?$AA?9?$AAn?$AAi?$AAc?$AAa?$AAr?$AAa?$AAg@ 0000000140089b48     libucrt:get_qualified_locale.obj
 0002:00005b78       ??_C@_1BO@LLCBEJGB@?$AAs?$AAp?$AAa?$AAn?$AAi?$AAs?$AAh?$AA?9?$AAp?$AAa?$AAn?$AAa?$AAm?$AAa@ 0000000140089b78     libucrt:get_qualified_locale.obj
 0002:00005ba0       ??_C@_1CC@FKPGGIHO@?$AAs?$AAp?$AAa?$AAn?$AAi?$AAs?$AAh?$AA?9?$AAp?$AAa?$AAr?$AAa?$AAg?$AAu?$AAa@ 0000000140089ba0     libucrt:get_qualified_locale.obj
 0002:00005bc8       ??_C@_1BK@CDEIHOOP@?$AAs?$AAp?$AAa?$AAn?$AAi?$AAs?$AAh?$AA?9?$AAp?$AAe?$AAr?$AAu@ 0000000140089bc8     libucrt:get_qualified_locale.obj
 0002:00005be8       ??_C@_1CI@GAHAKKGP@?$AAs?$AAp?$AAa?$AAn?$AAi?$AAs?$AAh?$AA?9?$AAp?$AAu?$AAe?$AAr?$AAt?$AAo?$AA?5@ 0000000140089be8     libucrt:get_qualified_locale.obj
 0002:00005c18       ??_C@_1CA@NKJBCAGP@?$AAs?$AAp?$AAa?$AAn?$AAi?$AAs?$AAh?$AA?9?$AAu?$AAr?$AAu?$AAg?$AAu?$AAa?$AAy@ 0000000140089c18     libucrt:get_qualified_locale.obj
 0002:00005c40       ??_C@_1CE@ODILCONM@?$AAs?$AAp?$AAa?$AAn?$AAi?$AAs?$AAh?$AA?9?$AAv?$AAe?$AAn?$AAe?$AAz?$AAu?$AAe@ 0000000140089c40     libucrt:get_qualified_locale.obj
 0002:00005c70       ??_C@_1CA@OBNMCGFO@?$AAs?$AAw?$AAe?$AAd?$AAi?$AAs?$AAh?$AA?9?$AAf?$AAi?$AAn?$AAl?$AAa?$AAn?$AAd@ 0000000140089c70     libucrt:get_qualified_locale.obj
 0002:00005c98       ??_C@_1M@PIPDDPPI@?$AAs?$AAw?$AAi?$AAs?$AAs@ 0000000140089c98     libucrt:get_qualified_locale.obj
 0002:00005ca8       ??_C@_15PJPFLCCM@?$AAu?$AAk@ 0000000140089ca8     libucrt:get_qualified_locale.obj
 0002:00005cb0       ??_C@_15GMFIMNFM@?$AAu?$AAs@ 0000000140089cb0     libucrt:get_qualified_locale.obj
 0002:00005cb8       ??_C@_17HAEBFAGL@?$AAu?$AAs?$AAa@ 0000000140089cb8     libucrt:get_qualified_locale.obj
 0002:00005cc8       ??_C@_1BA@DPFJEPHB@?$AAa?$AAm?$AAe?$AAr?$AAi?$AAc?$AAa@ 0000000140089cc8     libucrt:get_qualified_locale.obj
 0002:00005ce0       ??_C@_1BA@ELOGGFK@?$AAb?$AAr?$AAi?$AAt?$AAa?$AAi?$AAn@ 0000000140089ce0     libucrt:get_qualified_locale.obj
 0002:00005cf8       ??_C@_1M@GHBGIGDA@?$AAc?$AAh?$AAi?$AAn?$AAa@ 0000000140089cf8     libucrt:get_qualified_locale.obj
 0002:00005d08       ??_C@_1M@NCHEJOPO@?$AAc?$AAz?$AAe?$AAc?$AAh@ 0000000140089d08     libucrt:get_qualified_locale.obj
 0002:00005d18       ??_C@_1BA@BKPAPBLA@?$AAe?$AAn?$AAg?$AAl?$AAa?$AAn?$AAd@ 0000000140089d18     libucrt:get_qualified_locale.obj
 0002:00005d30       ??_C@_1BM@HKBCKIPC@?$AAg?$AAr?$AAe?$AAa?$AAt?$AA?5?$AAb?$AAr?$AAi?$AAt?$AAa?$AAi?$AAn@ 0000000140089d30     libucrt:get_qualified_locale.obj
 0002:00005d58       ??_C@_1BA@PPCHPGJB@?$AAh?$AAo?$AAl?$AAl?$AAa?$AAn?$AAd@ 0000000140089d58     libucrt:get_qualified_locale.obj
 0002:00005d70       ??_C@_1BE@JBMPEGDG@?$AAh?$AAo?$AAn?$AAg?$AA?9?$AAk?$AAo?$AAn?$AAg@ 0000000140089d70     libucrt:get_qualified_locale.obj
 0002:00005d88       ??_C@_1BI@KOELBBPJ@?$AAn?$AAe?$AAw?$AA?9?$AAz?$AAe?$AAa?$AAl?$AAa?$AAn?$AAd@ 0000000140089d88     libucrt:get_qualified_locale.obj
 0002:00005da4       ??_C@_15HIEBHAIO@?$AAn?$AAz@ 0000000140089da4     libucrt:get_qualified_locale.obj
 0002:00005db0       ??_C@_1BC@CHBCPFPI@?$AAp?$AAr?$AA?5?$AAc?$AAh?$AAi?$AAn?$AAa@ 0000000140089db0     libucrt:get_qualified_locale.obj
 0002:00005dc8       ??_C@_1BC@JAOIIFKD@?$AAp?$AAr?$AA?9?$AAc?$AAh?$AAi?$AAn?$AAa@ 0000000140089dc8     libucrt:get_qualified_locale.obj
 0002:00005de0       ??_C@_1BI@BEHPPHKC@?$AAp?$AAu?$AAe?$AAr?$AAt?$AAo?$AA?9?$AAr?$AAi?$AAc?$AAo@ 0000000140089de0     libucrt:get_qualified_locale.obj
 0002:00005e00       ??_C@_1O@PAEOFKDI@?$AAs?$AAl?$AAo?$AAv?$AAa?$AAk@ 0000000140089e00     libucrt:get_qualified_locale.obj
 0002:00005e10       ??_C@_1BK@FIHMCKAM@?$AAs?$AAo?$AAu?$AAt?$AAh?$AA?5?$AAa?$AAf?$AAr?$AAi?$AAc?$AAa@ 0000000140089e10     libucrt:get_qualified_locale.obj
 0002:00005e30       ??_C@_1BI@NAEOODKB@?$AAs?$AAo?$AAu?$AAt?$AAh?$AA?5?$AAk?$AAo?$AAr?$AAe?$AAa@ 0000000140089e30     libucrt:get_qualified_locale.obj
 0002:00005e50       ??_C@_1BK@FBDGGIFF@?$AAs?$AAo?$AAu?$AAt?$AAh?$AA?9?$AAa?$AAf?$AAr?$AAi?$AAc?$AAa@ 0000000140089e50     libucrt:get_qualified_locale.obj
 0002:00005e70       ??_C@_1BI@GHLEJDPK@?$AAs?$AAo?$AAu?$AAt?$AAh?$AA?9?$AAk?$AAo?$AAr?$AAe?$AAa@ 0000000140089e70     libucrt:get_qualified_locale.obj
 0002:00005e90       ??_C@_1CE@PLHLOMJF@?$AAt?$AAr?$AAi?$AAn?$AAi?$AAd?$AAa?$AAd?$AA?5?$AA?$CG?$AA?5?$AAt?$AAo?$AAb?$AAa@ 0000000140089e90     libucrt:get_qualified_locale.obj
 0002:00005ec0       ??_C@_1BO@MODIMHHI@?$AAu?$AAn?$AAi?$AAt?$AAe?$AAd?$AA?9?$AAk?$AAi?$AAn?$AAg?$AAd?$AAo?$AAm@ 0000000140089ec0     libucrt:get_qualified_locale.obj
 0002:00005ee8       ??_C@_1BM@FFHJONBJ@?$AAu?$AAn?$AAi?$AAt?$AAe?$AAd?$AA?9?$AAs?$AAt?$AAa?$AAt?$AAe?$AAs@ 0000000140089ee8     libucrt:get_qualified_locale.obj
 0002:00005f10       ??_C@_19MPDNHKDG@?$AAu?$AAt?$AAf?$AA8@ 0000000140089f10     libucrt:get_qualified_locale.obj
 0002:00005f20       ??_C@_17DNCLJFIF@?$AAA?$AAC?$AAP@ 0000000140089f20     libucrt:get_qualified_locale.obj
 0002:00005f30       ??_C@_1M@FPEIIFAM@?$AAu?$AAt?$AAf?$AA?9?$AA8@ 0000000140089f30     libucrt:get_qualified_locale.obj
 0002:00005f40       ??_C@_17CIKBIHLH@?$AAO?$AAC?$AAP@ 0000000140089f40     libucrt:get_qualified_locale.obj
 0002:00005f50       __rglangidNotDefault       0000000140089f50     libucrt:getqloc_downlevel.obj
 0002:00006040       ??_C@_1EA@JGEFHKEI@?$AAa?$AAp?$AAi?$AA?9?$AAm?$AAs?$AA?9?$AAw?$AAi?$AAn?$AA?9?$AAc?$AAo?$AAr?$AAe@ 000000014008a040     libucrt:winapi_thunks.obj
 0002:00006090       ??_C@_1DI@KMEPCBPN@?$AAa?$AAp?$AAi?$AA?9?$AAm?$AAs?$AA?9?$AAw?$AAi?$AAn?$AA?9?$AAc?$AAo?$AAr?$AAe@ 000000014008a090     libucrt:winapi_thunks.obj
 0002:000060d8       ??_C@_1DI@IJCEHOCB@?$AAa?$AAp?$AAi?$AA?9?$AAm?$AAs?$AA?9?$AAw?$AAi?$AAn?$AA?9?$AAc?$AAo?$AAr?$AAe@ 000000014008a0d8     libucrt:winapi_thunks.obj
 0002:00006120       ??_C@_1EI@MPIAOHOC@?$AAa?$AAp?$AAi?$AA?9?$AAm?$AAs?$AA?9?$AAw?$AAi?$AAn?$AA?9?$AAc?$AAo?$AAr?$AAe@ 000000014008a120     libucrt:winapi_thunks.obj
 0002:00006180       ??_C@_1FK@FPHCKFIE@?$AAa?$AAp?$AAi?$AA?9?$AAm?$AAs?$AA?9?$AAw?$AAi?$AAn?$AA?9?$AAc?$AAo?$AAr?$AAe@ 000000014008a180     libucrt:winapi_thunks.obj
 0002:000061f0       ??_C@_1EM@DILCGIIO@?$AAa?$AAp?$AAi?$AA?9?$AAm?$AAs?$AA?9?$AAw?$AAi?$AAn?$AA?9?$AAc?$AAo?$AAr?$AAe@ 000000014008a1f0     libucrt:winapi_thunks.obj
 0002:00006250       ??_C@_1DM@LNCGDDPN@?$AAa?$AAp?$AAi?$AA?9?$AAm?$AAs?$AA?9?$AAw?$AAi?$AAn?$AA?9?$AAc?$AAo?$AAr?$AAe@ 000000014008a250     libucrt:winapi_thunks.obj
 0002:00006298       ??_C@_1DO@FPAPJEMD@?$AAa?$AAp?$AAi?$AA?9?$AAm?$AAs?$AA?9?$AAw?$AAi?$AAn?$AA?9?$AAc?$AAo?$AAr?$AAe@ 000000014008a298     libucrt:winapi_thunks.obj
 0002:000062e8       ??_C@_1DK@NDHNAHIO@?$AAa?$AAp?$AAi?$AA?9?$AAm?$AAs?$AA?9?$AAw?$AAi?$AAn?$AA?9?$AAc?$AAo?$AAr?$AAe@ 000000014008a2e8     libucrt:winapi_thunks.obj
 0002:00006330       ??_C@_1DM@KGHDGBCM@?$AAa?$AAp?$AAi?$AA?9?$AAm?$AAs?$AA?9?$AAw?$AAi?$AAn?$AA?9?$AAc?$AAo?$AAr?$AAe@ 000000014008a330     libucrt:winapi_thunks.obj
 0002:00006380       ??_C@_1EO@IJIOEFOH@?$AAa?$AAp?$AAi?$AA?9?$AAm?$AAs?$AA?9?$AAw?$AAi?$AAn?$AA?9?$AAr?$AAt?$AAc?$AAo@ 000000014008a380     libucrt:winapi_thunks.obj
 0002:000063e0       ??_C@_1FG@HHGEKANL@?$AAa?$AAp?$AAi?$AA?9?$AAm?$AAs?$AA?9?$AAw?$AAi?$AAn?$AA?9?$AAs?$AAe?$AAc?$AAu@ 000000014008a3e0     libucrt:winapi_thunks.obj
 0002:00006450       ??_C@_1EG@DBIOJECG@?$AAe?$AAx?$AAt?$AA?9?$AAm?$AAs?$AA?9?$AAw?$AAi?$AAn?$AA?9?$AAn?$AAt?$AAu?$AAs@ 000000014008a450     libucrt:winapi_thunks.obj
 0002:000064b0       ??_C@_1EO@FIHMJCLF@?$AAe?$AAx?$AAt?$AA?9?$AAm?$AAs?$AA?9?$AAw?$AAi?$AAn?$AA?9?$AAn?$AAt?$AAu?$AAs@ 000000014008a4b0     libucrt:winapi_thunks.obj
 0002:00006510       ??_C@_1BC@DNHGCMLG@?$AAa?$AAd?$AAv?$AAa?$AAp?$AAi?$AA3?$AA2@ 000000014008a510     libucrt:winapi_thunks.obj
 0002:00006528       ??_C@_1BG@CJPGBMEF@?$AAk?$AAe?$AAr?$AAn?$AAe?$AAl?$AAb?$AAa?$AAs?$AAe@ 000000014008a528     libucrt:winapi_thunks.obj
 0002:00006548       ??_C@_1M@OAIMIKLP@?$AAn?$AAt?$AAd?$AAl?$AAl@ 000000014008a548     libucrt:winapi_thunks.obj
 0002:00006560       ??_C@_1EG@DPGNFKGC@?$AAa?$AAp?$AAi?$AA?9?$AAm?$AAs?$AA?9?$AAw?$AAi?$AAn?$AA?9?$AAa?$AAp?$AAp?$AAm@ 000000014008a560     libucrt:winapi_thunks.obj
 0002:000065b8       ??_C@_1O@BCCLBEOE@?$AAu?$AAs?$AAe?$AAr?$AA3?$AA2@ 000000014008a5b8     libucrt:winapi_thunks.obj
 0002:000065c8       ??_C@_1BA@IAIFMGEF@?$AAe?$AAx?$AAt?$AA?9?$AAm?$AAs?$AA?9@ 000000014008a5c8     libucrt:winapi_thunks.obj
 0002:000065e0       ??_C@_0BA@FHFNEAED@AreFileApisANSI@ 000000014008a5e0     libucrt:winapi_thunks.obj
 0002:00006608       ??_C@_0BA@IHGNDAEB@CompareStringEx@ 000000014008a608     libucrt:winapi_thunks.obj
 0002:00006630       ??_C@_0BE@LJANKFHF@EnumSystemLocalesEx@ 000000014008a630     libucrt:winapi_thunks.obj
 0002:00006658       ??_C@_0BA@HNOPNCHB@GetActiveWindow@ 000000014008a658     libucrt:winapi_thunks.obj
 0002:00006680       ??_C@_0BA@EPCJIIPD@GetDateFormatEx@ 000000014008a680     libucrt:winapi_thunks.obj
 0002:000066a8       ??_C@_0O@NNMIPI@GetTempPath2W@ 000000014008a6a8     libucrt:winapi_thunks.obj
 0002:000066c8       ??_C@_0BJ@DIBIJBHA@GetEnabledXStateFeatures@ 000000014008a6c8     libucrt:winapi_thunks.obj
 0002:000066f8       ??_C@_0BD@HHGDFDBJ@GetLastActivePopup@ 000000014008a6f8     libucrt:winapi_thunks.obj
 0002:00006720       ??_C@_0BA@ONOKGCMP@GetLocaleInfoEx@ 000000014008a720     libucrt:winapi_thunks.obj
 0002:00006748       ??_C@_0BI@DFKBFLJE@GetProcessWindowStation@ 000000014008a748     libucrt:winapi_thunks.obj
 0002:00006768       ??_C@_0BP@FPNJPEJC@GetSystemTimePreciseAsFileTime@ 000000014008a768     libucrt:winapi_thunks.obj
 0002:000067a0       ??_C@_0BA@CIJJKCJJ@GetTimeFormatEx@ 000000014008a7a0     libucrt:winapi_thunks.obj
 0002:000067c8       ??_C@_0BJ@PBCCBIPI@GetUserDefaultLocaleName@ 000000014008a7c8     libucrt:winapi_thunks.obj
 0002:000067f8       ??_C@_0BK@DEKFELLI@GetUserObjectInformationW@ 000000014008a7f8     libucrt:winapi_thunks.obj
 0002:00006828       ??_C@_0BG@IKLDMBLM@GetXStateFeaturesMask@ 000000014008a828     libucrt:winapi_thunks.obj
 0002:00006868       ??_C@_0BC@CELBKLLA@IsValidLocaleName@ 000000014008a868     libucrt:winapi_thunks.obj
 0002:00006890       ??_C@_0O@KKBNKAPF@LCMapStringEx@ 000000014008a890     libucrt:winapi_thunks.obj
 0002:000068b0       ??_C@_0BB@CDHDDLLP@LCIDToLocaleName@ 000000014008a8b0     libucrt:winapi_thunks.obj
 0002:000068d8       ??_C@_0BB@HBDEELFH@LocaleNameToLCID@ 000000014008a8d8     libucrt:winapi_thunks.obj
 0002:00006900       ??_C@_0BE@KINNKFDA@LocateXStateFeature@ 000000014008a900     libucrt:winapi_thunks.obj
 0002:00006928       ??_C@_0M@CHKKJDAI@MessageBoxA@ 000000014008a928     libucrt:winapi_thunks.obj
 0002:00006948       ??_C@_0M@DLDCCGNP@MessageBoxW@ 000000014008a948     libucrt:winapi_thunks.obj
 0002:00006960       ??_C@_0N@PPOMPGGK@RoInitialize@ 000000014008a960     libucrt:winapi_thunks.obj
 0002:00006978       ??_C@_0P@LLFHBIJD@RoUninitialize@ 000000014008a978     libucrt:winapi_thunks.obj
 0002:00006990       ??_C@_0CF@OJOFEIGO@AppPolicyGetProcessTerminationM@ 000000014008a990     libucrt:winapi_thunks.obj
 0002:000069c0       ??_C@_0CF@NNDFDCOC@AppPolicyGetThreadInitializatio@ 000000014008a9c0     libucrt:winapi_thunks.obj
 0002:000069f0       ??_C@_0CE@OICFMIKE@AppPolicyGetShowDeveloperDiagno@ 000000014008a9f0     libucrt:winapi_thunks.obj
 0002:00006a20       ??_C@_0BL@ODDJNEDA@AppPolicyGetWindowingModel@ 000000014008aa20     libucrt:winapi_thunks.obj
 0002:00006a50       ??_C@_0BI@BKLFFAPO@SetThreadStackGuarantee@ 000000014008aa50     libucrt:winapi_thunks.obj
 0002:00006a80       ??_C@_0BC@JEAENNKH@SystemFunction036@ 000000014008aa80     libucrt:winapi_thunks.obj
 0002:00006aa0       ?large_power_data@?1??multiply_by_power_of_ten@__crt_strtox@@YA_NAEAUbig_integer@2@I@Z@4QBIB 000000014008aaa0     libucrt:cfout.obj
 0002:00007580       ?large_power_indices@?1??multiply_by_power_of_ten@__crt_strtox@@YA_NAEAUbig_integer@2@I@Z@4QBUunpack_index@?1??12@YA_N0I@Z@B 000000014008b580     libucrt:cfout.obj
 0002:00007638       ?small_powers_of_ten@?1??multiply_by_power_of_ten@__crt_strtox@@YA_NAEAUbig_integer@2@I@Z@4QBIB 000000014008b638     libucrt:cfout.obj
 0002:00007664       ??_C@_01GBGANLPD@0@        000000014008b664     libucrt:cfout.obj
 0002:00007668       ??_C@_05DNEBIAHO@1?$CDINF@ 000000014008b668     libucrt:cfout.obj
 0002:00007670       ??_C@_06IMKFLFPG@1?$CDQNAN@ 000000014008b670     libucrt:cfout.obj
 0002:00007678       ??_C@_06PGGFOGJG@1?$CDSNAN@ 000000014008b678     libucrt:cfout.obj
 0002:00007680       ??_C@_05PHHOCPM@1?$CDIND@  000000014008b680     libucrt:cfout.obj
 0002:0000880c       ??_C@_15EMKDOKLE@?$AAa?$AAr@ 000000014008c80c     libucrt:lcidtoname_downlevel.obj
 0002:00008814       ??_C@_15KNPADPLH@?$AAb?$AAg@ 000000014008c814     libucrt:lcidtoname_downlevel.obj
 0002:0000881c       ??_C@_15EDMHLDMO@?$AAc?$AAa@ 000000014008c81c     libucrt:lcidtoname_downlevel.obj
 0002:00008828       ??_C@_1O@BPEAJADD@?$AAz?$AAh?$AA?9?$AAC?$AAH?$AAS@ 000000014008c828     libucrt:lcidtoname_downlevel.obj
 0002:00008838       ??_C@_15LJNHCMNK@?$AAc?$AAs@ 000000014008c838     libucrt:lcidtoname_downlevel.obj
 0002:00008840       ??_C@_15FOMCIDHG@?$AAd?$AAa@ 000000014008c840     libucrt:lcidtoname_downlevel.obj
 0002:00008848       ??_C@_15NBKABECB@?$AAd?$AAe@ 000000014008c848     libucrt:lcidtoname_downlevel.obj
 0002:00008850       ??_C@_15GHPEIIAO@?$AAe?$AAl@ 000000014008c850     libucrt:lcidtoname_downlevel.obj
 0002:00008858       ??_C@_15MNPNEAIF@?$AAe?$AAn@ 000000014008c858     libucrt:lcidtoname_downlevel.obj
 0002:00008860       ??_C@_15GPIOMPMH@?$AAe?$AAs@ 000000014008c860     libucrt:lcidtoname_downlevel.obj
 0002:00008868       ??_C@_15NGLOAKJC@?$AAf?$AAi@ 000000014008c868     libucrt:lcidtoname_downlevel.obj
 0002:00008870       ??_C@_15FBKGNKAM@?$AAf?$AAr@ 000000014008c870     libucrt:lcidtoname_downlevel.obj
 0002:00008878       ??_C@_15KGGCNEFK@?$AAh?$AAe@ 000000014008c878     libucrt:lcidtoname_downlevel.obj
 0002:00008880       ??_C@_15PGHLIDMF@?$AAh?$AAu@ 000000014008c880     libucrt:lcidtoname_downlevel.obj
 0002:00008888       ??_C@_15BIEMAPLM@?$AAi?$AAs@ 000000014008c888     libucrt:lcidtoname_downlevel.obj
 0002:00008890       ??_C@_15IFJLDHAF@?$AAi?$AAt@ 000000014008c890     libucrt:lcidtoname_downlevel.obj
 0002:00008898       ??_C@_15GEMIOCAG@?$AAj?$AAa@ 000000014008c898     libucrt:lcidtoname_downlevel.obj
 0002:000088a0       ??_C@_15EPELEGJA@?$AAk?$AAo@ 000000014008c8a0     libucrt:lcidtoname_downlevel.obj
 0002:000088a8       ??_C@_15NDDHIMN@?$AAn?$AAl@ 000000014008c8a8     libucrt:lcidtoname_downlevel.obj
 0002:000088b0       ??_C@_15BPIGNHCD@?$AAn?$AAo@ 000000014008c8b0     libucrt:lcidtoname_downlevel.obj
 0002:000088b8       ??_C@_15DEOPBLCG@?$AAp?$AAl@ 000000014008c8b8     libucrt:lcidtoname_downlevel.obj
 0002:000088c0       ??_C@_15KBECGEFG@?$AAp?$AAt@ 000000014008c8c0     libucrt:lcidtoname_downlevel.obj
 0002:000088c8       ??_C@_15GLJCBFMD@?$AAr?$AAo@ 000000014008c8c8     libucrt:lcidtoname_downlevel.obj
 0002:000088d0       ??_C@_15FEDGKCDI@?$AAr?$AAu@ 000000014008c8d0     libucrt:lcidtoname_downlevel.obj
 0002:000088d8       ??_C@_15GLKMLLHM@?$AAh?$AAr@ 000000014008c8d8     libucrt:lcidtoname_downlevel.obj
 0002:000088e0       ??_C@_15CPKMFBDB@?$AAs?$AAk@ 000000014008c8e0     libucrt:lcidtoname_downlevel.obj
 0002:000088e8       ??_C@_15BAAIOGMK@?$AAs?$AAq@ 000000014008c8e8     libucrt:lcidtoname_downlevel.obj
 0002:000088f0       ??_C@_15INNPNOHD@?$AAs?$AAv@ 000000014008c8f0     libucrt:lcidtoname_downlevel.obj
 0002:000088f8       ??_C@_15CABMMOGH@?$AAt?$AAh@ 000000014008c8f8     libucrt:lcidtoname_downlevel.obj
 0002:00008900       ??_C@_15BPLIHJJM@?$AAt?$AAr@ 000000014008c900     libucrt:lcidtoname_downlevel.obj
 0002:00008908       ??_C@_15NEOEKKDJ@?$AAu?$AAr@ 000000014008c908     libucrt:lcidtoname_downlevel.obj
 0002:00008910       ??_C@_15NFICGAJK@?$AAi?$AAd@ 000000014008c910     libucrt:lcidtoname_downlevel.obj
 0002:00008918       ??_C@_15HPJPHDM@?$AAb?$AAe@ 000000014008c918     libucrt:lcidtoname_downlevel.obj
 0002:00008920       ??_C@_15LCHLGJII@?$AAs?$AAl@ 000000014008c920     libucrt:lcidtoname_downlevel.obj
 0002:00008928       ??_C@_15PCFJPHHO@?$AAe?$AAt@ 000000014008c928     libucrt:lcidtoname_downlevel.obj
 0002:00008930       ??_C@_15HPFPGODN@?$AAl?$AAv@ 000000014008c930     libucrt:lcidtoname_downlevel.obj
 0002:00008938       ??_C@_15NFFGKGLG@?$AAl?$AAt@ 000000014008c938     libucrt:lcidtoname_downlevel.obj
 0002:00008940       ??_C@_15BDAKCCHN@?$AAf?$AAa@ 000000014008c940     libucrt:lcidtoname_downlevel.obj
 0002:00008948       ??_C@_15NFGIAIAJ@?$AAv?$AAi@ 000000014008c948     libucrt:lcidtoname_downlevel.obj
 0002:00008950       ??_C@_15LMKNDMHN@?$AAh?$AAy@ 000000014008c950     libucrt:lcidtoname_downlevel.obj
 0002:00008958       ??_C@_15IJBHMCFL@?$AAa?$AAz@ 000000014008c958     libucrt:lcidtoname_downlevel.obj
 0002:00008960       ??_C@_15EKOFJABL@?$AAe?$AAu@ 000000014008c960     libucrt:lcidtoname_downlevel.obj
 0002:00008968       ??_C@_15BGHADCNK@?$AAm?$AAk@ 000000014008c968     libucrt:lcidtoname_downlevel.obj
 0002:00008970       ??_C@_15JDNICKHM@?$AAa?$AAf@ 000000014008c970     libucrt:lcidtoname_downlevel.obj
 0002:00008978       ??_C@_15KPJEDBKD@?$AAk?$AAa@ 000000014008c978     libucrt:lcidtoname_downlevel.obj
 0002:00008980       ??_C@_15PDNFFFEO@?$AAf?$AAo@ 000000014008c980     libucrt:lcidtoname_downlevel.obj
 0002:00008988       ??_C@_15OMLEGLOC@?$AAh?$AAi@ 000000014008c988     libucrt:lcidtoname_downlevel.obj
 0002:00008990       ??_C@_15IDNNENKK@?$AAm?$AAs@ 000000014008c990     libucrt:lcidtoname_downlevel.obj
 0002:00008998       ??_C@_15MACJNBMH@?$AAk?$AAk@ 000000014008c998     libucrt:lcidtoname_downlevel.obj
 0002:000089a0       ??_C@_15DKDJEOND@?$AAk?$AAy@ 000000014008c9a0     libucrt:lcidtoname_downlevel.obj
 0002:000089a8       ??_C@_15DFGDLJBG@?$AAs?$AAw@ 000000014008c9a8     libucrt:lcidtoname_downlevel.obj
 0002:000089b0       ??_C@_15BBFAICNG@?$AAu?$AAz@ 000000014008c9b0     libucrt:lcidtoname_downlevel.obj
 0002:000089b8       ??_C@_15DKNDCGEA@?$AAt?$AAt@ 000000014008c9b8     libucrt:lcidtoname_downlevel.obj
 0002:000089c0       ??_C@_15MGIFMDPL@?$AAp?$AAa@ 000000014008c9c0     libucrt:lcidtoname_downlevel.obj
 0002:000089c8       ??_C@_15HCNDBBA@?$AAg?$AAu@ 000000014008c9c8     libucrt:lcidtoname_downlevel.obj
 0002:000089d0       ??_C@_15FNBEIBON@?$AAt?$AAa@ 000000014008c9d0     libucrt:lcidtoname_downlevel.obj
 0002:000089d8       ??_C@_15NCHGBGLK@?$AAt?$AAe@ 000000014008c9d8     libucrt:lcidtoname_downlevel.obj
 0002:000089e0       ??_C@_15PHPHCBPF@?$AAk?$AAn@ 000000014008c9e0     libucrt:lcidtoname_downlevel.obj
 0002:000089e8       ??_C@_15DLGBCKMP@?$AAm?$AAr@ 000000014008c9e8     libucrt:lcidtoname_downlevel.obj
 0002:000089f0       ??_C@_15EABBLBFF@?$AAs?$AAa@ 000000014008c9f0     libucrt:lcidtoname_downlevel.obj
 0002:000089f8       ??_C@_15CBKOMCOI@?$AAm?$AAn@ 000000014008c9f8     libucrt:lcidtoname_downlevel.obj
 0002:00008a00       ??_C@_15CKDMCJAF@?$AAg?$AAl@ 000000014008ca00     libucrt:lcidtoname_downlevel.obj
 0002:00008a08       ??_C@_17CNJFBPG@?$AAk?$AAo?$AAk@ 000000014008ca08     libucrt:lcidtoname_downlevel.obj
 0002:00008a18       ??_C@_17FFBJICPL@?$AAs?$AAy?$AAr@ 000000014008ca18     libucrt:lcidtoname_downlevel.obj
 0002:00008a28       ??_C@_17KPNDCPAF@?$AAd?$AAi?$AAv@ 000000014008ca28     libucrt:lcidtoname_downlevel.obj
 0002:00008a34       ??_C@_11LOCGONAA@@         000000014008ca34     libucrt:lcidtoname_downlevel.obj
 0002:00008a38       ??_C@_1M@OKAHONE@?$AAa?$AAr?$AA?9?$AAS?$AAA@ 000000014008ca38     libucrt:lcidtoname_downlevel.obj
 0002:00008a48       ??_C@_1M@FFFIGIGK@?$AAb?$AAg?$AA?9?$AAB?$AAG@ 000000014008ca48     libucrt:lcidtoname_downlevel.obj
 0002:00008a58       ??_C@_1M@BJNKEDC@?$AAc?$AAa?$AA?9?$AAE?$AAS@ 000000014008ca58     libucrt:lcidtoname_downlevel.obj
 0002:00008a68       ??_C@_1M@IJJHFJHA@?$AAc?$AAs?$AA?9?$AAC?$AAZ@ 000000014008ca68     libucrt:lcidtoname_downlevel.obj
 0002:00008a78       ??_C@_1M@CLPEOBGI@?$AAd?$AAa?$AA?9?$AAD?$AAK@ 000000014008ca78     libucrt:lcidtoname_downlevel.obj
 0002:00008a88       ??_C@_1M@MCMADGCB@?$AAd?$AAe?$AA?9?$AAD?$AAE@ 000000014008ca88     libucrt:lcidtoname_downlevel.obj
 0002:00008a98       ??_C@_1M@OOCKEMAM@?$AAe?$AAl?$AA?9?$AAG?$AAR@ 000000014008ca98     libucrt:lcidtoname_downlevel.obj
 0002:00008aa8       ??_C@_1M@DDNJFGID@?$AAf?$AAi?$AA?9?$AAF?$AAI@ 000000014008caa8     libucrt:lcidtoname_downlevel.obj
 0002:00008ab8       ??_C@_1M@GLIPPMAC@?$AAf?$AAr?$AA?9?$AAF?$AAR@ 000000014008cab8     libucrt:lcidtoname_downlevel.obj
 0002:00008ac8       ??_C@_1M@GFMCHPE@?$AAh?$AAe?$AA?9?$AAI?$AAL@ 000000014008cac8     libucrt:lcidtoname_downlevel.obj
 0002:00008ad8       ??_C@_1M@MHLPGNKM@?$AAh?$AAu?$AA?9?$AAH?$AAU@ 000000014008cad8     libucrt:lcidtoname_downlevel.obj
 0002:00008ae8       ??_C@_1M@LPDDNNPN@?$AAi?$AAs?$AA?9?$AAI?$AAS@ 000000014008cae8     libucrt:lcidtoname_downlevel.obj
 0002:00008af8       ??_C@_1M@MADIPODN@?$AAi?$AAt?$AA?9?$AAI?$AAT@ 000000014008caf8     libucrt:lcidtoname_downlevel.obj
 0002:00008b08       ??_C@_1M@IHBJJGG@?$AAn?$AAl?$AA?9?$AAN?$AAL@ 000000014008cb08     libucrt:lcidtoname_downlevel.obj
 0002:00008b18       ??_C@_1M@EANAGDL@?$AAn?$AAb?$AA?9?$AAN?$AAO@ 000000014008cb18     libucrt:lcidtoname_downlevel.obj
 0002:00008b28       ??_C@_1M@NEIEMEGP@?$AAp?$AAl?$AA?9?$AAP?$AAL@ 000000014008cb28     libucrt:lcidtoname_downlevel.obj
 0002:00008b38       ??_C@_1M@BOCFIGEP@?$AAp?$AAt?$AA?9?$AAB?$AAR@ 000000014008cb38     libucrt:lcidtoname_downlevel.obj
 0002:00008b48       ??_C@_1M@IMPFOPBG@?$AAr?$AAo?$AA?9?$AAR?$AAO@ 000000014008cb48     libucrt:lcidtoname_downlevel.obj
 0002:00008b58       ??_C@_1M@IDNNEJMM@?$AAr?$AAu?$AA?9?$AAR?$AAU@ 000000014008cb58     libucrt:lcidtoname_downlevel.obj
 0002:00008b68       ??_C@_1M@LILEEOGM@?$AAh?$AAr?$AA?9?$AAH?$AAR@ 000000014008cb68     libucrt:lcidtoname_downlevel.obj
 0002:00008b78       ??_C@_1M@FKIFEHPB@?$AAs?$AAk?$AA?9?$AAS?$AAK@ 000000014008cb78     libucrt:lcidtoname_downlevel.obj
 0002:00008b88       ??_C@_1M@LJMAMNPJ@?$AAs?$AAq?$AA?9?$AAA?$AAL@ 000000014008cb88     libucrt:lcidtoname_downlevel.obj
 0002:00008b98       ??_C@_1M@GIAKDKJK@?$AAs?$AAv?$AA?9?$AAS?$AAE@ 000000014008cb98     libucrt:lcidtoname_downlevel.obj
 0002:00008ba8       ??_C@_1M@MKJKIKCL@?$AAt?$AAh?$AA?9?$AAT?$AAH@ 000000014008cba8     libucrt:lcidtoname_downlevel.obj
 0002:00008bb8       ??_C@_1M@MFLCCMPB@?$AAt?$AAr?$AA?9?$AAT?$AAR@ 000000014008cbb8     libucrt:lcidtoname_downlevel.obj
 0002:00008bc8       ??_C@_1M@OIJHDKJN@?$AAu?$AAr?$AA?9?$AAP?$AAK@ 000000014008cbc8     libucrt:lcidtoname_downlevel.obj
 0002:00008bd8       ??_C@_1M@LHIPCIEK@?$AAi?$AAd?$AA?9?$AAI?$AAD@ 000000014008cbd8     libucrt:lcidtoname_downlevel.obj
 0002:00008be8       ??_C@_1M@MFMOBGI@?$AAu?$AAk?$AA?9?$AAU?$AAA@ 000000014008cbe8     libucrt:lcidtoname_downlevel.obj
 0002:00008bf8       ??_C@_1M@OBGLJIPL@?$AAb?$AAe?$AA?9?$AAB?$AAY@ 000000014008cbf8     libucrt:lcidtoname_downlevel.obj
 0002:00008c08       ??_C@_1M@BCFAJEAD@?$AAs?$AAl?$AA?9?$AAS?$AAI@ 000000014008cc08     libucrt:lcidtoname_downlevel.obj
 0002:00008c18       ??_C@_1M@FKFFEDDN@?$AAe?$AAt?$AA?9?$AAE?$AAE@ 000000014008cc18     libucrt:lcidtoname_downlevel.obj
 0002:00008c28       ??_C@_1M@KGKKAACI@?$AAl?$AAv?$AA?9?$AAL?$AAV@ 000000014008cc28     libucrt:lcidtoname_downlevel.obj
 0002:00008c38       ??_C@_1M@IFGBIJO@?$AAl?$AAt?$AA?9?$AAL?$AAT@ 000000014008cc38     libucrt:lcidtoname_downlevel.obj
 0002:00008c48       ??_C@_1M@FGEAHEDM@?$AAf?$AAa?$AA?9?$AAI?$AAR@ 000000014008cc48     libucrt:lcidtoname_downlevel.obj
 0002:00008c58       ??_C@_1M@KBMAIBFN@?$AAv?$AAi?$AA?9?$AAV?$AAN@ 000000014008cc58     libucrt:lcidtoname_downlevel.obj
 0002:00008c68       ??_C@_1M@GPCBKDJK@?$AAh?$AAy?$AA?9?$AAA?$AAM@ 000000014008cc68     libucrt:lcidtoname_downlevel.obj
 0002:00008c78       ??_C@_1BG@BECMDDJB@?$AAa?$AAz?$AA?9?$AAA?$AAZ?$AA?9?$AAL?$AAa?$AAt?$AAn@ 000000014008cc78     libucrt:lcidtoname_downlevel.obj
 0002:00008c98       ??_C@_1M@MAOFCAEA@?$AAe?$AAu?$AA?9?$AAE?$AAS@ 000000014008cc98     libucrt:lcidtoname_downlevel.obj
 0002:00008ca8       ??_C@_1M@IGHABKPI@?$AAm?$AAk?$AA?9?$AAM?$AAK@ 000000014008cca8     libucrt:lcidtoname_downlevel.obj
 0002:00008cb8       ??_C@_1M@IAIGNEJG@?$AAt?$AAn?$AA?9?$AAZ?$AAA@ 000000014008ccb8     libucrt:lcidtoname_downlevel.obj
 0002:00008cc8       ??_C@_1M@IIJCOJFA@?$AAx?$AAh?$AA?9?$AAZ?$AAA@ 000000014008ccc8     libucrt:lcidtoname_downlevel.obj
 0002:00008cd8       ??_C@_1M@LGPJHNJH@?$AAz?$AAu?$AA?9?$AAZ?$AAA@ 000000014008ccd8     libucrt:lcidtoname_downlevel.obj
 0002:00008ce8       ??_C@_1M@HOKAOIO@?$AAa?$AAf?$AA?9?$AAZ?$AAA@ 000000014008cce8     libucrt:lcidtoname_downlevel.obj
 0002:00008cf8       ??_C@_1M@DPCLHLIE@?$AAk?$AAa?$AA?9?$AAG?$AAE@ 000000014008ccf8     libucrt:lcidtoname_downlevel.obj
 0002:00008d08       ??_C@_1M@BLKMHJBI@?$AAf?$AAo?$AA?9?$AAF?$AAO@ 000000014008cd08     libucrt:lcidtoname_downlevel.obj
 0002:00008d18       ??_C@_1M@LGGJAPPB@?$AAh?$AAi?$AA?9?$AAI?$AAN@ 000000014008cd18     libucrt:lcidtoname_downlevel.obj
 0002:00008d28       ??_C@_1M@FIKPIHFE@?$AAm?$AAt?$AA?9?$AAM?$AAT@ 000000014008cd28     libucrt:lcidtoname_downlevel.obj
 0002:00008d38       ??_C@_1M@HEGGPBFA@?$AAs?$AAe?$AA?9?$AAN?$AAO@ 000000014008cd38     libucrt:lcidtoname_downlevel.obj
 0002:00008d48       ??_C@_1M@EIBJEEPA@?$AAm?$AAs?$AA?9?$AAM?$AAY@ 000000014008cd48     libucrt:lcidtoname_downlevel.obj
 0002:00008d58       ??_C@_1M@FHLBGMPP@?$AAk?$AAk?$AA?9?$AAK?$AAZ@ 000000014008cd58     libucrt:lcidtoname_downlevel.obj
 0002:00008d68       ??_C@_1M@NGJJLCGI@?$AAk?$AAy?$AA?9?$AAK?$AAG@ 000000014008cd68     libucrt:lcidtoname_downlevel.obj
 0002:00008d78       ??_C@_1M@GIENNBFC@?$AAs?$AAw?$AA?9?$AAK?$AAE@ 000000014008cd78     libucrt:lcidtoname_downlevel.obj
 0002:00008d88       ??_C@_1BG@NDGMJIMJ@?$AAu?$AAz?$AA?9?$AAU?$AAZ?$AA?9?$AAL?$AAa?$AAt?$AAn@ 000000014008cd88     libucrt:lcidtoname_downlevel.obj
 0002:00008da8       ??_C@_1M@IDCCIHBC@?$AAt?$AAt?$AA?9?$AAR?$AAU@ 000000014008cda8     libucrt:lcidtoname_downlevel.obj
 0002:00008db8       ??_C@_1M@LOICPMOJ@?$AAb?$AAn?$AA?9?$AAI?$AAN@ 000000014008cdb8     libucrt:lcidtoname_downlevel.obj
 0002:00008dc8       ??_C@_1M@KPKKNEAH@?$AAp?$AAa?$AA?9?$AAI?$AAN@ 000000014008cdc8     libucrt:lcidtoname_downlevel.obj
 0002:00008dd8       ??_C@_1M@PJGPPBOG@?$AAg?$AAu?$AA?9?$AAI?$AAN@ 000000014008cdd8     libucrt:lcidtoname_downlevel.obj
 0002:00008de8       ??_C@_1M@KMKMOPHI@?$AAt?$AAa?$AA?9?$AAI?$AAN@ 000000014008cde8     libucrt:lcidtoname_downlevel.obj
